 Source Engine

 Timestamp is 668c1d42 (Mon Jul  8 19:09:22 2024)

 Preferred load address is 0000000180000000

 Start         Length     Name                   Class
 0001:00000000 00002890H .text                   CODE
 0001:00002890 000023f0H .text$di                CODE
 0001:00004c80 00061bd0H .text$mn                CODE
 0001:00066850 00000040H .text$mn$00             CODE
 0001:00066890 00000be0H .text$mn$21             CODE
 0001:00067470 00000ed0H .text$x                 CODE
 0001:00068340 000008adH .text$yd                CODE
 0002:00000000 00000400H .idata$5                DATA
 0002:00000400 00000038H .00cfg                  DATA
 0002:00000438 00000008H .CRT$XCA                DATA
 0002:00000440 000000c0H .CRT$XCU                DATA
 0002:00000500 00000008H .CRT$XCZ                DATA
 0002:00000508 00000008H .CRT$XIA                DATA
 0002:00000510 00000028H .CRT$XIC                DATA
 0002:00000538 00000008H .CRT$XIZ                DATA
 0002:00000540 00000008H .CRT$XLA                DATA
 0002:00000548 00000008H .CRT$XLZ                DATA
 0002:00000550 00000008H .CRT$XPA                DATA
 0002:00000558 00000010H .CRT$XPX                DATA
 0002:00000568 00000008H .CRT$XPXA               DATA
 0002:00000570 00000008H .CRT$XPZ                DATA
 0002:00000578 00000008H .CRT$XTA                DATA
 0002:00000580 00000010H .CRT$XTZ                DATA
 0002:00000588 00000000H .gehcont$y              DATA
 0002:00000588 00000000H .gfids$y                DATA
 0002:00000590 00013ff0H .rdata                  DATA
 0002:00014580 00000180H .rdata$00               DATA
 0002:00014700 00000000H .rdata$CastGuardVftablesA DATA
 0002:00014700 00000000H .rdata$CastGuardVftablesC DATA
 0002:00014700 00000028H .rdata$T                DATA
 0002:00014728 00000404H .rdata$r                DATA
 0002:00014b2c 00000e28H .rdata$voltmd           DATA
 0002:00015954 00000074H .rdata$zzzdbg           DATA
 0002:000159c8 00000008H .rtc$IAA                DATA
 0002:000159d0 00000008H .rtc$IZZ                DATA
 0002:000159d8 00000008H .rtc$TAA                DATA
 0002:000159e0 00000008H .rtc$TZZ                DATA
 0002:000159e8 00000004H .tls                    DATA
 0002:000159ec 00000004H .tls$                   DATA
 0002:000159f0 00000008H .tls$ZZZ                DATA
 0002:000159f8 00005ec8H .xdata                  DATA
 0002:0001b8c0 00000244H .xdata$x                DATA
 0002:0001bb04 00000000H .edata                  DATA
 0002:0001bb04 00000050H .idata$2                DATA
 0002:0001bb54 00000014H .idata$3                DATA
 0002:0001bb68 00000400H .idata$4                DATA
 0002:0001bf68 00000904H .idata$6                DATA
 0003:00000000 00042ca0H .data                   DATA
 0003:00042ca0 00000120H .data$r                 DATA
 0003:00042dc0 00000020H .data$rs                DATA
 0003:00042de0 000015ccH .bss                    DATA
 0004:00000000 00004884H .pdata                  DATA
 0005:00000000 00000060H .rsrc$01                DATA
 0005:00000060 00000098H .rsrc$02                DATA

  Address         Publics by Value              Rva+Base               Lib:Object

 0000:00000000       __AbsoluteZero             0000000000000000     <absolute>
 0000:00000000       ___safe_se_handler_count   0000000000000000     <absolute>
 0000:00000000       ___safe_se_handler_table   0000000000000000     <absolute>
 0000:00000000       __arm64x_extra_rfe_table   0000000000000000     <absolute>
 0000:00000000       __arm64x_extra_rfe_table_size 0000000000000000     <absolute>
 0000:00000000       __arm64x_native_entrypoint 0000000000000000     <absolute>
 0000:00000000       __arm64x_redirection_metadata 0000000000000000     <absolute>
 0000:00000000       __arm64x_redirection_metadata_count 0000000000000000     <absolute>
 0000:00000000       __dynamic_value_reloc_table 0000000000000000     <absolute>
 0000:00000000       __enclave_config           0000000000000000     <absolute>
 0000:00000000       __guard_check_icall_a64n_fptr 0000000000000000     <absolute>
 0000:00000000       __guard_eh_cont_count      0000000000000000     <absolute>
 0000:00000000       __guard_eh_cont_table      0000000000000000     <absolute>
 0000:00000000       __guard_fids_count         0000000000000000     <absolute>
 0000:00000000       __guard_fids_table         0000000000000000     <absolute>
 0000:00000000       __guard_iat_count          0000000000000000     <absolute>
 0000:00000000       __guard_iat_table          0000000000000000     <absolute>
 0000:00000000       __guard_longjmp_count      0000000000000000     <absolute>
 0000:00000000       __guard_longjmp_table      0000000000000000     <absolute>
 0000:00000000       __hybrid_auxiliary_delayload_iat 0000000000000000     <absolute>
 0000:00000000       __hybrid_auxiliary_delayload_iat_copy 0000000000000000     <absolute>
 0000:00000000       __hybrid_auxiliary_iat     0000000000000000     <absolute>
 0000:00000000       __hybrid_auxiliary_iat_copy 0000000000000000     <absolute>
 0000:00000000       __hybrid_code_map          0000000000000000     <absolute>
 0000:00000000       __hybrid_code_map_count    0000000000000000     <absolute>
 0000:00000000       __hybrid_image_info_bitfield 0000000000000000     <absolute>
 0000:00000000       __x64_code_ranges_to_entry_points 0000000000000000     <absolute>
 0000:00000000       __x64_code_ranges_to_entry_points_count 0000000000000000     <absolute>
 0000:00000100       __guard_flags              0000000000000100     <absolute>
 0000:00000000       __ImageBase                0000000180000000     <linker-defined>
 0001:00000000       DetourCodeFromPointer      0000000180001000 f   detours:detours.obj
 0001:00000030       ?detour_skip_jmp@@YAPEAEPEAEPEAPEAX@Z 0000000180001030 f i detours:detours.obj
 0001:00000270       DetourTransactionBegin     0000000180001270 f   detours:detours.obj
 0001:00000340       DetourTransactionAbort     0000000180001340 f   detours:detours.obj
 0001:00000540       DetourTransactionCommit    0000000180001540 f   detours:detours.obj
 0001:00000550       DetourTransactionCommitEx  0000000180001550 f   detours:detours.obj
 0001:00000a40       ?detour_gen_jmp_immediate@@YAPEAEPEAE0@Z 0000000180001a40 f i detours:detours.obj
 0001:00000aa0       ?detour_gen_jmp_indirect@@YAPEAEPEAEPEAPEAE@Z 0000000180001aa0 f i detours:detours.obj
 0001:00000b20       ?detour_gen_brk@@YAPEAEPEAE0@Z 0000000180001b20 f i detours:detours.obj
 0001:00000d90       DetourUpdateThread         0000000180001d90 f   detours:detours.obj
 0001:00000e80       DetourAttach               0000000180001e80 f   detours:detours.obj
 0001:00000ec0       DetourAttachEx             0000000180001ec0 f   detours:detours.obj
 0001:000014b0       ?detour_does_code_end_function@@YAHPEAE@Z 00000001800024b0 f i detours:detours.obj
 0001:000015c0       ?detour_is_code_filler@@YAKPEAE@Z 00000001800025c0 f i detours:detours.obj
 0001:00001990       PtrToUlong                 0000000180002990 f i detours:detours.obj
 0001:00001c40       DetourCopyInstruction      0000000180002c40 f   detours:disasm.obj
 0001:00001cc0       ??0CDetourDis@@QEAA@PEAPEAEPEAJ@Z 0000000180002cc0 f   detours:disasm.obj
 0001:00001d80       ?CopyInstruction@CDetourDis@@QEAAPEAEPEAE0@Z 0000000180002d80 f   detours:disasm.obj
 0001:00001e00       ?CopyBytes@CDetourDis@@IEAAPEAEPEBUCOPYENTRY@1@PEAE1@Z 0000000180002e00 f   detours:disasm.obj
 0001:00002120       ?CopyBytesPrefix@CDetourDis@@IEAAPEAEPEBUCOPYENTRY@1@PEAE1@Z 0000000180003120 f   detours:disasm.obj
 0001:000021a0       ?CopyBytesRax@CDetourDis@@IEAAPEAEPEBUCOPYENTRY@1@PEAE1@Z 00000001800031a0 f   detours:disasm.obj
 0001:00002240       ?CopyBytesJump@CDetourDis@@IEAAPEAEPEBUCOPYENTRY@1@PEAE1@Z 0000000180003240 f   detours:disasm.obj
 0001:00002390       ?AdjustTarget@CDetourDis@@IEAAPEAEPEAE0JJJ@Z 0000000180003390 f   detours:disasm.obj
 0001:00002540       ?Invalid@CDetourDis@@IEAAPEAEPEBUCOPYENTRY@1@PEAE1@Z 0000000180003540 f   detours:disasm.obj
 0001:00002560       ?Copy0F@CDetourDis@@IEAAPEAEPEBUCOPYENTRY@1@PEAE1@Z 0000000180003560 f   detours:disasm.obj
 0001:000025e0       ?Copy66@CDetourDis@@IEAAPEAEPEBUCOPYENTRY@1@PEAE1@Z 00000001800035e0 f   detours:disasm.obj
 0001:00002630       ?Copy67@CDetourDis@@IEAAPEAEPEBUCOPYENTRY@1@PEAE1@Z 0000000180003630 f   detours:disasm.obj
 0001:00002680       ?CopyF6@CDetourDis@@IEAAPEAEPEBUCOPYENTRY@1@PEAE1@Z 0000000180003680 f   detours:disasm.obj
 0001:00002710       ?CopyF7@CDetourDis@@IEAAPEAEPEBUCOPYENTRY@1@PEAE1@Z 0000000180003710 f   detours:disasm.obj
 0001:000027a0       ?CopyFF@CDetourDis@@IEAAPEAEPEBUCOPYENTRY@1@PEAE1@Z 00000001800037a0 f   detours:disasm.obj
 0001:00004c80       ??0exception@std@@QEAA@AEBV01@@Z 0000000180005c80 f i Aimbot.obj
 0001:00004cc0       ?what@exception@std@@UEBAPEBDXZ 0000000180005cc0 f i Aimbot.obj
 0001:00004ce0       ??_Ebad_alloc@std@@UEAAPEAXI@Z 0000000180005ce0 f i * CIL library *:* CIL module *
 0001:00004ce0       ??_Ebad_array_new_length@std@@UEAAPEAXI@Z 0000000180005ce0 f i * CIL library *:* CIL module *
 0001:00004ce0       ??_Ebad_exception@std@@UEAAPEAXI@Z 0000000180005ce0 f i libvcruntime:frame.obj
 0001:00004ce0       ??_Eexception@std@@UEAAPEAXI@Z 0000000180005ce0 f i * CIL library *:* CIL module *
 0001:00004ce0       ??_Elength_error@std@@UEAAPEAXI@Z 0000000180005ce0 f i libcpmt:xthrow.obj
 0001:00004ce0       ??_Elogic_error@std@@UEAAPEAXI@Z 0000000180005ce0 f i libcpmt:xthrow.obj
 0001:00004ce0       ??_Eout_of_range@std@@UEAAPEAXI@Z 0000000180005ce0 f i libcpmt:xthrow.obj
 0001:00004ce0       ??_Gbad_alloc@std@@UEAAPEAXI@Z 0000000180005ce0 f i Aimbot.obj
 0001:00004ce0       ??_Gbad_array_new_length@std@@UEAAPEAXI@Z 0000000180005ce0 f i Aimbot.obj
 0001:00004ce0       ??_Gbad_exception@std@@UEAAPEAXI@Z 0000000180005ce0 f i libvcruntime:frame.obj
 0001:00004ce0       ??_Gexception@std@@UEAAPEAXI@Z 0000000180005ce0 f i Aimbot.obj
 0001:00004ce0       ??_Glength_error@std@@UEAAPEAXI@Z 0000000180005ce0 f i libcpmt:xthrow.obj
 0001:00004ce0       ??_Glogic_error@std@@UEAAPEAXI@Z 0000000180005ce0 f i libcpmt:xthrow.obj
 0001:00004ce0       ??_Gout_of_range@std@@UEAAPEAXI@Z 0000000180005ce0 f i libcpmt:xthrow.obj
 0001:00004d30       ??1bad_alloc@std@@UEAA@XZ  0000000180005d30 f i Aimbot.obj
 0001:00004d30       ??1bad_array_new_length@std@@UEAA@XZ 0000000180005d30 f i Aimbot.obj
 0001:00004d30       ??1bad_exception@std@@UEAA@XZ 0000000180005d30 f i libvcruntime:frame.obj
 0001:00004d30       ??1length_error@std@@UEAA@XZ 0000000180005d30 f i libcpmt:xthrow.obj
 0001:00004d30       ??1out_of_range@std@@UEAA@XZ 0000000180005d30 f i libcpmt:xthrow.obj
 0001:00004d50       ??0bad_array_new_length@std@@QEAA@XZ 0000000180005d50 f i Aimbot.obj
 0001:00004d80       ?_Throw_bad_array_new_length@std@@YAXXZ 0000000180005d80 f i Aimbot.obj
 0001:00004d80       ?__scrt_throw_std_bad_array_new_length@@YAXXZ 0000000180005d80 f i LIBCMT:throw_bad_alloc.obj
 0001:00004da0       ??0bad_array_new_length@std@@QEAA@AEBV01@@Z 0000000180005da0 f i Aimbot.obj
 0001:00004de0       ??0bad_alloc@std@@QEAA@AEBV01@@Z 0000000180005de0 f i Aimbot.obj
 0001:00004e20       ?_Xlen_string@std@@YAXXZ   0000000180005e20 f i Aimbot.obj
 0001:00004e40       ?InitializeModules@ModuleManager@@QEAAXXZ 0000000180005e40 f i Aimbot.obj
 0001:000050e0       ??0CEntity@@QEAA@XZ        00000001800060e0 f i Aimbot.obj
 0001:000051b0       ??1WeaponEntity@@QEAA@XZ   00000001800061b0 f i Aimbot.obj
 0001:00005210       ?WorldToScreen@ScreenProjection@@QEBAHAEBVVec3@@AEAVVec2@@@Z 0000000180006210 f i Aimbot.obj
 0001:00005350       ?CalculateAimbot@@YAXAEAVCEntity@@@Z 0000000180006350 f   Aimbot.obj
 0001:00005830       ??1?$list@KV?$allocator@K@std@@@std@@QEAA@XZ 0000000180006830 f i Aimbot.obj
 0001:00005890       ??0?$list@KV?$allocator@K@std@@@std@@QEAA@V?$initializer_list@K@1@@Z 0000000180006890 f i Aimbot.obj
 0001:000059c0       ??0?$list@KV?$allocator@K@std@@@std@@QEAA@AEBV01@@Z 00000001800069c0 f i Aimbot.obj
 0001:00005af0       ??1?$vector@UBoneJointPos@@V?$allocator@UBoneJointPos@@@std@@@std@@QEAA@XZ 0000000180006af0 f i Aimbot.obj
 0001:00005b70       ??1?$basic_string@DU?$char_traits@D@std@@V?$allocator@D@2@@std@@QEAA@XZ 0000000180006b70 f i Aimbot.obj
 0001:00005bd0       ?_Tidy@?$vector@V?$list@KV?$allocator@K@std@@@std@@V?$allocator@V?$list@KV?$allocator@K@std@@@std@@@2@@std@@AEAAXXZ 0000000180006bd0 f i Aimbot.obj
 0001:00005c40       ??$_Construct@$00PEBD@?$basic_string@DU?$char_traits@D@std@@V?$allocator@D@2@@std@@AEAAXQEBD_K@Z 0000000180006c40 f i Aimbot.obj
 0001:00005d50       ??$_Destroy_range@V?$allocator@V?$list@KV?$allocator@K@std@@@std@@@std@@@std@@YAXPEAV?$list@KV?$allocator@K@std@@@0@QEAV10@AEAV?$allocator@V?$list@KV?$allocator@K@std@@@std@@@0@@Z 0000000180006d50 f i Aimbot.obj
 0001:00005de0       ??1?$_List_node_insert_op2@V?$allocator@U?$_List_node@KPEAX@std@@@std@@@std@@QEAA@XZ 0000000180006de0 f i Aimbot.obj
 0001:00005e30       ??1?$_Tidy_guard@V?$vector@V?$list@KV?$allocator@K@std@@@std@@V?$allocator@V?$list@KV?$allocator@K@std@@@std@@@2@@std@@@std@@QEAA@XZ 0000000180006e30 f i Aimbot.obj
 0001:00005e40       ??1?$_Alloc_construct_ptr@V?$allocator@U?$_List_node@KPEAX@std@@@std@@@std@@QEAA@XZ 0000000180006e40 f i Aimbot.obj
 0001:00005e60       ??1?$_Uninitialized_backout_al@V?$allocator@V?$list@KV?$allocator@K@std@@@std@@@std@@@std@@QEAA@XZ 0000000180006e60 f i Aimbot.obj
 0001:00005e70       ?DrawBone@@YAXAEAVCEntity@@UImColor@@M@Z 0000000180006e70 f   ESP.obj
 0001:000062f0       ?DrawCustomBox@@YAXAEBUImVec2@@0AEBUImColor@@M@Z 00000001800072f0 f   ESP.obj
 0001:00006570       ?RenderESP@@YAHAEAVCEntity@@@Z 0000000180007570 f   ESP.obj
 0001:00006e30       ??$_Integral_to_string@DH@std@@YA?AV?$basic_string@DU?$char_traits@D@std@@V?$allocator@D@2@@0@H@Z 0000000180007e30 f i ESP.obj
 0001:00007010       ??$_Reallocate_grow_by@V<lambda_1>@?1??append@?$basic_string@DU?$char_traits@D@std@@V?$allocator@D@2@@std@@QEAAAEAV34@QEBD_K@Z@PEBD_K@?$basic_string@DU?$char_traits@D@std@@V?$allocator@D@2@@std@@AEAAAEAV01@_KV<lambda_1>@?1??append@01@QEAAAEAV01@QEBD0@Z@PEBD_K@Z 0000000180008010 f i ESP.obj
 0001:000071a0       ?now@steady_clock@chrono@std@@SA?AV?$time_point@Usteady_clock@chrono@std@@V?$duration@_JU?$ratio@$00$0DLJKMKAA@@std@@@23@@23@XZ 00000001800081a0 f i TriggerBot.obj
 0001:00007280       ?TriggerBot@@YAXXZ         0000000180008280 f   TriggerBot.obj
 0001:000075c0       ??$ReadMemoryInternal@_K@@YAH_KAEA_K0@Z 00000001800085c0 f i TriggerBot.obj
 0001:00007660       ??$ReadMemoryInternal@H@@YAH_KAEAH0@Z 0000000180008660 f i TriggerBot.obj
 0001:00007660       ??$ReadMemoryInternal@K@@YAH_KAEAK0@Z 0000000180008660 f i TriggerBot.obj
 0001:00007700       ?MenuESP@@YAXXZ            0000000180008700 f   d3d.obj
 0001:00008000       ?MenuAimBot@@YAXXZ         0000000180009000 f   d3d.obj
 0001:000083f0       ?RenderUI@@YAXXZ           00000001800093f0 f   d3d.obj
 0001:00008a40       ?InitiateImGui@@YAXXZ      0000000180009a40 f   d3d.obj
 0001:00008cb0       ?WndProc@@YA_JQEAUHWND__@@I_K_J@Z 0000000180009cb0 f   d3d.obj
 0001:00008d10       ?hkPresent@@YAJPEAUIDXGISwapChain@@II@Z 0000000180009d10 f   d3d.obj
 0001:00008f90       ?InitializeOffsets@@YAHXZ  0000000180009f90 f   Hooks.obj
 0001:00009a20       ?InitializeRender@@YAHXZ   000000018000aa20 f   Hooks.obj
 0001:00009eb0       ??3@YAXPEAXUImNewDummy@@0@Z 000000018000aeb0 f i imgui.obj
 0001:00009eb0       _guard_check_icall_nop     000000018000aeb0 f i LIBCMT:guard_support.obj
 0001:00009ec0       ??1ImDrawListSplitter@@QEAA@XZ 000000018000aec0 f i imgui.obj
 0001:00009f00       ??0ImDrawList@@QEAA@PEBUImDrawListSharedData@@@Z 000000018000af00 f i imgui.obj
 0001:0000a2e0       ??1ImDrawList@@QEAA@XZ     000000018000b2e0 f i imgui.obj
 0001:0000a400       ??1ImDrawData@@QEAA@XZ     000000018000b400 f i imgui.obj
 0001:0000a420       __local_stdio_printf_options 000000018000b420 f i imgui.obj
 0001:0000a430       __local_stdio_scanf_options 000000018000b430 f i imgui.obj
 0001:0000a440       sscanf                     000000018000b440 f i imgui.obj
 0001:0000a4a0       ?ClipWithFull@ImRect@@QEAAXAEBU1@@Z 000000018000b4a0 f i imgui.obj
 0001:0000a520       ??0ImGuiContext@@QEAA@PEAUImFontAtlas@@@Z 000000018000b520 f i imgui.obj
 0001:0000adc0       ??1ImGuiIO@@QEAA@XZ        000000018000bdc0 f i imgui.obj
 0001:0000adf0       ??1?$ImChunkStream@UImGuiWindowSettings@@@@QEAA@XZ 000000018000bdf0 f i imgui.obj
 0001:0000adf0       ??1ImGuiStorage@@QEAA@XZ   000000018000bdf0 f i imgui.obj
 0001:0000adf0       ??1ImGuiTextBuffer@@QEAA@XZ 000000018000bdf0 f i imgui.obj
 0001:0000ae20       ??1ImDrawDataBuilder@@QEAA@XZ 000000018000be20 f i imgui.obj
 0001:0000ae50       ??1ImGuiInputTextState@@QEAA@XZ 000000018000be50 f i imgui.obj
 0001:0000aed0       ??0ImGuiWindowTempData@@QEAA@XZ 000000018000bed0 f i imgui.obj
 0001:0000afe0       ?CalcFontSize@ImGuiWindow@@QEBAMXZ 000000018000bfe0 f i imgui.obj
 0001:0000b010       ?MenuBarRect@ImGuiWindow@@QEBA?AUImRect@@XZ 000000018000c010 f i imgui.obj
 0001:0000b0e0       ??3@YAXPEAX@Z              000000018000c0e0 f   LIBCMT:delete_scalar.obj
 0001:0000b0f0       ??0ImGuiStyle@@QEAA@XZ     000000018000c0f0 f   imgui.obj
 0001:0000b240       ??0ImGuiIO@@QEAA@XZ        000000018000c240 f   imgui.obj
 0001:0000b5e0       ?ImTriangleClosestPoint@@YA?AUImVec2@@AEBU1@000@Z 000000018000c5e0 f   imgui.obj
 0001:0000b890       ?ImFormatString@@YAHPEAD_KPEBDZZ 000000018000c890 f   imgui.obj
 0001:0000b910       ?ImHashStr@@YAIPEBD_KI@Z   000000018000c910 f   imgui.obj
 0001:0000b9c0       ?ImFileOpen@@YAPEAU_iobuf@@PEBD0@Z 000000018000c9c0 f   imgui.obj
 0001:0000bab0       ?ImFileLoadToMemory@@YAPEAXPEBD0PEA_KH@Z 000000018000cab0 f   imgui.obj
 0001:0000bbe0       ?ImTextCharFromUtf8@@YAHPEAIPEBD1@Z 000000018000cbe0 f   imgui.obj
 0001:0000bd80       ?ImTextStrFromUtf8@@YAHPEAGHPEBD1PEAPEBD@Z 000000018000cd80 f   imgui.obj
 0001:0000bfc0       ?ImTextCountCharsFromUtf8@@YAHPEBD0@Z 000000018000cfc0 f   imgui.obj
 0001:0000c230       ?ImTextStrToUtf8@@YAHPEADHPEBG1@Z 000000018000d230 f   imgui.obj
 0001:0000c370       ?ColorConvertFloat4ToU32@ImGui@@YAIAEBUImVec4@@@Z 000000018000d370 f   imgui.obj
 0001:0000c420       ?ColorConvertRGBtoHSV@ImGui@@YAXMMMAEAM00@Z 000000018000d420 f   imgui.obj
 0001:0000c4d0       ?ColorConvertHSVtoRGB@ImGui@@YAXMMMAEAM00@Z 000000018000d4d0 f   imgui.obj
 0001:0000c690       ?appendf@ImGuiTextBuffer@@QEAAXPEBDZZ 000000018000d690 f   imgui.obj
 0001:0000c6c0       ?appendfv@ImGuiTextBuffer@@QEAAXPEBDPEAD@Z 000000018000d6c0 f   imgui.obj
 0001:0000c7f0       ?RenderText@ImGui@@YAXUImVec2@@PEBD1_N@Z 000000018000d7f0 f   imgui.obj
 0001:0000c9a0       ?RenderTextClippedEx@ImGui@@YAXPEAUImDrawList@@AEBUImVec2@@1PEBD2PEBU3@1PEBUImRect@@@Z 000000018000d9a0 f   imgui.obj
 0001:0000ccd0       ?RenderTextClipped@ImGui@@YAXAEBUImVec2@@0PEBD1PEBU2@0PEBUImRect@@@Z 000000018000dcd0 f   imgui.obj
 0001:0000cda0       ?RenderFrame@ImGui@@YAXUImVec2@@0I_NM@Z 000000018000dda0 f   imgui.obj
 0001:0000cf50       ?RenderFrameBorder@ImGui@@YAXUImVec2@@0M@Z 000000018000df50 f   imgui.obj
 0001:0000d0b0       ?RenderArrow@ImGui@@YAXPEAUImDrawList@@UImVec2@@IHM@Z 000000018000e0b0 f   imgui.obj
 0001:0000d270       ?RenderCheckMark@ImGui@@YAXUImVec2@@IM@Z 000000018000e270 f   imgui.obj
 0001:0000d4c0       ?RenderNavHighlight@ImGui@@YAXAEBUImRect@@IH@Z 000000018000e4c0 f   imgui.obj
 0001:0000d7c0       ??0ImGuiWindow@@QEAA@PEAUImGuiContext@@PEBD@Z 000000018000e7c0 f   imgui.obj
 0001:0000dc80       ??1ImGuiWindowTempData@@QEAA@XZ 000000018000ec80 f i imgui.obj
 0001:0000dd50       ?GetID@ImGuiWindow@@QEAAIPEBD0@Z 000000018000ed50 f   imgui.obj
 0001:0000dda0       ?GetID@ImGuiWindow@@QEAAIH@Z 000000018000eda0 f   imgui.obj
 0001:0000de50       ?GetIDFromRectangle@ImGuiWindow@@QEAAIAEBUImRect@@@Z 000000018000ee50 f   imgui.obj
 0001:0000e060       ?GcCompactTransientWindowBuffers@ImGui@@YAXPEAUImGuiWindow@@@Z 000000018000f060 f   imgui.obj
 0001:0000e1d0       ?SetActiveID@ImGui@@YAXIPEAUImGuiWindow@@@Z 000000018000f1d0 f   imgui.obj
 0001:0000e2a0       ?SetFocusID@ImGui@@YAXIPEAUImGuiWindow@@@Z 000000018000f2a0 f   imgui.obj
 0001:0000e370       ?ClearActiveID@ImGui@@YAXXZ 000000018000f370 f   imgui.obj
 0001:0000e420       ?ItemSize@ImGui@@YAXAEBUImVec2@@M@Z 000000018000f420 f   imgui.obj
 0001:0000e560       ?ItemAdd@ImGui@@YA_NAEBUImRect@@IPEBU2@@Z 000000018000f560 f   imgui.obj
 0001:0000e690       ?IsItemHovered@ImGui@@YA_NH@Z 000000018000f690 f   imgui.obj
 0001:0000e780       ?ItemHoverable@ImGui@@YA_NAEBUImRect@@I@Z 000000018000f780 f   imgui.obj
 0001:0000e8c0       ?FocusableItemRegister@ImGui@@YA_NPEAUImGuiWindow@@I@Z 000000018000f8c0 f   imgui.obj
 0001:0000e9b0       ?StartMouseMovingWindow@ImGui@@YAXPEAUImGuiWindow@@@Z 000000018000f9b0 f   imgui.obj
 0001:0000ea40       ?UpdateMouseMovingWindowEndFrame@ImGui@@YAXXZ 000000018000fa40 f   imgui.obj
 0001:0000f3b0       ?UpdateHoveredWindowAndCaptureFlags@ImGui@@YAXXZ 00000001800103b0 f   imgui.obj
 0001:0000f810       ?NewFrame@ImGui@@YAXXZ     0000000180010810 f   imgui.obj
 0001:00010390       ?Initialize@ImGui@@YAXPEAUImGuiContext@@@Z 0000000180011390 f   imgui.obj
 0001:00010780       ?PushClipRect@ImGui@@YAXAEBUImVec2@@0_N@Z 0000000180011780 f   imgui.obj
 0001:00010810       ?PopClipRect@ImGui@@YAXXZ  0000000180011810 f   imgui.obj
 0001:00010890       ?EndFrame@ImGui@@YAXXZ     0000000180011890 f   imgui.obj
 0001:00010b80       ?Render@ImGui@@YAXXZ       0000000180011b80 f   imgui.obj
 0001:00010f60       ?IsMouseHoveringRect@ImGui@@YA_NAEBUImVec2@@0_N@Z 0000000180011f60 f   imgui.obj
 0001:00011030       ?CalcTypematicRepeatAmount@ImGui@@YAHMMMM@Z 0000000180012030 f   imgui.obj
 0001:00011090       ?IsKeyPressed@ImGui@@YA_NH_N@Z 0000000180012090 f   imgui.obj
 0001:00011150       ?IsMouseClicked@ImGui@@YA_NH_N@Z 0000000180012150 f   imgui.obj
 0001:000111c0       ?IsMouseDragging@ImGui@@YA_NHM@Z 00000001800121c0 f   imgui.obj
 0001:00011200       ?IsItemVisible@ImGui@@YA_NXZ 0000000180012200 f   imgui.obj
 0001:000114c0       ?EndChild@ImGui@@YAXXZ     00000001800124c0 f   imgui.obj
 0001:00011730       ?BeginChildFrame@ImGui@@YA_NIAEBUImVec2@@H@Z 0000000180012730 f   imgui.obj
 0001:00011990       ?FindWindowByName@ImGui@@YAPEAUImGuiWindow@@PEBD@Z 0000000180012990 f   imgui.obj
 0001:000140b0       ?Begin@ImGui@@YA_NPEBDPEA_NH@Z 00000001800150b0 f   imgui.obj
 0001:000162f0       ?End@ImGui@@YAXXZ          00000001800172f0 f   imgui.obj
 0001:000163e0       ?FocusWindow@ImGui@@YAXPEAUImGuiWindow@@@Z 00000001800173e0 f   imgui.obj
 0001:000165c0       ?FocusTopMostWindowUnderOne@ImGui@@YAXPEAUImGuiWindow@@0@Z 00000001800175c0 f   imgui.obj
 0001:00016680       ?PushItemWidth@ImGui@@YAXM@Z 0000000180017680 f   imgui.obj
 0001:00016720       ?PopItemWidth@ImGui@@YAXXZ 0000000180017720 f   imgui.obj
 0001:00016780       ?CalcItemWidth@ImGui@@YAMXZ 0000000180017780 f   imgui.obj
 0001:000167f0       ?CalcItemSize@ImGui@@YA?AUImVec2@@U2@MM@Z 00000001800177f0 f   imgui.obj
 0001:00016900       ?SetCurrentFont@ImGui@@YAXPEAUImFont@@@Z 0000000180017900 f   imgui.obj
 0001:00016990       ?PopFont@ImGui@@YAXXZ      0000000180017990 f   imgui.obj
 0001:00016a10       ?PushItemFlag@ImGui@@YAXH_N@Z 0000000180017a10 f   imgui.obj
 0001:00016aa0       ?PushStyleVar@ImGui@@YAXHM@Z 0000000180017aa0 f   imgui.obj
 0001:00016b20       ?PushStyleVar@ImGui@@YAXHAEBUImVec2@@@Z 0000000180017b20 f   imgui.obj
 0001:00016b80       ?PopStyleVar@ImGui@@YAXH@Z 0000000180017b80 f   imgui.obj
 0001:00016db0       ?SetWindowPos@ImGui@@YAXPEAUImGuiWindow@@AEBUImVec2@@H@Z 0000000180017db0 f   imgui.obj
 0001:00016e80       ?SetWindowSize@ImGui@@YAXPEAUImGuiWindow@@AEBUImVec2@@H@Z 0000000180017e80 f   imgui.obj
 0001:00016f00       ?SetItemDefaultFocus@ImGui@@YAXXZ 0000000180017f00 f   imgui.obj
 0001:00017000       ?PushID@ImGui@@YAXPEBD@Z   0000000180018000 f   imgui.obj
 0001:00017090       ?PushID@ImGui@@YAXPEBX@Z   0000000180018090 f   imgui.obj
 0001:000171d0       ?PushID@ImGui@@YAXH@Z      00000001800181d0 f   imgui.obj
 0001:000172b0       ?BeginGroup@ImGui@@YAXXZ   00000001800182b0 f   imgui.obj
 0001:000173d0       ?EndGroup@ImGui@@YAXXZ     00000001800183d0 f   imgui.obj
 0001:000176f0       ?SameLine@ImGui@@YAXMM@Z   00000001800186f0 f   imgui.obj
 0001:00017990       ?ScrollToBringRectIntoView@ImGui@@YA?AUImVec2@@PEAUImGuiWindow@@AEBUImRect@@@Z 0000000180018990 f   imgui.obj
 0001:00017b80       ?SetScrollFromPosY@ImGui@@YAXPEAUImGuiWindow@@MM@Z 0000000180018b80 f   imgui.obj
 0001:00017c40       ?SetScrollHereY@ImGui@@YAXM@Z 0000000180018c40 f   imgui.obj
 0001:00017c90       ?BeginTooltip@ImGui@@YAXXZ 0000000180018c90 f   imgui.obj
 0001:00017d90       ?BeginTooltipEx@ImGui@@YAXH_N@Z 0000000180018d90 f   imgui.obj
 0001:00017e50       ?SetTooltip@ImGui@@YAXPEBDZZ 0000000180018e50 f   imgui.obj
 0001:00017eb0       ?GetTopMostPopupModal@ImGui@@YAPEAUImGuiWindow@@XZ 0000000180018eb0 f   imgui.obj
 0001:00017f10       ?OpenPopupEx@ImGui@@YAXI@Z 0000000180018f10 f   imgui.obj
 0001:000180e0       ?ClosePopupsOverWindow@ImGui@@YAXPEAUImGuiWindow@@_N@Z 00000001800190e0 f   imgui.obj
 0001:000181d0       ?ClosePopupToLevel@ImGui@@YAXH_N@Z 00000001800191d0 f   imgui.obj
 0001:000182b0       ?CloseCurrentPopup@ImGui@@YAXXZ 00000001800192b0 f   imgui.obj
 0001:00018370       ?BeginPopupEx@ImGui@@YA_NIH@Z 0000000180019370 f   imgui.obj
 0001:00018430       ?BeginPopup@ImGui@@YA_NPEBDH@Z 0000000180019430 f   imgui.obj
 0001:000184b0       ?EndPopup@ImGui@@YAXXZ     00000001800194b0 f   imgui.obj
 0001:00018660       ?OpenPopupOnItemClick@ImGui@@YA_NPEBDH@Z 0000000180019660 f   imgui.obj
 0001:00018760       ?FindBestWindowPosForPopupEx@ImGui@@YA?AUImVec2@@AEBU2@0PEAHAEBUImRect@@2W4ImGuiPopupPositionPolicy@@@Z 0000000180019760 f   imgui.obj
 0001:00018aa0       ?GetWindowAllowedExtentRect@ImGui@@YA?AUImRect@@PEAUImGuiWindow@@@Z 0000000180019aa0 f   imgui.obj
 0001:00018b50       ?FindBestWindowPosForPopup@ImGui@@YA?AUImVec2@@PEAUImGuiWindow@@@Z 0000000180019b50 f   imgui.obj
 0001:00019760       ?NavInitWindow@ImGui@@YAXPEAUImGuiWindow@@_N@Z 000000018001a760 f   imgui.obj
 0001:00019910       ?GetNavInputAmount@ImGui@@YAMHW4ImGuiInputReadMode@@@Z 000000018001a910 f   imgui.obj
 0001:00019a30       ?GetNavInputAmount2d@ImGui@@YA?AUImVec2@@HW4ImGuiInputReadMode@@MM@Z 000000018001aa30 f   imgui.obj
 0001:0001c0a0       ?ClearDragDrop@ImGui@@YAXXZ 000000018001d0a0 f   imgui.obj
 0001:0001c160       ?BeginDragDropSource@ImGui@@YA_NH@Z 000000018001d160 f   imgui.obj
 0001:0001c280       ?EndDragDropSource@ImGui@@YAXXZ 000000018001d280 f   imgui.obj
 0001:0001c2c0       ?BeginDragDropTarget@ImGui@@YA_NXZ 000000018001d2c0 f   imgui.obj
 0001:0001c370       ?AcceptDragDropPayload@ImGui@@YAPEBUImGuiPayload@@PEBDH@Z 000000018001d370 f   imgui.obj
 0001:0001c5e0       ?LogText@ImGui@@YAXPEBDZZ  000000018001d5e0 f   imgui.obj
 0001:0001c6e0       ?LogRenderedText@ImGui@@YAXPEBUImVec2@@PEBD1@Z 000000018001d6e0 f   imgui.obj
 0001:0001c860       ?LogFinish@ImGui@@YAXXZ    000000018001d860 f   imgui.obj
 0001:0001c950       ?CreateNewWindowSettings@ImGui@@YAPEAUImGuiWindowSettings@@PEBD@Z 000000018001d950 f   imgui.obj
 0001:0001ca40       ?LoadIniSettingsFromMemory@ImGui@@YAXPEBD_K@Z 000000018001da40 f   imgui.obj
 0001:0001cca0       ?SaveIniSettingsToDisk@ImGui@@YAXPEBD@Z 000000018001dca0 f   imgui.obj
 0001:0001d580       ??1?$ImVector@D@@QEAA@XZ   000000018001e580 f i imgui.obj
 0001:0001d580       ??1?$ImVector@E@@QEAA@XZ   000000018001e580 f i imgui.obj
 0001:0001d580       ??1?$ImVector@G@@QEAA@XZ   000000018001e580 f i imgui.obj
 0001:0001d580       ??1?$ImVector@I@@QEAA@XZ   000000018001e580 f i imgui.obj
 0001:0001d580       ??1?$ImVector@PEAUImDrawList@@@@QEAA@XZ 000000018001e580 f i imgui.obj
 0001:0001d580       ??1?$ImVector@PEAUImFont@@@@QEAA@XZ 000000018001e580 f i imgui.obj
 0001:0001d580       ??1?$ImVector@PEAUImGuiWindow@@@@QEAA@XZ 000000018001e580 f i imgui.obj
 0001:0001d580       ??1?$ImVector@PEAX@@QEAA@XZ 000000018001e580 f i imgui.obj
 0001:0001d580       ??1?$ImVector@UImDrawCmd@@@@QEAA@XZ 000000018001e580 f i imgui.obj
 0001:0001d580       ??1?$ImVector@UImDrawVert@@@@QEAA@XZ 000000018001e580 f i imgui.obj
 0001:0001d580       ??1?$ImVector@UImFontBuildDstData@@@@QEAA@XZ 000000018001e580 f i imgui_draw.obj
 0001:0001d580       ??1?$ImVector@UImFontBuildSrcData@@@@QEAA@XZ 000000018001e580 f i imgui_draw.obj
 0001:0001d580       ??1?$ImVector@UImGuiColorMod@@@@QEAA@XZ 000000018001e580 f i imgui.obj
 0001:0001d580       ??1?$ImVector@UImGuiColumns@@@@QEAA@XZ 000000018001e580 f i imgui.obj
 0001:0001d580       ??1?$ImVector@UImGuiPopupData@@@@QEAA@XZ 000000018001e580 f i imgui.obj
 0001:0001d580       ??1?$ImVector@UImGuiPtrOrIndex@@@@QEAA@XZ 000000018001e580 f i imgui.obj
 0001:0001d580       ??1?$ImVector@UImGuiSettingsHandler@@@@QEAA@XZ 000000018001e580 f i imgui.obj
 0001:0001d580       ??1?$ImVector@UImGuiShrinkWidthItem@@@@QEAA@XZ 000000018001e580 f i imgui.obj
 0001:0001d580       ??1?$ImVector@UImGuiStyleMod@@@@QEAA@XZ 000000018001e580 f i imgui.obj
 0001:0001d580       ??1?$ImVector@UImVec2@@@@QEAA@XZ 000000018001e580 f i imgui.obj
 0001:0001d580       ??1?$ImVector@UImVec4@@@@QEAA@XZ 000000018001e580 f i imgui.obj
 0001:0001d580       ??1?$ImVector@Ustbrp_rect@@@@QEAA@XZ 000000018001e580 f i imgui_draw.obj
 0001:0001d580       ??1?$ImVector@Ustbtt_packedchar@@@@QEAA@XZ 000000018001e580 f i imgui_draw.obj
 0001:0001d5b0       ?resize@?$ImVector@UImGuiGroupData@@@@QEAAXH@Z 000000018001e5b0 f i imgui.obj
 0001:0001d690       ?Clear@?$ImPool@UImGuiTabBar@@@@QEAAXXZ 000000018001e690 f i imgui.obj
 0001:0001d7b0       ??1?$ImPool@UImGuiTabBar@@@@QEAA@XZ 000000018001e7b0 f i imgui.obj
 0001:0001d810       ?resize@?$ImVector@E@@QEAAXH@Z 000000018001e810 f i imgui.obj
 0001:0001d8f0       ?push_back@?$ImVector@UImGuiPopupData@@@@QEAAXAEBUImGuiPopupData@@@Z 000000018001e8f0 f i imgui.obj
 0001:0001d970       ?push_back@?$ImVector@UImGuiStyleMod@@@@QEAAXAEBUImGuiStyleMod@@@Z 000000018001e970 f i imgui.obj
 0001:0001da60       ?push_back@?$ImVector@UImGuiColorMod@@@@QEAAXAEBUImGuiColorMod@@@Z 000000018001ea60 f i imgui.obj
 0001:0001db50       ?reserve@?$ImVector@PEAUImDrawList@@@@QEAAXH@Z 000000018001eb50 f i imgui.obj
 0001:0001db50       ?reserve@?$ImVector@PEAUImGuiWindow@@@@QEAAXH@Z 000000018001eb50 f i imgui.obj
 0001:0001db50       ?reserve@?$ImVector@PEAX@@QEAAXH@Z 000000018001eb50 f i imgui_draw.obj
 0001:0001db50       ?reserve@?$ImVector@UImVec2@@@@QEAAXH@Z 000000018001eb50 f i imgui.obj
 0001:0001dbe0       ??0?$ImVector@PEAUImDrawList@@@@QEAA@XZ 000000018001ebe0 f i imgui.obj
 0001:0001dbf0       ?push_back@?$ImVector@H@@QEAAXAEBH@Z 000000018001ebf0 f i imgui.obj
 0001:0001dc50       ?push_back@?$ImVector@PEAUImFont@@@@QEAAXAEBQEAUImFont@@@Z 000000018001ec50 f i imgui.obj
 0001:0001dd20       ?reserve@?$ImVector@UImDrawVert@@@@QEAAXH@Z 000000018001ed20 f i imgui.obj
 0001:0001ddb0       ?insert@?$ImVector@UImGuiStoragePair@ImGuiStorage@@@@QEAAPEAUImGuiStoragePair@ImGuiStorage@@PEBU23@AEBU23@@Z 000000018001edb0 f i imgui.obj
 0001:0001dee0       ?reserve@?$ImVector@D@@QEAAXH@Z 000000018001eee0 f i imgui.obj
 0001:0001df70       ?resize@?$ImVector@D@@QEAAXH@Z 000000018001ef70 f i imgui.obj
 0001:0001dfc0       ?reserve@?$ImVector@G@@QEAAXH@Z 000000018001efc0 f i imgui.obj
 0001:0001e050       ?resize@?$ImVector@G@@QEAAXH@Z 000000018001f050 f i imgui.obj
 0001:0001e0a0       ?reserve@?$ImVector@UImGuiPopupData@@@@QEAAXH@Z 000000018001f0a0 f i imgui.obj
 0001:0001e130       ?reserve@?$ImVector@H@@QEAAXH@Z 000000018001f130 f i imgui.obj
 0001:0001e130       ?reserve@?$ImVector@I@@QEAAXH@Z 000000018001f130 f i imgui.obj
 0001:0001e130       ?reserve@?$ImVector@M@@QEAAXH@Z 000000018001f130 f i imgui.obj
 0001:00024a40       ?StyleColorsDark@ImGui@@YAXPEAUImGuiStyle@@@Z 0000000180025a40 f   imgui_draw.obj
 0001:00024f30       ?Clear@ImDrawList@@QEAAXXZ 0000000180025f30 f   imgui_draw.obj
 0001:00025060       ?ClearFreeMemory@ImDrawList@@QEAAXXZ 0000000180026060 f   imgui_draw.obj
 0001:00025190       ?AddDrawCmd@ImDrawList@@QEAAXXZ 0000000180026190 f   imgui_draw.obj
 0001:00025270       ?UpdateClipRect@ImDrawList@@QEAAXXZ 0000000180026270 f   imgui_draw.obj
 0001:00025340       ?UpdateTextureID@ImDrawList@@QEAAXXZ 0000000180026340 f   imgui_draw.obj
 0001:00025400       ?PushClipRect@ImDrawList@@QEAAXUImVec2@@0_N@Z 0000000180026400 f   imgui_draw.obj
 0001:00025510       ?PushClipRectFullScreen@ImDrawList@@QEAAXXZ 0000000180026510 f   imgui_draw.obj
 0001:000255b0       ?PushTextureID@ImDrawList@@QEAAXPEAX@Z 00000001800265b0 f   imgui_draw.obj
 0001:00025630       ?PrimReserve@ImDrawList@@QEAAXHH@Z 0000000180026630 f   imgui_draw.obj
 0001:00025730       ?AddPolyline@ImDrawList@@QEAAXPEBUImVec2@@HI_NM@Z 0000000180026730 f   imgui_draw.obj
 0001:00026580       ?AddConvexPolyFilled@ImDrawList@@QEAAXPEBUImVec2@@HI@Z 0000000180027580 f   imgui_draw.obj
 0001:00026be0       ?PathArcToFast@ImDrawList@@QEAAXAEBUImVec2@@MHH@Z 0000000180027be0 f   imgui_draw.obj
 0001:00026d60       ?PathArcTo@ImDrawList@@QEAAXAEBUImVec2@@MMMH@Z 0000000180027d60 f   imgui_draw.obj
 0001:00026f20       ?PathRect@ImDrawList@@QEAAXAEBUImVec2@@0MH@Z 0000000180027f20 f   imgui_draw.obj
 0001:000272f0       ?AddLine@ImDrawList@@QEAAXAEBUImVec2@@0IM@Z 00000001800282f0 f   imgui_draw.obj
 0001:00027450       ?AddRect@ImDrawList@@QEAAXAEBUImVec2@@0IMHM@Z 0000000180028450 f   imgui_draw.obj
 0001:00027560       ?AddRectFilled@ImDrawList@@QEAAXAEBUImVec2@@0IMH@Z 0000000180028560 f   imgui_draw.obj
 0001:00027700       ?AddRectFilledMultiColor@ImDrawList@@QEAAXAEBUImVec2@@0IIII@Z 0000000180028700 f   imgui_draw.obj
 0001:000278e0       ?AddTriangleFilled@ImDrawList@@QEAAXAEBUImVec2@@00I@Z 00000001800288e0 f   imgui_draw.obj
 0001:00027a20       ?AddCircle@ImDrawList@@QEAAXAEBUImVec2@@MIHM@Z 0000000180028a20 f   imgui_draw.obj
 0001:00027ac0       ?AddText@ImDrawList@@QEAAXAEBUImVec2@@IPEBD1@Z 0000000180028ac0 f   imgui_draw.obj
 0001:00027b50       ?ClearFreeMemory@ImDrawListSplitter@@QEAAXXZ 0000000180028b50 f   imgui_draw.obj
 0001:00027c50       ?Merge@ImDrawListSplitter@@QEAAXPEAUImDrawList@@@Z 0000000180028c50 f   imgui_draw.obj
 0001:00027fb0       ?ShadeVertsLinearColorGradientKeepAlpha@ImGui@@YAXPEAUImDrawList@@HHUImVec2@@1II@Z 0000000180028fb0 f   imgui_draw.obj
 0001:00028470       ?GetTexDataAsRGBA32@ImFontAtlas@@QEAAXPEAPEAEPEAH11@Z 0000000180029470 f   imgui_draw.obj
 0001:000286d0       ?AddFont@ImFontAtlas@@QEAAPEAUImFont@@PEBUImFontConfig@@@Z 00000001800296d0 f   imgui_draw.obj
 0001:00028980       ?AddFontFromMemoryTTF@ImFontAtlas@@QEAAPEAUImFont@@PEAXHMPEBUImFontConfig@@PEBG@Z 0000000180029980 f   imgui_draw.obj
 0001:00028b10       ?AddFontFromMemoryCompressedTTF@ImFontAtlas@@QEAAPEAUImFont@@PEBXHMPEBUImFontConfig@@PEBG@Z 0000000180029b10 f   imgui_draw.obj
 0001:00028df0       ?AddFontFromMemoryCompressedBase85TTF@ImFontAtlas@@QEAAPEAUImFont@@PEBDMPEBUImFontConfig@@PEBG@Z 0000000180029df0 f   imgui_draw.obj
 0001:00028f80       ?ImFontAtlasBuildWithStbTruetype@@YA_NPEAUImFontAtlas@@@Z 0000000180029f80 f   imgui_draw.obj
 0001:0002a360       ?ImFontAtlasBuildPackCustomRects@@YAXPEAUImFontAtlas@@PEAX@Z 000000018002b360 f   imgui_draw.obj
 0001:0002a940       ?ImFontAtlasBuildFinish@@YAXPEAUImFontAtlas@@@Z 000000018002b940 f   imgui_draw.obj
 0001:0002ab60       ??1ImFont@@QEAA@XZ         000000018002bb60 f   imgui_draw.obj
 0001:0002abe0       ?ClearOutputData@ImFont@@QEAAXXZ 000000018002bbe0 f   imgui_draw.obj
 0001:0002ac90       ?BuildLookupTable@ImFont@@QEAAXXZ 000000018002bc90 f   imgui_draw.obj
 0001:0002af70       ?GrowIndex@ImFont@@QEAAXH@Z 000000018002bf70 f   imgui_draw.obj
 0001:0002b060       ?AddGlyph@ImFont@@QEAAXGMMMMMMMMM@Z 000000018002c060 f   imgui_draw.obj
 0001:0002b1c0       ?CalcWordWrapPositionA@ImFont@@QEBAPEBDMPEBD0M@Z 000000018002c1c0 f   imgui_draw.obj
 0001:0002b350       ?CalcTextSizeA@ImFont@@QEBA?AUImVec2@@MMMPEBD0PEAPEBD@Z 000000018002c350 f   imgui_draw.obj
 0001:0002b570       ?RenderText@ImFont@@QEBAXPEAUImDrawList@@MUImVec2@@IAEBUImVec4@@PEBD3M_N@Z 000000018002c570 f   imgui_draw.obj
 0001:0002bf10       ?resize@?$ImVector@UImFontGlyph@@@@QEAAXH@Z 000000018002cf10 f i imgui_draw.obj
 0001:0002c000       ?push_back@?$ImVector@UImFontAtlasCustomRect@@@@QEAAXAEBUImFontAtlasCustomRect@@@Z 000000018002d000 f i imgui_draw.obj
 0001:0002c0e0       ?reserve@?$ImVector@UImVec4@@@@QEAAXH@Z 000000018002d0e0 f i imgui_draw.obj
 0001:0002c170       ?reserve@?$ImVector@UImDrawCmd@@@@QEAAXH@Z 000000018002d170 f i imgui_draw.obj
 0001:0002c3f0       ?ImGui_ImplDX11_RenderDrawData@@YAXPEAUImDrawData@@@Z 000000018002d3f0 f   imgui_impl_dx11.obj
 0001:0002ce90       ?ImGui_ImplDX11_CreateDeviceObjects@@YA_NXZ 000000018002de90 f   imgui_impl_dx11.obj
 0001:0002d3d0       ?ImGui_ImplDX11_InvalidateDeviceObjects@@YAXXZ 000000018002e3d0 f   imgui_impl_dx11.obj
 0001:0002d550       ?ImGui_ImplWin32_NewFrame@@YAXXZ 000000018002e550 f   imgui_impl_win32.obj
 0001:0002d840       ?ImGui_ImplWin32_WndProcHandler@@YA_JPEAUHWND__@@I_K_J@Z 000000018002e840 f   imgui_impl_win32.obj
 0001:0002dae0       ?ChannelsSetCurrent@ImDrawList@@QEAAXH@Z 000000018002eae0 f i imgui_widgets.obj
 0001:0002db60       ?TextEx@ImGui@@YAXPEBD0H@Z 000000018002eb60 f   imgui_widgets.obj
 0001:0002e3a0       ?Text@ImGui@@YAXPEBDZZ     000000018002f3a0 f   imgui_widgets.obj
 0001:0002e3d0       ?TextV@ImGui@@YAXPEBDPEAD@Z 000000018002f3d0 f   imgui_widgets.obj
 0001:0002e4a0       ?TextColored@ImGui@@YAXAEBUImVec4@@PEBDZZ 000000018002f4a0 f   imgui_widgets.obj
 0001:0002e540       ?ButtonBehavior@ImGui@@YA_NAEBUImRect@@IPEA_N1H@Z 000000018002f540 f   imgui_widgets.obj
 0001:0002e9e0       ?ButtonEx@ImGui@@YA_NPEBDAEBUImVec2@@H@Z 000000018002f9e0 f   imgui_widgets.obj
 0001:0002ed50       ?InvisibleButton@ImGui@@YA_NPEBDAEBUImVec2@@@Z 000000018002fd50 f   imgui_widgets.obj
 0001:0002ee70       ?CollapseButton@ImGui@@YA_NIAEBUImVec2@@@Z 000000018002fe70 f   imgui_widgets.obj
 0001:0002f150       ?ScrollbarEx@ImGui@@YA_NAEBUImRect@@IW4ImGuiAxis@@PEAMMMH@Z 0000000180030150 f   imgui_widgets.obj
 0001:0002f740       ?Scrollbar@ImGui@@YAXW4ImGuiAxis@@@Z 0000000180030740 f   imgui_widgets.obj
 0001:0002f8e0       ?Checkbox@ImGui@@YA_NPEBDPEA_N@Z 00000001800308e0 f   imgui_widgets.obj
 0001:0002fd80       ?RadioButton@ImGui@@YA_NPEBD_N@Z 0000000180030d80 f   imgui_widgets.obj
 0001:000303b0       ?Spacing@ImGui@@YAXXZ      00000001800313b0 f   imgui_widgets.obj
 0001:00030400       ?Dummy@ImGui@@YAXAEBUImVec2@@@Z 0000000180031400 f   imgui_widgets.obj
 0001:00030550       ?SeparatorEx@ImGui@@YAXH@Z 0000000180031550 f   imgui_widgets.obj
 0001:00030960       ?BeginCombo@ImGui@@YA_NPEBD0H@Z 0000000180031960 f   imgui_widgets.obj
 0001:000311c0       ?Combo@ImGui@@YA_NPEBDPEAHP6A_NPEAXHPEAPEBD@Z2HH@Z 00000001800321c0 f   imgui_widgets.obj
 0001:00031410       ?DataTypeFormatString@ImGui@@YAHPEADHHPEBXPEBD@Z 0000000180032410 f   imgui_widgets.obj
 0001:000314f0       ?DataTypeApplyOpFromText@ImGui@@YA_NPEBD0HPEAX0@Z 00000001800324f0 f   imgui_widgets.obj
 0001:00031910       ?DragScalar@ImGui@@YA_NPEBDHPEAXMPEBX20M@Z 0000000180032910 f   imgui_widgets.obj
 0001:00032450       ?SliderScalar@ImGui@@YA_NPEBDHPEAXPEBX20M@Z 0000000180033450 f   imgui_widgets.obj
 0001:00032b60       ?ImParseFormatFindEnd@@YAPEBDPEBD@Z 0000000180033b60 f   imgui_widgets.obj
 0001:00032bc0       ?ImParseFormatPrecision@@YAHPEBDH@Z 0000000180033bc0 f   imgui_widgets.obj
 0001:00032cc0       ?TempInputTextScalar@ImGui@@YA_NAEBUImRect@@IPEBDHPEAX1@Z 0000000180033cc0 f   imgui_widgets.obj
 0001:00034c30       ?InputTextEx@ImGui@@YA_NPEBD0PEADHAEBUImVec2@@HP6AHPEAUImGuiInputTextCallbackData@@@ZPEAX@Z 0000000180035c30 f   imgui_widgets.obj
 0001:00037c80       ?ColorEdit4@ImGui@@YA_NPEBDQEAMH@Z 0000000180038c80 f   imgui_widgets.obj
 0001:00038ac0       ?RenderColorRectWithAlphaCheckerboard@ImGui@@YAXUImVec2@@0IM0MH@Z 0000000180039ac0 f   imgui_widgets.obj
 0001:00039170       ?ColorPicker4@ImGui@@YA_NPEBDQEAMHPEBM@Z 000000018003a170 f   imgui_widgets.obj
 0001:0003b410       ?ColorButton@ImGui@@YA_NPEBDAEBUImVec4@@HUImVec2@@@Z 000000018003c410 f   imgui_widgets.obj
 0001:0003bb60       ?ColorTooltip@ImGui@@YAXPEBDPEBMH@Z 000000018003cb60 f   imgui_widgets.obj
 0001:0003bea0       ?ColorEditOptionsPopup@ImGui@@YAXPEBMH@Z 000000018003cea0 f   imgui_widgets.obj
 0001:0003c420       ?ColorPickerOptionsPopup@ImGui@@YAXPEBMH@Z 000000018003d420 f   imgui_widgets.obj
 0001:0003c8d0       ?Selectable@ImGui@@YA_NPEBD_NHAEBUImVec2@@@Z 000000018003d8d0 f   imgui_widgets.obj
 0001:0003cff0       ?SetColumnOffset@ImGui@@YAXHM@Z 000000018003dff0 f   imgui_widgets.obj
 0001:0003d120       ?PushColumnsBackground@ImGui@@YAXXZ 000000018003e120 f   imgui_widgets.obj
 0001:0003d170       ?PopColumnsBackground@ImGui@@YAXXZ 000000018003e170 f   imgui_widgets.obj
 0001:0003d1b0       ?EndColumns@ImGui@@YAXXZ   000000018003e1b0 f   imgui_widgets.obj
 0001:0003d700       ??$DragBehaviorT@HHM@ImGui@@YA_NHPEAHMHHPEBDMH@Z 000000018003e700 f i imgui_widgets.obj
 0001:0003db60       ??$DragBehaviorT@IHM@ImGui@@YA_NHPEAIMIIPEBDMH@Z 000000018003eb60 f i imgui_widgets.obj
 0001:0003dfd0       ??$DragBehaviorT@_J_JN@ImGui@@YA_NHPEA_JM_J1PEBDMH@Z 000000018003efd0 f i imgui_widgets.obj
 0001:0003e490       ??$DragBehaviorT@_K_JN@ImGui@@YA_NHPEA_KM_K1PEBDMH@Z 000000018003f490 f i imgui_widgets.obj
 0001:0003ea10       ??$DragBehaviorT@MMM@ImGui@@YA_NHPEAMMMMPEBDMH@Z 000000018003fa10 f i imgui_widgets.obj
 0001:0003eec0       ??$DragBehaviorT@NNN@ImGui@@YA_NHPEANMNNPEBDMH@Z 000000018003fec0 f i imgui_widgets.obj
 0001:0003f3b0       ??$SliderBehaviorT@MMM@ImGui@@YA_NAEBUImRect@@IHPEAMMMPEBDMHPEAU1@@Z 00000001800403b0 f i imgui_widgets.obj
 0001:0003f9b0       ??$RoundScalarWithFormatT@HH@ImGui@@YAHPEBDHH@Z 00000001800409b0 f i imgui_widgets.obj
 0001:0003fa70       ??$RoundScalarWithFormatT@IH@ImGui@@YAIPEBDHI@Z 0000000180040a70 f i imgui_widgets.obj
 0001:0003fb30       ??$RoundScalarWithFormatT@_J_J@ImGui@@YA_JPEBDH_J@Z 0000000180040b30 f i imgui_widgets.obj
 0001:0003fbf0       ??$RoundScalarWithFormatT@_K_J@ImGui@@YA_KPEBDH_K@Z 0000000180040bf0 f i imgui_widgets.obj
 0001:0003fcd0       ??$RoundScalarWithFormatT@MM@ImGui@@YAMPEBDHM@Z 0000000180040cd0 f i imgui_widgets.obj
 0001:0003fe10       ??$RoundScalarWithFormatT@NN@ImGui@@YANPEBDHN@Z 0000000180040e10 f i imgui_widgets.obj
 0001:0003ff50       ??$SliderCalcRatioFromValueT@MM@ImGui@@YAMHMMMMM@Z 0000000180040f50 f i imgui_widgets.obj
 0001:000400c0       DllMain                    00000001800410c0 f   MainDLL.obj
 0001:00040160       ?ConvertHexToByteArray@@YAHAEBV?$basic_string@DU?$char_traits@D@std@@V?$allocator@D@2@@std@@AEAV?$vector@EV?$allocator@E@std@@@2@@Z 0000000180041160 f   Memory.obj
 0001:00040370       ?PatternScan@@YA_K_K0AEBV?$basic_string@DU?$char_traits@D@std@@V?$allocator@D@2@@std@@_N2H@Z 0000000180041370 f   Memory.obj
 0001:00040480       ??1?$vector@EV?$allocator@E@std@@@std@@QEAA@XZ 0000000180041480 f i Memory.obj
 0001:000404e0       ?_Xran@?$_String_val@U?$_Simple_types@D@std@@@std@@SAXXZ 00000001800414e0 f i Memory.obj
 0001:00040500       ??$_Emplace_reallocate@E@?$vector@EV?$allocator@E@std@@@std@@AEAAPEAEQEAE$$QEAE@Z 0000000180041500 f i Memory.obj
 0001:00040680       ?_Xlength@?$vector@EV?$allocator@E@std@@@std@@CAXXZ 0000000180041680 f i Memory.obj
 0001:00040680       ?_Xlength@?$vector@UBoneJointPos@@V?$allocator@UBoneJointPos@@@std@@@std@@CAXXZ 0000000180041680 f i Entity.obj
 0001:00040680       ?_Xlength@?$vector@_KV?$allocator@_K@std@@@std@@CAXXZ 0000000180041680 f i Entity.obj
 0001:000406a0       ?PlayerWeapon@CEntity@@QEAAXXZ 00000001800416a0 f   Entity.obj
 0001:00040a30       ?UpdatePlayerBoneData@CEntity@@QEAAXXZ 0000000180041a30 f   Entity.obj
 0001:00040db0       ?GetEntityWeapon@@YAXXZ    0000000180041db0 f   Entity.obj
 0001:00040fc0       ?PlayerEntities@@YAXXZ     0000000180041fc0 f   Entity.obj
 0001:00041270       ?UpdateWeaponESP@@YAXAEAVWeaponEntity@@@Z 0000000180042270 f   Entity.obj
 0001:00041650       ?EnableCheats@@YAXXZ       0000000180042650 f   Entity.obj
 0001:00042100       ??1CEntity@@QEAA@XZ        0000000180043100 f i Entity.obj
 0001:00042330       ??4?$basic_string@DU?$char_traits@D@std@@V?$allocator@D@2@@std@@QEAAAEAV01@$$QEAV01@@Z 0000000180043330 f i Entity.obj
 0001:000423c0       ?assign@?$basic_string@DU?$char_traits@D@std@@V?$allocator@D@2@@std@@QEAAAEAV12@QEBD_K@Z 00000001800433c0 f i Entity.obj
 0001:00042530       ??$__builtin_array_init_helper@UBoneJointData@@@@YAXPEAUBoneJointData@@_K@Z 0000000180043530 f i Entity.obj
 0001:00042790       ??$ReadMemoryInternal@VVec3@@@@YAH_KAEAVVec3@@0@Z 0000000180043790 f i Entity.obj
 0001:00042830       ??$_Emplace_reallocate@AEB_K@?$vector@_KV?$allocator@_K@std@@@std@@AEAAPEA_KQEA_KAEB_K@Z 0000000180043830 f i Entity.obj
 0001:000429d0       ??$_Emplace_reallocate@UBoneJointPos@@@?$vector@UBoneJointPos@@V?$allocator@UBoneJointPos@@@std@@@std@@AEAAPEAUBoneJointPos@@QEAU2@$$QEAU2@@Z 00000001800439d0 f i Entity.obj
 0001:00042bc8       ??0bad_alloc@std@@QEAA@XZ  0000000180043bc8 f i libcpmt:xthrow.obj
 0001:00042be8       ??0length_error@std@@QEAA@AEBV01@@Z 0000000180043be8 f i libcpmt:xthrow.obj
 0001:00042c24       ??0length_error@std@@QEAA@PEBD@Z 0000000180043c24 f i libcpmt:xthrow.obj
 0001:00042c6c       ??0logic_error@std@@QEAA@AEBV01@@Z 0000000180043c6c f i libcpmt:xthrow.obj
 0001:00042ca8       ??0out_of_range@std@@QEAA@AEBV01@@Z 0000000180043ca8 f i libcpmt:xthrow.obj
 0001:00042ce4       ??0out_of_range@std@@QEAA@PEBD@Z 0000000180043ce4 f i libcpmt:xthrow.obj
 0001:00042d2c       ?_Xlength_error@std@@YAXPEBD@Z 0000000180043d2c f   libcpmt:xthrow.obj
 0001:00042d50       ?_Xout_of_range@std@@YAXPEBD@Z 0000000180043d50 f   libcpmt:xthrow.obj
 0001:00042d74       _Query_perf_counter        0000000180043d74 f   libcpmt:xtime.obj
 0001:00042d90       _Query_perf_frequency      0000000180043d90 f   libcpmt:xtime.obj
 0001:00042e30       __security_check_cookie    0000000180043e30 f   LIBCMT:amdsecgs.obj
 0001:00042e50       ??2@YAPEAX_K@Z             0000000180043e50 f   LIBCMT:new_scalar.obj
 0001:00042e8c       ??_M@YAXPEAX_K1P6AX0@Z@Z   0000000180043e8c f   LIBCMT:ehvecdtr.obj
 0001:00042ef8       ?__ArrayUnwind@@YAXPEAX_K1P6AX0@Z@Z 0000000180043ef8 f   LIBCMT:ehvecdtr.obj
 0001:00042f5c       __scrt_acquire_startup_lock 0000000180043f5c f   LIBCMT:utility.obj
 0001:00042f98       __scrt_dllmain_after_initialize_c 0000000180043f98 f   LIBCMT:utility.obj
 0001:00042fcc       __scrt_dllmain_before_initialize_c 0000000180043fcc f   LIBCMT:utility.obj
 0001:00042fe4       __scrt_dllmain_crt_thread_attach 0000000180043fe4 f   LIBCMT:utility.obj
 0001:0004300c       __scrt_dllmain_crt_thread_detach 000000018004400c f   LIBCMT:utility.obj
 0001:00043024       __scrt_dllmain_exception_filter 0000000180044024 f   LIBCMT:utility.obj
 0001:00043084       __scrt_dllmain_uninitialize_c 0000000180044084 f   LIBCMT:utility.obj
 0001:000430b4       __scrt_dllmain_uninitialize_critical 00000001800440b4 f   LIBCMT:utility.obj
 0001:000430c8       __scrt_initialize_crt      00000001800440c8 f   LIBCMT:utility.obj
 0001:00043104       __scrt_initialize_onexit_tables 0000000180044104 f   LIBCMT:utility.obj
 0001:00043190       __scrt_is_nonwritable_in_current_image 0000000180044190 f   LIBCMT:utility.obj
 0001:00043228       __scrt_release_startup_lock 0000000180044228 f   LIBCMT:utility.obj
 0001:0004324c       __scrt_uninitialize_crt    000000018004424c f   LIBCMT:utility.obj
 0001:00043278       _onexit                    0000000180044278 f   LIBCMT:utility.obj
 0001:000432b4       atexit                     00000001800442b4 f   LIBCMT:utility.obj
 0001:000432cc       ??3@YAXPEAX_K@Z            00000001800442cc f   LIBCMT:delete_scalar_size.obj
 0001:000432d4       ??_Etype_info@@UEAAPEAXI@Z 00000001800442d4 f i LIBCMT:std_type_info_static.obj
 0001:000432d4       ??_Gtype_info@@UEAAPEAXI@Z 00000001800442d4 f i LIBCMT:std_type_info_static.obj
 0001:00043300       _Init_thread_footer        0000000180044300 f   LIBCMT:thread_safe_statics.obj
 0001:0004336c       _Init_thread_header        000000018004436c f   LIBCMT:thread_safe_statics.obj
 0001:000433e4       ??_L@YAXPEAX_K1P6AX0@Z2@Z  00000001800443e4 f   LIBCMT:ehvecctr.obj
 0001:00043454       __raise_securityfailure    0000000180044454 f   LIBCMT:gs_report.obj
 0001:00043488       __report_gsfailure         0000000180044488 f   LIBCMT:gs_report.obj
 0001:0004355c       __report_rangecheckfailure 000000018004455c f   LIBCMT:gs_report.obj
 0001:00043570       __report_securityfailure   0000000180044570 f   LIBCMT:gs_report.obj
 0001:00043a04       _DllMainCRTStartup         0000000180044a04 f   LIBCMT:dll_dllmain.obj
 0001:00043a44       __GSHandlerCheck           0000000180044a44 f   LIBCMT:gshandler.obj
 0001:00043a64       __GSHandlerCheckCommon     0000000180044a64 f   LIBCMT:gshandler.obj
 0001:00043ac0       ?__scrt_throw_std_bad_alloc@@YAXXZ 0000000180044ac0 f   LIBCMT:throw_bad_alloc.obj
 0001:00043ae0       __isa_available_init       0000000180044ae0 f   LIBCMT:cpu_disp.obj
 0001:00043dac       _get_startup_argv_mode     0000000180044dac f   LIBCMT:argv_mode.obj
 0001:00043db4       __scrt_is_ucrt_dll_in_use  0000000180044db4 f   LIBCMT:ucrt_detection.obj
 0001:00043dc0       __crt_debugger_hook        0000000180044dc0 f   LIBCMT:utility_desktop.obj
 0001:00043dc8       __scrt_fastfail            0000000180044dc8 f   LIBCMT:utility_desktop.obj
 0001:00043f10       __security_init_cookie     0000000180044f10 f   LIBCMT:gs_support.obj
 0001:00043fbc       ?__scrt_initialize_type_info@@YAXXZ 0000000180044fbc f   LIBCMT:tncleanup.obj
 0001:00043fcc       ?__scrt_uninitialize_type_info@@YAXXZ 0000000180044fcc f   LIBCMT:tncleanup.obj
 0001:00043fd8       __scrt_initialize_default_local_stdio_options 0000000180044fd8 f   LIBCMT:default_local_stdio_options.obj
 0001:00043ff4       __scrt_get_dyn_tls_init_callback 0000000180044ff4 f   LIBCMT:dyn_tls_init.obj
 0001:00043ffc       _RTC_Initialize            0000000180044ffc f   LIBCMT:initsect.obj
 0001:00044038       _RTC_Terminate             0000000180045038 f   LIBCMT:initsect.obj
 0001:00044080       ??$_CallSETranslator@V__FrameHandler3@@@@YAHPEAUEHExceptionRecord@@PEA_KPEAU_CONTEXT@@PEAU_xDISPATCHER_CONTEXT@@PEBU_s_FuncInfo@@K1H@Z 0000000180045080 f i libvcruntime:risctrnsctrl.obj
 0001:000440d4       ??$_CallSETranslator@V__FrameHandler4@@@@YAHPEAUEHExceptionRecord@@PEA_KPEAU_CONTEXT@@PEAU_xDISPATCHER_CONTEXT@@PEAUFuncInfo4@FH4@@K1H@Z 00000001800450d4 f i libvcruntime:risctrnsctrl.obj
 0001:00044128       ?CatchTryBlock@__FrameHandler3@@SAPEBU_s_TryBlockMapEntry@@PEBU_s_FuncInfo@@H@Z 0000000180045128 f   libvcruntime:risctrnsctrl.obj
 0001:0004418c       ?DecompFuncInfo@FH4@@YA_JPEAEAEAUFuncInfo4@1@_KH_N@Z 000000018004518c f i libvcruntime:risctrnsctrl.obj
 0001:000442c4       ?ExecutionInCatch@__FrameHandler3@@SA_NPEAU_xDISPATCHER_CONTEXT@@PEBU_s_FuncInfo@@@Z 00000001800452c4 f   libvcruntime:risctrnsctrl.obj
 0001:000442f0       ?ExecutionInCatch@__FrameHandler4@@SA_NPEAU_xDISPATCHER_CONTEXT@@PEAUFuncInfo4@FH4@@@Z 00000001800452f0 f   libvcruntime:risctrnsctrl.obj
 0001:000442f8       ?FrameUnwindToEmptyState@__FrameHandler3@@SAXPEA_KPEAU_xDISPATCHER_CONTEXT@@PEBU_s_FuncInfo@@@Z 00000001800452f8 f   libvcruntime:risctrnsctrl.obj
 0001:0004435c       ?FrameUnwindToEmptyState@__FrameHandler4@@SAXPEA_KPEAU_xDISPATCHER_CONTEXT@@PEAUFuncInfo4@FH4@@@Z 000000018004535c f   libvcruntime:risctrnsctrl.obj
 0001:00044390       ?GetEstablisherFrame@__FrameHandler3@@SAPEA_KPEA_KPEAU_xDISPATCHER_CONTEXT@@PEBU_s_FuncInfo@@0@Z 0000000180045390 f   libvcruntime:risctrnsctrl.obj
 0001:00044460       ?GetEstablisherFrame@__FrameHandler4@@SAPEA_KPEA_KPEAU_xDISPATCHER_CONTEXT@@PEAUFuncInfo4@FH4@@0@Z 0000000180045460 f   libvcruntime:risctrnsctrl.obj
 0001:00044484       ?GetRangeOfTrysToCheck@__FrameHandler3@@SA?AU?$pair@Viterator@TryBlockMap@__FrameHandler3@@V123@@std@@AEAVTryBlockMap@1@HPEAU_xDISPATCHER_CONTEXT@@PEBU_s_FuncInfo@@H@Z 0000000180045484 f   libvcruntime:risctrnsctrl.obj
 0001:000445b8       ?GetRangeOfTrysToCheck@__FrameHandler4@@SA?AU?$pair@Viterator@TryBlockMap4@FH4@@V123@@std@@AEAVTryBlockMap4@FH4@@HPEAU_xDISPATCHER_CONTEXT@@PEAUFuncInfo4@5@H@Z 00000001800455b8 f   libvcruntime:risctrnsctrl.obj
 0001:00044724       ?UnwindNestedFrames@__FrameHandler3@@SAXPEA_KPEAUEHExceptionRecord@@PEAU_CONTEXT@@0PEAXPEBU_s_FuncInfo@@HHPEBU_s_HandlerType@@PEAU_xDISPATCHER_CONTEXT@@E@Z 0000000180045724 f   libvcruntime:risctrnsctrl.obj
 0001:00044828       ?UnwindNestedFrames@__FrameHandler4@@SAXPEA_KPEAUEHExceptionRecord@@PEAU_CONTEXT@@0PEAXPEAUFuncInfo4@FH4@@HHPEAUHandlerType4@5@PEAU_xDISPATCHER_CONTEXT@@E@Z 0000000180045828 f   libvcruntime:risctrnsctrl.obj
 0001:00044948       ?setBuffer@TryBlockMap4@FH4@@QEAAXViterator@12@@Z 0000000180045948 f i libvcruntime:risctrnsctrl.obj
 0001:00044b0c       _CreateFrameInfo           0000000180045b0c f   libvcruntime:risctrnsctrl.obj
 0001:00044b48       _FindAndUnlinkFrame        0000000180045b48 f   libvcruntime:risctrnsctrl.obj
 0001:00044b9c       _GetImageBase              0000000180045b9c f   libvcruntime:risctrnsctrl.obj
 0001:00044bb0       _GetThrowImageBase         0000000180045bb0 f   libvcruntime:risctrnsctrl.obj
 0001:00044bc4       _SetImageBase              0000000180045bc4 f   libvcruntime:risctrnsctrl.obj
 0001:00044bdc       _SetThrowImageBase         0000000180045bdc f   libvcruntime:risctrnsctrl.obj
 0001:00044bf4       __CxxFrameHandler3         0000000180045bf4 f   libvcruntime:risctrnsctrl.obj
 0001:00044c7c       __CxxFrameHandler4         0000000180045c7c f   libvcruntime:risctrnsctrl.obj
 0001:00044d3c       __std_exception_copy       0000000180045d3c f   libvcruntime:std_exception.obj
 0001:00044dcc       __std_exception_destroy    0000000180045dcc f   libvcruntime:std_exception.obj
 0001:00044df4       __DestructExceptionObject  0000000180045df4 f   libvcruntime:ehhelpers.obj
 0001:00044e64       ?_CallMemberFunction0@@YAXQEAX0@Z 0000000180045e64 f i libvcruntime:ehhelpers.obj
 0001:00044e68       _IsExceptionObjectToBeDestroyed 0000000180045e68 f   libvcruntime:ehhelpers.obj
 0001:00044e98       __AdjustPointer            0000000180045e98 f   libvcruntime:ehhelpers.obj
 0001:00044ebc       __FrameUnwindFilter        0000000180045ebc f   libvcruntime:ehhelpers.obj
 0001:00044f24       __current_exception        0000000180045f24 f   libvcruntime:ehhelpers.obj
 0001:00044f38       __current_exception_context 0000000180045f38 f   libvcruntime:ehhelpers.obj
 0001:00044f4c       __std_terminate            0000000180045f4c f   libvcruntime:ehhelpers.obj
 0001:00044f58       strstr                     0000000180045f58 f   libvcruntime:strstr.obj
 0001:00045140       __C_specific_handler       0000000180046140 f   libvcruntime:riscchandler.obj
 0001:00045360       _CxxThrowException         0000000180046360 f   libvcruntime:throw.obj
 0001:00045408       __vcrt_initialize          0000000180046408 f   libvcruntime:initialization.obj
 0001:00045430       __vcrt_thread_attach       0000000180046430 f   libvcruntime:initialization.obj
 0001:00045444       __vcrt_thread_detach       0000000180046444 f   libvcruntime:initialization.obj
 0001:00045454       __vcrt_uninitialize        0000000180046454 f   libvcruntime:initialization.obj
 0001:00045470       __vcrt_uninitialize_critical 0000000180046470 f   libvcruntime:initialization.obj
 0001:00045480       __std_type_info_compare    0000000180046480 f   libvcruntime:std_type_info.obj
 0001:000454a8       __std_type_info_destroy_list 00000001800464a8 f   libvcruntime:std_type_info.obj
 0001:000454d4       __vcrt_freefls             00000001800464d4 f   libvcruntime:per_thread_data.obj
 0001:000454f4       __vcrt_freeptd_for_this_thread 00000001800464f4 f   libvcruntime:per_thread_data.obj
 0001:0004553c       __vcrt_getptd              000000018004653c f   libvcruntime:per_thread_data.obj
 0001:00045558       __vcrt_getptd_noexit       0000000180046558 f   libvcruntime:per_thread_data.obj
 0001:00045618       __vcrt_initialize_ptd      0000000180046618 f   libvcruntime:per_thread_data.obj
 0001:00045660       __vcrt_uninitialize_ptd    0000000180046660 f   libvcruntime:per_thread_data.obj
 0001:00045684       ?GetCurrentState@__FrameHandler3@@SAHPEA_KPEAU_xDISPATCHER_CONTEXT@@PEBU_s_FuncInfo@@@Z 0000000180046684 f   libvcruntime:ehstate.obj
 0001:000456ac       ?GetUnwindTryBlock@__FrameHandler3@@SAHPEA_KPEAU_xDISPATCHER_CONTEXT@@PEBU_s_FuncInfo@@@Z 00000001800466ac f   libvcruntime:ehstate.obj
 0001:000456d8       ?SetState@__FrameHandler3@@SAXPEA_KPEBU_s_FuncInfo@@H@Z 00000001800466d8 f   libvcruntime:ehstate.obj
 0001:000456e4       ?SetUnwindTryBlock@__FrameHandler3@@SAXPEA_KPEAU_xDISPATCHER_CONTEXT@@PEBU_s_FuncInfo@@H@Z 00000001800466e4 f   libvcruntime:ehstate.obj
 0001:00045720       ?StateFromControlPc@__FrameHandler3@@SAHPEBU_s_FuncInfo@@PEAU_xDISPATCHER_CONTEXT@@@Z 0000000180046720 f   libvcruntime:ehstate.obj
 0001:00045728       ?StateFromControlPc@__FrameHandler4@@SAHPEAUFuncInfo4@FH4@@PEAU_xDISPATCHER_CONTEXT@@@Z 0000000180046728 f   libvcruntime:ehstate.obj
 0001:00045730       ?StateFromIp@__FrameHandler3@@SAHPEBU_s_FuncInfo@@PEAU_xDISPATCHER_CONTEXT@@_K@Z 0000000180046730 f   libvcruntime:ehstate.obj
 0001:00045798       ?StateFromIp@__FrameHandler4@@SAHPEAUFuncInfo4@FH4@@PEAU_xDISPATCHER_CONTEXT@@_K@Z 0000000180046798 f   libvcruntime:ehstate.obj
 0001:00046ef0       ??$TypeMatchHelper@V__FrameHandler3@@@@YAHPEBU_s_HandlerType@@PEBU_s_CatchableType@@PEBU_s_ThrowInfo@@@Z 0000000180047ef0 f i libvcruntime:frame.obj
 0001:00047030       ??$TypeMatchHelper@V__FrameHandler4@@@@YAHPEAUHandlerType4@FH4@@PEBU_s_CatchableType@@PEBU_s_ThrowInfo@@@Z 0000000180048030 f i libvcruntime:frame.obj
 0001:0004717c       ??$__InternalCxxFrameHandler@V__FrameHandler3@@@@YA?AW4_EXCEPTION_DISPOSITION@@PEAUEHExceptionRecord@@PEA_KPEAU_CONTEXT@@PEAU_xDISPATCHER_CONTEXT@@PEBU_s_FuncInfo@@H1E@Z 000000018004817c f i libvcruntime:frame.obj
 0001:000473b4       ??$__InternalCxxFrameHandler@V__FrameHandler4@@@@YA?AW4_EXCEPTION_DISPOSITION@@PEAUEHExceptionRecord@@PEA_KPEAU_CONTEXT@@PEAU_xDISPATCHER_CONTEXT@@PEAUFuncInfo4@FH4@@H1E@Z 00000001800483b4 f i libvcruntime:frame.obj
 0001:00047648       ??$__InternalCxxFrameHandlerWrapper@V__FrameHandler3@@@@YA?AW4_EXCEPTION_DISPOSITION@@PEAUEHExceptionRecord@@PEA_KPEAU_CONTEXT@@PEAU_xDISPATCHER_CONTEXT@@PEBU_s_FuncInfo@@H1E@Z 0000000180048648 f i libvcruntime:frame.obj
 0001:00047650       ??$__InternalCxxFrameHandlerWrapper@V__FrameHandler4@@@@YA?AW4_EXCEPTION_DISPOSITION@@PEAUEHExceptionRecord@@PEA_KPEAU_CONTEXT@@PEAU_xDISPATCHER_CONTEXT@@PEAUFuncInfo4@FH4@@H1E@Z 0000000180048650 f i libvcruntime:frame.obj
 0001:0004769c       ??0HandlerMap4@FH4@@QEAA@PEBUTryBlockMapEntry4@1@_KH@Z 000000018004869c f i libvcruntime:frame.obj
 0001:00047720       ??0TryBlockMap4@FH4@@QEAA@PEBUFuncInfo4@1@_K@Z 0000000180048720 f i libvcruntime:frame.obj
 0001:00047804       ??0bad_exception@std@@QEAA@AEBV01@@Z 0000000180048804 f i libvcruntime:frame.obj
 0001:00047840       ??0bad_exception@std@@QEAA@XZ 0000000180048840 f i libvcruntime:frame.obj
 0001:00047860       ?CxxCallCatchBlock@__FrameHandler3@@SAPEAXPEAU_EXCEPTION_RECORD@@@Z 0000000180048860 f   libvcruntime:frame.obj
 0001:00047a4c       ?CxxCallCatchBlock@__FrameHandler4@@SAPEAXPEAU_EXCEPTION_RECORD@@@Z 0000000180048a4c f   libvcruntime:frame.obj
 0001:00047c9c       ?DecompHandler@HandlerMap4@FH4@@AEAAXXZ 0000000180048c9c f i libvcruntime:frame.obj
 0001:00047ee4       ?FrameUnwindToState@__FrameHandler3@@SAXPEA_KPEAU_xDISPATCHER_CONTEXT@@PEBU_s_FuncInfo@@H@Z 0000000180048ee4 f   libvcruntime:frame.obj
 0001:00048070       ?FrameUnwindToState@__FrameHandler4@@SAXPEA_KPEAU_xDISPATCHER_CONTEXT@@PEAUFuncInfo4@FH4@@H@Z 0000000180049070 f   libvcruntime:frame.obj
 0001:00048378       ?GetHandlerSearchState@__FrameHandler3@@SAHPEA_KPEAU_xDISPATCHER_CONTEXT@@PEBU_s_FuncInfo@@@Z 0000000180049378 f i libvcruntime:frame.obj
 0001:00048588       ?ReadEntry@UWMap4@FH4@@AEAAXPEAPEAE@Z 0000000180049588 f i libvcruntime:frame.obj
 0001:00048624       ?_CallMemberFunction1@@YAXQEAX00@Z 0000000180049624 f i libvcruntime:frame.obj
 0001:00048630       ?_CallMemberFunction2@@YAXQEAX00H@Z 0000000180049630 f i libvcruntime:frame.obj
 0001:00048640       ?getStartStop@UWMap4@FH4@@QEAAXHHAEAViterator@12@0@Z 0000000180049640 f i libvcruntime:frame.obj
 0001:00048710       ?getStateFromIterators@UWMap4@FH4@@SAHAEBViterator@12@H0H0@Z 0000000180049710 f i libvcruntime:frame.obj
 0001:000487f0       _NLG_Notify                00000001800497f0 f   libvcruntime:notify.obj
 0001:00048810       __NLG_Dispatch2            0000000180049810 f   libvcruntime:notify.obj
 0001:00048820       __NLG_Return2              0000000180049820 f   libvcruntime:notify.obj
 0001:00048824       __except_validate_context_record 0000000180049824 f   libvcruntime:jbcxrval.obj
 0001:0004885c       __vcrt_initialize_locks    000000018004985c f   libvcruntime:locks.obj
 0001:000488a4       __vcrt_uninitialize_locks  00000001800498a4 f   libvcruntime:locks.obj
 0001:00048a2c       __vcrt_FlsAlloc            0000000180049a2c f   libvcruntime:winapi_downlevel.obj
 0001:00048a74       __vcrt_FlsFree             0000000180049a74 f   libvcruntime:winapi_downlevel.obj
 0001:00048abc       __vcrt_FlsGetValue         0000000180049abc f   libvcruntime:winapi_downlevel.obj
 0001:00048b04       __vcrt_FlsSetValue         0000000180049b04 f   libvcruntime:winapi_downlevel.obj
 0001:00048b58       __vcrt_InitializeCriticalSectionEx 0000000180049b58 f   libvcruntime:winapi_downlevel.obj
 0001:00048c00       _CallSettingFrame          0000000180049c00 f   libvcruntime:handlers.obj
 0001:00048c40       _CallSettingFrame_LookupContinuationIndex 0000000180049c40 f   libvcruntime:handlers.obj
 0001:00048c70       _CallSettingFrame_NotifyContinuationAddr 0000000180049c70 f   libvcruntime:handlers.obj
 0001:00048ca0       _CallSettingFrameEncoded   0000000180049ca0 f   libvcruntime:handlers.obj
 0001:00048ce8       ?get_raw_ptd@__crt_cached_ptd_host@@QEAAPEAU__acrt_ptd@@XZ 0000000180049ce8 f i libucrt:invalid_parameter.obj
 0001:00048d50       ?get_raw_ptd_noexit@__crt_cached_ptd_host@@QEAAPEAU__acrt_ptd@@XZ 0000000180049d50 f i libucrt:invalid_parameter.obj
 0001:00048dbc       ?value@?$dual_state_global@P6AXPEB_W00I_K@Z@__crt_state_management@@QEAAAEAP6AXPEB_W00I_K@ZAEAV__crt_cached_ptd_host@@@Z 0000000180049dbc f i libucrt:invalid_parameter.obj
 0001:00048e08       __acrt_call_reportfault    0000000180049e08 f   libucrt:invalid_parameter.obj
 0001:00048f64       __acrt_initialize_invalid_parameter_handler 0000000180049f64 f   libucrt:invalid_parameter.obj
 0001:00048f6c       _invalid_parameter         0000000180049f6c f   libucrt:invalid_parameter.obj
 0001:00049008       _invalid_parameter_internal 000000018004a008 f   libucrt:invalid_parameter.obj
 0001:000490d4       _invalid_parameter_noinfo  000000018004a0d4 f   libucrt:invalid_parameter.obj
 0001:000490f4       _invalid_parameter_noinfo_noreturn 000000018004a0f4 f   libucrt:invalid_parameter.obj
 0001:00049124       _invoke_watson             000000018004a124 f   libucrt:invalid_parameter.obj
 0001:0004916c       ??0_LocaleUpdate@@QEAA@QEAU__crt_locale_pointers@@@Z 000000018004a16c f i libucrt:tolower_toupper.obj
 0001:00049208       _toupper_l                 000000018004a208 f   libucrt:tolower_toupper.obj
 0001:0004933c       toupper                    000000018004a33c f   libucrt:tolower_toupper.obj
 0001:00049880       _ftelli64_nolock_internal  000000018004a880 f   libucrt:ftell.obj
 0001:00049888       ftell                      000000018004a888 f   libucrt:ftell.obj
 0001:00049920       __acrt_initialize_stdio    000000018004a920 f   libucrt:_file.obj
 0001:00049a40       __acrt_iob_func            000000018004aa40 f   libucrt:_file.obj
 0001:00049a54       __acrt_uninitialize_stdio  000000018004aa54 f   libucrt:_file.obj
 0001:00049ab0       _lock_file                 000000018004aab0 f   libucrt:_file.obj
 0001:00049abc       _unlock_file               000000018004aabc f   libucrt:_file.obj
 0001:00049ce8       __acrt_stdio_flush_nolock  000000018004ace8 f   libucrt:fflush.obj
 0001:00049d74       _fflush_nolock             000000018004ad74 f   libucrt:fflush.obj
 0001:00049e48       _flushall                  000000018004ae48 f   libucrt:fflush.obj
 0001:00049e50       fflush                     000000018004ae50 f   libucrt:fflush.obj
 0001:00049fdc       _fclose_nolock             000000018004afdc f   libucrt:fclose.obj
 0001:0004a074       fclose                     000000018004b074 f   libucrt:fclose.obj
 0001:0004a37c       fseek                      000000018004b37c f   libucrt:fseek.obj
 0001:0004a420       qsort                      000000018004b420 f   libucrt:qsort.obj
 0001:0004a840       strncpy                    000000018004b840 f   libucrt:strncpy.obj
 0001:0004aa64       _fwrite_internal           000000018004ba64 f   libucrt:fwrite.obj
 0001:0004ab00       _fwrite_nolock_internal    000000018004bb00 f   libucrt:fwrite.obj
 0001:0004ad14       fwrite                     000000018004bd14 f   libucrt:fwrite.obj
 0001:0004ae84       _wfopen                    000000018004be84 f   libucrt:fopen.obj
 0001:0004ae90       ??$ensure_buffer_is_big_enough@D@formatting_buffer@__crt_stdio_output@@QEAA_N_KAEAV__crt_cached_ptd_host@@@Z 000000018004be90 f i libucrt:output.obj
 0001:0004af38       ??$parse_integer@KV?$c_string_character_source@D@__crt_strtox@@$0A@@__crt_strtox@@YAKAEAV__crt_cached_ptd_host@@V?$c_string_character_source@D@0@H_N@Z 000000018004bf38 f i libucrt:output.obj
 0001:0004b1ec       ??$type_case_integer@$07@?$output_processor@DV?$string_output_adapter@D@__crt_stdio_output@@V?$standard_base@DV?$string_output_adapter@D@__crt_stdio_output@@@2@@__crt_stdio_output@@AEAA_N_N@Z 000000018004c1ec f i libucrt:output.obj
 0001:0004b3f0       ??$type_case_integer@$09@?$output_processor@DV?$string_output_adapter@D@__crt_stdio_output@@V?$standard_base@DV?$string_output_adapter@D@__crt_stdio_output@@@2@@__crt_stdio_output@@AEAA_N_N@Z 000000018004c3f0 f i libucrt:output.obj
 0001:0004b5f4       ??$type_case_integer@$0BA@@?$output_processor@DV?$string_output_adapter@D@__crt_stdio_output@@V?$standard_base@DV?$string_output_adapter@D@__crt_stdio_output@@@2@@__crt_stdio_output@@AEAA_N_N@Z 000000018004c5f4 f i libucrt:output.obj
 0001:0004b7f8       ??$type_case_integer_parse_into_buffer@I$07@?$output_processor@DV?$string_output_adapter@D@__crt_stdio_output@@V?$standard_base@DV?$string_output_adapter@D@__crt_stdio_output@@@2@@__crt_stdio_output@@AEAAXI_N@Z 000000018004c7f8 f i libucrt:output.obj
 0001:0004b868       ??$type_case_integer_parse_into_buffer@I$09@?$output_processor@DV?$string_output_adapter@D@__crt_stdio_output@@V?$standard_base@DV?$string_output_adapter@D@__crt_stdio_output@@@2@@__crt_stdio_output@@AEAAXI_N@Z 000000018004c868 f i libucrt:output.obj
 0001:0004b914       ??$type_case_integer_parse_into_buffer@I$0BA@@?$output_processor@DV?$string_output_adapter@D@__crt_stdio_output@@V?$standard_base@DV?$string_output_adapter@D@__crt_stdio_output@@@2@@__crt_stdio_output@@AEAAXI_N@Z 000000018004c914 f i libucrt:output.obj
 0001:0004b998       ??$type_case_integer_parse_into_buffer@_K$07@?$output_processor@DV?$string_output_adapter@D@__crt_stdio_output@@V?$standard_base@DV?$string_output_adapter@D@__crt_stdio_output@@@2@@__crt_stdio_output@@AEAAX_K_N@Z 000000018004c998 f i libucrt:output.obj
 0001:0004ba08       ??$type_case_integer_parse_into_buffer@_K$09@?$output_processor@DV?$string_output_adapter@D@__crt_stdio_output@@V?$standard_base@DV?$string_output_adapter@D@__crt_stdio_output@@@2@@__crt_stdio_output@@AEAAX_K_N@Z 000000018004ca08 f i libucrt:output.obj
 0001:0004bab8       ??$type_case_integer_parse_into_buffer@_K$0BA@@?$output_processor@DV?$string_output_adapter@D@__crt_stdio_output@@V?$standard_base@DV?$string_output_adapter@D@__crt_stdio_output@@@2@@__crt_stdio_output@@AEAAX_K_N@Z 000000018004cab8 f i libucrt:output.obj
 0001:0004bb3c       ?crop_zeroes@__crt_stdio_output@@YAXPEADQEAU__crt_locale_pointers@@@Z 000000018004cb3c f i libucrt:output.obj
 0001:0004bba8       ?parse_int_from_format_string@?$output_processor@DV?$string_output_adapter@D@__crt_stdio_output@@V?$standard_base@DV?$string_output_adapter@D@__crt_stdio_output@@@2@@__crt_stdio_output@@AEAA_NQEAH@Z 000000018004cba8 f i libucrt:output.obj
 0001:0004bc38       ?process@?$output_processor@DV?$string_output_adapter@D@__crt_stdio_output@@V?$standard_base@DV?$string_output_adapter@D@__crt_stdio_output@@@2@@__crt_stdio_output@@QEAAHXZ 000000018004cc38 f i libucrt:output.obj
 0001:0004bfb8       ?state_case_size@?$output_processor@DV?$string_output_adapter@D@__crt_stdio_output@@V?$standard_base@DV?$string_output_adapter@D@__crt_stdio_output@@@2@@__crt_stdio_output@@AEAA_NXZ 000000018004cfb8 f i libucrt:output.obj
 0001:0004c140       ?state_case_type@?$output_processor@DV?$string_output_adapter@D@__crt_stdio_output@@V?$standard_base@DV?$string_output_adapter@D@__crt_stdio_output@@@2@@__crt_stdio_output@@AEAA_NXZ 000000018004d140 f i libucrt:output.obj
 0001:0004c544       ?type_case_Z@?$output_processor@DV?$string_output_adapter@D@__crt_stdio_output@@V?$standard_base@DV?$string_output_adapter@D@__crt_stdio_output@@@2@@__crt_stdio_output@@AEAA_NXZ 000000018004d544 f i libucrt:output.obj
 0001:0004c5c0       ?type_case_a@?$output_processor@DV?$string_output_adapter@D@__crt_stdio_output@@V?$standard_base@DV?$string_output_adapter@D@__crt_stdio_output@@@2@@__crt_stdio_output@@AEAA_NXZ 000000018004d5c0 f i libucrt:output.obj
 0001:0004c814       ?type_case_c_tchar@?$output_processor@DV?$string_output_adapter@D@__crt_stdio_output@@V?$standard_base@DV?$string_output_adapter@D@__crt_stdio_output@@@2@@__crt_stdio_output@@AEAA_ND@Z 000000018004d814 f i libucrt:output.obj
 0001:0004c8e8       ?type_case_n@?$output_processor@DV?$string_output_adapter@D@__crt_stdio_output@@V?$standard_base@DV?$string_output_adapter@D@__crt_stdio_output@@@2@@__crt_stdio_output@@AEAA_NXZ 000000018004d8e8 f i libucrt:output.obj
 0001:0004c9a0       ?type_case_s@?$output_processor@DV?$string_output_adapter@D@__crt_stdio_output@@V?$standard_base@DV?$string_output_adapter@D@__crt_stdio_output@@@2@@__crt_stdio_output@@AEAA_NXZ 000000018004d9a0 f i libucrt:output.obj
 0001:0004ca40       ?update_locale_slow@__crt_cached_ptd_host@@AEAAXXZ 000000018004da40 f i libucrt:output.obj
 0001:0004cab8       ?write_string@?$string_output_adapter@D@__crt_stdio_output@@QEBAXQEBDHQEAHAEAV__crt_cached_ptd_host@@@Z 000000018004dab8 f i libucrt:output.obj
 0001:0004cb5c       __stdio_common_vsprintf    000000018004db5c f   libucrt:output.obj
 0001:0004cdb0       free                       000000018004ddb0 f   libucrt:free.obj
 0001:0004cdc4       _fread_nolock_s            000000018004ddc4 f   libucrt:fread.obj
 0001:0004d024       fread                      000000018004e024 f   libucrt:fread.obj
 0001:0004d044       fread_s                    000000018004e044 f   libucrt:fread.obj
 0001:0004d0ec       ??$is_overflow_condition@_K@__crt_strtox@@YA_NI_K@Z 000000018004e0ec f i libucrt:input.obj
 0001:0004d124       ??$parse_floating_point@V?$input_adapter_character_source@V?$string_input_adapter@D@__crt_stdio_input@@@__crt_strtox@@M@__crt_strtox@@YA?AW4SLD_STATUS@@QEAU__crt_locale_pointers@@V?$input_adapter_character_source@V?$string_input_adapter@D@__crt_stdio_input@@@0@QEAM@Z 000000018004e124 f i libucrt:input.obj
 0001:0004d1cc       ??$parse_floating_point@V?$input_adapter_character_source@V?$string_input_adapter@D@__crt_stdio_input@@@__crt_strtox@@N@__crt_strtox@@YA?AW4SLD_STATUS@@QEAU__crt_locale_pointers@@V?$input_adapter_character_source@V?$string_input_adapter@D@__crt_stdio_input@@@0@QEAN@Z 000000018004e1cc f i libucrt:input.obj
 0001:0004d274       ??$parse_floating_point_from_source@V?$input_adapter_character_source@V?$string_input_adapter@D@__crt_stdio_input@@@__crt_strtox@@@__crt_strtox@@YA?AW4floating_point_parse_result@0@QEAU__crt_locale_pointers@@AEAV?$input_adapter_character_source@V?$string_input_adapter@D@__crt_stdio_input@@@0@AEAUfloating_point_string@0@@Z 000000018004e274 f i libucrt:input.obj
 0001:0004da20       ??$parse_floating_point_possible_infinity@DV?$input_adapter_character_source@V?$string_input_adapter@D@__crt_stdio_input@@@__crt_strtox@@_K@__crt_strtox@@YA?AW4floating_point_parse_result@0@AEADAEAV?$input_adapter_character_source@V?$string_input_adapter@D@__crt_stdio_input@@@0@_K@Z 000000018004ea20 f i libucrt:input.obj
 0001:0004dbcc       ??$parse_floating_point_possible_nan@DV?$input_adapter_character_source@V?$string_input_adapter@D@__crt_stdio_input@@@__crt_strtox@@_K@__crt_strtox@@YA?AW4floating_point_parse_result@0@AEADAEAV?$input_adapter_character_source@V?$string_input_adapter@D@__crt_stdio_input@@@0@_K@Z 000000018004ebcc f i libucrt:input.obj
 0001:0004de2c       ??$parse_floating_point_possible_nan_is_ind@DV?$input_adapter_character_source@V?$string_input_adapter@D@__crt_stdio_input@@@__crt_strtox@@@__crt_strtox@@YA_NAEADAEAV?$input_adapter_character_source@V?$string_input_adapter@D@__crt_stdio_input@@@0@@Z 000000018004ee2c f i libucrt:input.obj
 0001:0004dea8       ??$parse_floating_point_possible_nan_is_snan@DV?$input_adapter_character_source@V?$string_input_adapter@D@__crt_stdio_input@@@__crt_strtox@@@__crt_strtox@@YA_NAEADAEAV?$input_adapter_character_source@V?$string_input_adapter@D@__crt_stdio_input@@@0@@Z 000000018004eea8 f i libucrt:input.obj
 0001:0004df24       ??$parse_floating_point_write_result@M@__crt_strtox@@YA?AW4SLD_STATUS@@W4floating_point_parse_result@0@AEBUfloating_point_string@0@QEAM@Z 000000018004ef24 f i libucrt:input.obj
 0001:0004e094       ??$parse_floating_point_write_result@N@__crt_strtox@@YA?AW4SLD_STATUS@@W4floating_point_parse_result@0@AEBUfloating_point_string@0@QEAN@Z 000000018004f094 f i libucrt:input.obj
 0001:0004e274       ??$parse_integer@_KV?$input_adapter_character_source@V?$string_input_adapter@D@__crt_stdio_input@@@__crt_strtox@@$00@__crt_strtox@@YA_KAEAV__crt_cached_ptd_host@@V?$input_adapter_character_source@V?$string_input_adapter@D@__crt_stdio_input@@@0@H_N@Z 000000018004f274 f i libucrt:input.obj
 0001:0004e6b0       ??$parse_integer@_KV?$input_adapter_character_source@V?$string_input_adapter@D@__crt_stdio_input@@@__crt_strtox@@@__crt_strtox@@YA_KQEAU__crt_locale_pointers@@V?$input_adapter_character_source@V?$string_input_adapter@D@__crt_stdio_input@@@0@H_N@Z 000000018004f6b0 f i libucrt:input.obj
 0001:0004e7b0       ??$process_floating_point_specifier_t@M@?$input_processor@DV?$string_input_adapter@D@__crt_stdio_input@@@__crt_stdio_input@@AEAA_NXZ 000000018004f7b0 f i libucrt:input.obj
 0001:0004e858       ??$process_floating_point_specifier_t@N@?$input_processor@DV?$string_input_adapter@D@__crt_stdio_input@@@__crt_stdio_input@@AEAA_NXZ 000000018004f858 f i libucrt:input.obj
 0001:0004e900       ??$process_string_specifier_tchar@D@?$input_processor@DV?$string_input_adapter@D@__crt_stdio_input@@@__crt_stdio_input@@AEAA_NW4conversion_mode@1@D@Z 000000018004f900 f i libucrt:input.obj
 0001:0004eab4       ??$process_string_specifier_tchar@_W@?$input_processor@DV?$string_input_adapter@D@__crt_stdio_input@@@__crt_stdio_input@@AEAA_NW4conversion_mode@1@_W@Z 000000018004fab4 f i libucrt:input.obj
 0001:0004ec94       ??$skip_whitespace@Vstring_input_adapter@__crt_stdio_input@@D@__crt_stdio_input@@YAHAEAV?$string_input_adapter@D@0@QEAU__crt_locale_pointers@@@Z 000000018004fc94 f i libucrt:input.obj
 0001:0004ece8       ??R<lambda_1db4d925c2db10274e92824f631ccf5d>@@QEBA@XZ 000000018004fce8 f i libucrt:input.obj
 0001:0004ece8       ??R<lambda_bdd123a27a08a14f93fbf44b617d0736>@@QEBA@XZ 000000018004fce8 f i libucrt:input.obj
 0001:0004ece8       ??R<lambda_ee7c83d9f0cd4f1299194e0a8d424b67>@@QEBA@XZ 000000018004fce8 f i libucrt:input.obj
 0001:0004ed4c       ?advance@?$format_string_parser@D@__crt_stdio_input@@QEAA_NXZ 000000018004fd4c f i libucrt:input.obj
 0001:0004ef14       ?as_double@floating_point_value@__crt_strtox@@QEBAAEANXZ 000000018004ff14 f i libucrt:input.obj
 0001:0004ef50       ?as_float@floating_point_value@__crt_strtox@@QEBAAEAMXZ 000000018004ff50 f i libucrt:input.obj
 0001:0004ef8c       ?assemble_floating_point_value@__crt_strtox@@YA?AW4SLD_STATUS@@_KH_N1AEBVfloating_point_value@1@@Z 000000018004ff8c f i libucrt:input.obj
 0001:0004f338       ?assemble_floating_point_value_from_big_integer@__crt_strtox@@YA?AW4SLD_STATUS@@AEBUbig_integer@1@I_N1AEBVfloating_point_value@1@@Z 0000000180050338 f i libucrt:input.obj
 0001:0004f498       ?convert_decimal_string_to_floating_type_common@__crt_strtox@@YA?AW4SLD_STATUS@@AEBUfloating_point_string@1@AEBVfloating_point_value@1@@Z 0000000180050498 f i libucrt:input.obj
 0001:00051318       ?convert_hexadecimal_string_to_floating_type_common@__crt_strtox@@YA?AW4SLD_STATUS@@AEBUfloating_point_string@1@AEBVfloating_point_value@1@@Z 0000000180052318 f i libucrt:input.obj
 0001:000513d0       ?divide@__crt_strtox@@YA_KAEAUbig_integer@1@AEBU21@@Z 00000001800523d0 f i libucrt:input.obj
 0001:0005186c       ?length@?$format_string_parser@D@__crt_stdio_input@@QEBA_KXZ 000000018005286c f i libucrt:input.obj
 0001:00051924       ?process@?$input_processor@DV?$string_input_adapter@D@__crt_stdio_input@@@__crt_stdio_input@@QEAAHXZ 0000000180052924 f i libucrt:input.obj
 0001:00051a18       ?process_conversion_specifier@?$input_processor@DV?$string_input_adapter@D@__crt_stdio_input@@@__crt_stdio_input@@AEAA_NXZ 0000000180052a18 f i libucrt:input.obj
 0001:00051b38       ?process_floating_point_specifier@?$input_processor@DV?$string_input_adapter@D@__crt_stdio_input@@@__crt_stdio_input@@AEAA_NXZ 0000000180052b38 f i libucrt:input.obj
 0001:00051ba8       ?process_integer_specifier@?$input_processor@DV?$string_input_adapter@D@__crt_stdio_input@@@__crt_stdio_input@@AEAA_NI_N@Z 0000000180052ba8 f i libucrt:input.obj
 0001:00051c60       ?process_literal_character_tchar@?$input_processor@DV?$string_input_adapter@D@__crt_stdio_input@@@__crt_stdio_input@@AEAA_ND@Z 0000000180052c60 f i libucrt:input.obj
 0001:00051ce8       ?process_state@?$input_processor@DV?$string_input_adapter@D@__crt_stdio_input@@@__crt_stdio_input@@AEAA_NXZ 0000000180052ce8 f i libucrt:input.obj
 0001:00051da0       ?process_string_specifier@?$input_processor@DV?$string_input_adapter@D@__crt_stdio_input@@@__crt_stdio_input@@AEAA_NW4conversion_mode@2@@Z 0000000180052da0 f i libucrt:input.obj
 0001:00051e2c       ?scan_conversion_specifier@?$format_string_parser@D@__crt_stdio_input@@AEAA_NXZ 0000000180052e2c f i libucrt:input.obj
 0001:00051ff4       ?scan_optional_field_width@?$format_string_parser@D@__crt_stdio_input@@AEAA_NXZ 0000000180052ff4 f i libucrt:input.obj
 0001:00052094       ?scan_optional_length_modifier@?$format_string_parser@D@__crt_stdio_input@@AEAAXXZ 0000000180053094 f i libucrt:input.obj
 0001:000521c0       ?scan_scanset_range@?$format_string_parser@D@__crt_stdio_input@@AEAA_NXZ 00000001800531c0 f i libucrt:input.obj
 0001:00052358       ?write_character@?$input_processor@DV?$string_input_adapter@D@__crt_stdio_input@@@__crt_stdio_input@@AEAA_NQEFA_W_KAEAPEFA_WAEA_KD@Z 0000000180053358 f i libucrt:input.obj
 0001:000523f0       ?write_integer@?$input_processor@DV?$string_input_adapter@D@__crt_stdio_input@@@__crt_stdio_input@@AEAA_N_K@Z 00000001800533f0 f i libucrt:input.obj
 0001:0005246c       __stdio_common_vsscanf     000000018005346c f   libucrt:input.obj
 0001:00052590       _ischartype_l              0000000180053590 f i libucrt:input.obj
 0001:00052690       malloc                     0000000180053690 f   libucrt:malloc.obj
 0001:000526b0       strncmp                    00000001800536b0 f   libucrt:strncmp.obj
 0001:000527a4       ??$parse_floating_point@V?$c_string_character_source@D@__crt_strtox@@N@__crt_strtox@@YA?AW4SLD_STATUS@@QEAU__crt_locale_pointers@@V?$c_string_character_source@D@0@QEAN@Z 00000001800537a4 f i libucrt:atof.obj
 0001:00052844       ??$parse_floating_point_from_source@V?$c_string_character_source@D@__crt_strtox@@@__crt_strtox@@YA?AW4floating_point_parse_result@0@QEAU__crt_locale_pointers@@AEAV?$c_string_character_source@D@0@AEAUfloating_point_string@0@@Z 0000000180053844 f i libucrt:atof.obj
 0001:00052cec       ??$parse_floating_point_possible_infinity@DV?$c_string_character_source@D@__crt_strtox@@PEBD@__crt_strtox@@YA?AW4floating_point_parse_result@0@AEADAEAV?$c_string_character_source@D@0@PEBD@Z 0000000180053cec f i libucrt:atof.obj
 0001:00052e30       ??$parse_floating_point_possible_nan@DV?$c_string_character_source@D@__crt_strtox@@PEBD@__crt_strtox@@YA?AW4floating_point_parse_result@0@AEADAEAV?$c_string_character_source@D@0@PEBD@Z 0000000180053e30 f i libucrt:atof.obj
 0001:0005301c       ??$parse_floating_point_possible_nan_is_ind@DV?$c_string_character_source@D@__crt_strtox@@@__crt_strtox@@YA_NAEADAEAV?$c_string_character_source@D@0@@Z 000000018005401c f i libucrt:atof.obj
 0001:00053064       ??$parse_floating_point_possible_nan_is_snan@DV?$c_string_character_source@D@__crt_strtox@@@__crt_strtox@@YA_NAEADAEAV?$c_string_character_source@D@0@@Z 0000000180054064 f i libucrt:atof.obj
 0001:000530ac       atof                       00000001800540ac f   libucrt:atof.obj
 0001:000531ac       freopen_s                  00000001800541ac f   libucrt:freopen.obj
 0001:000531c4       ??$parse_integer@KV?$c_string_character_source@D@__crt_strtox@@$00@__crt_strtox@@YAKAEAV__crt_cached_ptd_host@@V?$c_string_character_source@D@0@H_N@Z 00000001800541c4 f i libucrt:strtox.obj
 0001:000534b4       ??$parse_integer@_KV?$c_string_character_source@D@__crt_strtox@@$00@__crt_strtox@@YA_KAEAV__crt_cached_ptd_host@@V?$c_string_character_source@D@0@H_N@Z 00000001800544b4 f i libucrt:strtox.obj
 0001:00053790       strtol                     0000000180054790 f   libucrt:strtox.obj
 0001:00053844       strtoull                   0000000180054844 f   libucrt:strtox.obj
 0001:000538f8       __acrt_initialize_new_handler 00000001800548f8 f   libucrt:new_handler.obj
 0001:00053900       _callnewh                  0000000180054900 f   libucrt:new_handler.obj
 0001:00053940       _query_new_handler         0000000180054940 f   libucrt:new_handler.obj
 0001:00053978       terminate                  0000000180054978 f   libucrt:terminate.obj
 0001:000539a4       _seh_filter_dll            00000001800549a4 f   libucrt:exception_filter.obj
 0001:000539b8       _seh_filter_exe            00000001800549b8 f   libucrt:exception_filter.obj
 0001:00053dd0       __acrt_initialize_thread_local_exit_callback 0000000180054dd0 f   libucrt:exit.obj
 0001:00053dd8       _cexit                     0000000180054dd8 f   libucrt:exit.obj
 0001:00053de8       _exit                      0000000180054de8 f   libucrt:exit.obj
 0001:00053df4       _is_c_termination_complete 0000000180054df4 f   libucrt:exit.obj
 0001:00053fc4       __acrt_allocate_buffer_for_argv 0000000180054fc4 f   libucrt:argv_parsing.obj
 0001:00054024       _configure_narrow_argv     0000000180055024 f   libucrt:argv_parsing.obj
 0001:000543ac       __dcrt_uninitialize_environments_nolock 00000001800553ac f   libucrt:environment_initialization.obj
 0001:000543f0       _initialize_narrow_environment 00000001800553f0 f   libucrt:environment_initialization.obj
 0001:00054740       _crt_atexit                0000000180055740 f   libucrt:onexit.obj
 0001:00054750       _execute_onexit_table      0000000180055750 f   libucrt:onexit.obj
 0001:00054794       _initialize_onexit_table   0000000180055794 f   libucrt:onexit.obj
 0001:000547bc       _register_onexit_function  00000001800557bc f   libucrt:onexit.obj
 0001:0005483c       __acrt_uninitialize_command_line 000000018005583c f   libucrt:argv_data.obj
 0001:00054934       __acrt_initialize          0000000180055934 f   libucrt:initialization.obj
 0001:00054948       __acrt_thread_attach       0000000180055948 f   libucrt:initialization.obj
 0001:0005495c       __acrt_thread_detach       000000018005595c f   libucrt:initialization.obj
 0001:0005496c       __acrt_uninitialize        000000018005596c f   libucrt:initialization.obj
 0001:000549a4       __acrt_uninitialize_critical 00000001800559a4 f   libucrt:initialization.obj
 0001:000549b4       _initterm                  00000001800559b4 f   libucrt:initterm.obj
 0001:000549f8       _initterm_e                00000001800559f8 f   libucrt:initterm.obj
 0001:00054a40       abort                      0000000180055a40 f   libucrt:abort.obj
 0001:00054a98       strcpy_s                   0000000180055a98 f   libucrt:strcpy_s.obj
 0001:00054af8       calloc                     0000000180055af8 f   libucrt:calloc.obj
 0001:00054b00       wcsncmp                    0000000180055b00 f   libucrt:wcsncmp.obj
 0001:00054ea4       __acrt_freeptd             0000000180055ea4 f   libucrt:per_thread_data.obj
 0001:00054ee8       __acrt_getptd              0000000180055ee8 f   libucrt:per_thread_data.obj
 0001:00054fbc       __acrt_getptd_head         0000000180055fbc f   libucrt:per_thread_data.obj
 0001:00055060       __acrt_getptd_noexit       0000000180056060 f   libucrt:per_thread_data.obj
 0001:00055128       __acrt_getptd_noexit_explicit 0000000180056128 f   libucrt:per_thread_data.obj
 0001:000551e8       __acrt_initialize_ptd      00000001800561e8 f   libucrt:per_thread_data.obj
 0001:00055224       __acrt_uninitialize_ptd    0000000180056224 f   libucrt:per_thread_data.obj
 0001:000552b8       __acrt_set_locale_changed  00000001800562b8 f   libucrt:wsetlocale.obj
 0001:000552c4       __acrt_uninitialize_locale 00000001800562c4 f   libucrt:wsetlocale.obj
 0001:000552f4       __acrt_errno_from_os_error 00000001800562f4 f   libucrt:errno.obj
 0001:0005533c       __acrt_errno_map_os_error  000000018005633c f   libucrt:errno.obj
 0001:00055384       __acrt_errno_map_os_error_ptd 0000000180056384 f   libucrt:errno.obj
 0001:000553a8       __doserrno                 00000001800563a8 f   libucrt:errno.obj
 0001:000553c8       _errno                     00000001800563c8 f   libucrt:errno.obj
 0001:0005571c       __acrt_LCMapStringA        000000018005671c f   libucrt:lcmapstringa.obj
 0001:000557b4       __acrt_update_locale_info  00000001800567b4 f   libucrt:locale_update.obj
 0001:000557e8       __acrt_update_locale_info_explicit 00000001800567e8 f   libucrt:locale_update.obj
 0001:00055820       __acrt_update_multibyte_info 0000000180056820 f   libucrt:locale_update.obj
 0001:00055854       __acrt_update_multibyte_info_explicit 0000000180056854 f   libucrt:locale_update.obj
 0001:0005588c       _fileno                    000000018005688c f   libucrt:fileno.obj
 0001:00055a80       _lseeki64                  0000000180056a80 f   libucrt:lseek.obj
 0001:00055b1c       _lseeki64_internal         0000000180056b1c f   libucrt:lseek.obj
 0001:00055b24       _lseeki64_nolock           0000000180056b24 f   libucrt:lseek.obj
 0001:00055bc0       _lseeki64_nolock_internal  0000000180056bc0 f   libucrt:lseek.obj
 0001:00056050       _read                      0000000180057050 f   libucrt:read.obj
 0001:00056170       _read_nolock               0000000180057170 f   libucrt:read.obj
 0001:000567b8       __acrt_initialize_lowio    00000001800577b8 f   libucrt:ioinit.obj
 0001:000567f4       __acrt_uninitialize_lowio  00000001800577f4 f   libucrt:ioinit.obj
 0001:00056834       _calloc_base               0000000180057834 f   libucrt:calloc_base.obj
 0001:000568ac       _free_base                 00000001800578ac f   libucrt:free_base.obj
 0001:00056aa4       __acrt_AppPolicyGetProcessTerminationMethodInternal 0000000180057aa4 f   libucrt:winapi_thunks.obj
 0001:00056afc       __acrt_AreFileApisANSI     0000000180057afc f   libucrt:winapi_thunks.obj
 0001:00056b40       __acrt_FlsAlloc            0000000180057b40 f   libucrt:winapi_thunks.obj
 0001:00056b48       __acrt_FlsFree             0000000180057b48 f   libucrt:winapi_thunks.obj
 0001:00056b50       __acrt_FlsGetValue         0000000180057b50 f   libucrt:winapi_thunks.obj
 0001:00056b58       __acrt_FlsSetValue         0000000180057b58 f   libucrt:winapi_thunks.obj
 0001:00056b60       __acrt_InitializeCriticalSectionEx 0000000180057b60 f   libucrt:winapi_thunks.obj
 0001:00056bd0       __acrt_LCMapStringEx       0000000180057bd0 f   libucrt:winapi_thunks.obj
 0001:00056cbc       __acrt_LocaleNameToLCID    0000000180057cbc f   libucrt:winapi_thunks.obj
 0001:00056d1c       __acrt_initialize_winapi_thunks 0000000180057d1c f   libucrt:winapi_thunks.obj
 0001:00056d40       __acrt_uninitialize_winapi_thunks 0000000180057d40 f   libucrt:winapi_thunks.obj
 0001:00056d84       _fcloseall                 0000000180057d84 f   libucrt:closeall.obj
 0001:00056e38       __acrt_stdio_free_buffer_nolock 0000000180057e38 f   libucrt:_freebuf.obj
 0001:00056e7c       __acrt_initialize_locks    0000000180057e7c f   libucrt:locks.obj
 0001:00056ec4       __acrt_lock                0000000180057ec4 f   libucrt:locks.obj
 0001:00056ee0       __acrt_uninitialize_locks  0000000180057ee0 f   libucrt:locks.obj
 0001:00056f18       __acrt_unlock              0000000180057f18 f   libucrt:locks.obj
 0001:00056fc0       _commit                    0000000180057fc0 f   libucrt:commit.obj
 0001:0005785c       _write                     000000018005885c f   libucrt:write.obj
 0001:000578f4       _write_internal            00000001800588f4 f   libucrt:write.obj
 0001:00057a14       _write_nolock              0000000180058a14 f   libucrt:write.obj
 0001:00057d94       _close_internal            0000000180058d94 f   libucrt:close.obj
 0001:00057e58       _close_nolock              0000000180058e58 f   libucrt:close.obj
 0001:00057ef0       _close_nolock_internal     0000000180058ef0 f   libucrt:close.obj
 0001:00057fc0       ?__acrt_stdio_allocate_stream@@YA?AV__crt_stdio_stream@@XZ 0000000180058fc0 f   libucrt:stream.obj
 0001:00058018       ?__acrt_stdio_free_stream@@YAXV__crt_stdio_stream@@@Z 0000000180059018 f   libucrt:stream.obj
 0001:00058294       __acrt_stdio_flush_and_write_narrow_nolock 0000000180059294 f   libucrt:_flsbuf.obj
 0001:00058360       __acrt_should_use_temporary_buffer 0000000180059360 f   libucrt:_sftbuf.obj
 0001:000583ac       __acrt_stdio_begin_temporary_buffering_nolock 00000001800593ac f   libucrt:_sftbuf.obj
 0001:00058474       __acrt_stdio_end_temporary_buffering_nolock 0000000180059474 f   libucrt:_sftbuf.obj
 0001:000584b4       ??$__acrt_stdio_parse_mode@D@@YA?AU__acrt_stdio_stream_mode@@QEBD@Z 00000001800594b4 f i libucrt:openfile.obj
 0001:00058778       ??$__acrt_stdio_parse_mode@_W@@YA?AU__acrt_stdio_stream_mode@@QEB_W@Z 0000000180059778 f i libucrt:openfile.obj
 0001:00058a7c       _openfile                  0000000180059a7c f   libucrt:openfile.obj
 0001:00058b18       _wopenfile                 0000000180059b18 f   libucrt:openfile.obj
 0001:00058bb4       _malloc_base               0000000180059bb4 f   libucrt:malloc_base.obj
 0001:00058c14       strnlen                    0000000180059c14 f   libucrt:strnlen.obj
 0001:00058d64       wcsnlen                    0000000180059d64 f   libucrt:strnlen.obj
 0001:00059a50       __acrt_fp_format           000000018005aa50 f   libucrt:cvt.obj
 0001:00059d38       _wctomb_internal           000000018005ad38 f   libucrt:wctomb.obj
 0001:00059ee8       _mbtowc_internal           000000018005aee8 f   libucrt:mbtowc.obj
 0001:0005a060       _mbtowc_l                  000000018005b060 f   libucrt:mbtowc.obj
 0001:0005a104       _get_printf_count_output   000000018005b104 f   libucrt:printf_count_output.obj
 0001:0005a11c       __acrt_stdio_refill_and_read_narrow_nolock 000000018005b11c f   libucrt:_filbuf.obj
 0001:0005a284       __pctype_func              000000018005b284 f   libucrt:ctype.obj
 0001:0005a2b4       _isctype_l                 000000018005b2b4 f   libucrt:isctype.obj
 0001:0005a3c0       isspace                    000000018005b3c0 f   libucrt:_ctype.obj
 0001:0005a468       fegetround                 000000018005b468 f   libucrt:fegetround.obj
 0001:0005a47c       __acrt_app_verifier_enabled 000000018005b47c f   libucrt:peb_access.obj
 0001:0005a498       __acrt_is_secure_process   000000018005b498 f   libucrt:peb_access.obj
 0001:0005a4b0       __acrt_get_process_end_policy 000000018005b4b0 f   libucrt:win_policies.obj
 0001:0005a4f4       ??$__acrt_convert_wcs_mbs_cp@D_WV<lambda_7c9dea7b4ca7285d2cdb541a38da6275>@@U__crt_win32_buffer_internal_dynamic_resizing@@@@YAHQEBDAEAV?$__crt_win32_buffer@_WU__crt_win32_buffer_internal_dynamic_resizing@@@@AEBV<lambda_7c9dea7b4ca7285d2cdb541a38da6275>@@I@Z 000000018005b4f4 f i libucrt:argv_wildcards.obj
 0001:0005a670       ??$__acrt_convert_wcs_mbs_cp@_WDV<lambda_d8593a27d1aa8c02be35c86a17d324c4>@@U__crt_win32_buffer_internal_dynamic_resizing@@@@YAHQEB_WAEAV?$__crt_win32_buffer@DU__crt_win32_buffer_internal_dynamic_resizing@@@@AEBV<lambda_d8593a27d1aa8c02be35c86a17d324c4>@@I@Z 000000018005b670 f i libucrt:argv_wildcards.obj
 0001:0005af14       __acrt_expand_narrow_argv_wildcards 000000018005bf14 f   libucrt:argv_wildcards.obj
 0001:0005af1c       ??$__acrt_convert_wcs_mbs_cp@_WDV<lambda_f788ae46380686e8b737efdd8c720d07>@@U__crt_win32_buffer_no_resizing@@@@YAHQEB_WAEAV?$__crt_win32_buffer@DU__crt_win32_buffer_no_resizing@@@@AEBV<lambda_f788ae46380686e8b737efdd8c720d07>@@I@Z 000000018005bf1c f i libucrt:getmodulefilenamea.obj
 0001:0005b038       __acrt_GetModuleFileNameA  000000018005c038 f   libucrt:getmodulefilenamea.obj
 0001:0005b954       __acrt_initialize_multibyte 000000018005c954 f   libucrt:mbctype.obj
 0001:0005b9b4       __acrt_update_thread_multibyte_data 000000018005c9b4 f   libucrt:mbctype.obj
 0001:0005b9d0       _setmbcp_nolock            000000018005c9d0 f   libucrt:mbctype.obj
 0001:0005bd04       _ismbblead                 000000018005cd04 f   libucrt:ismbbyte.obj
 0001:0005bd18       __acrt_initialize_command_line 000000018005cd18 f   libucrt:argv_data.obj
 0001:0005bd40       __acrt_MultiByteToWideChar 000000018005cd40 f   libucrt:multibytetowidechar.obj
 0001:0005bdd0       __acrt_WideCharToMultiByte 000000018005cdd0 f   libucrt:widechartomultibyte.obj
 0001:0005beb0       __dcrt_get_narrow_environment_from_os 000000018005ceb0 f   libucrt:get_environment_from_os.obj
 0001:0005bfc0       _recalloc_base             000000018005cfc0 f   libucrt:recalloc.obj
 0001:0005c058       __acrt_initialize_heap     000000018005d058 f   libucrt:heap_handle.obj
 0001:0005c074       __acrt_uninitialize_heap   000000018005d074 f   libucrt:heap_handle.obj
 0001:0005c080       __acrt_execute_initializers 000000018005d080 f   libucrt:shared_initialization.obj
 0001:0005c114       __acrt_execute_uninitializers 000000018005d114 f   libucrt:shared_initialization.obj
 0001:0005c1a4       __acrt_get_sigabrt_handler 000000018005d1a4 f   libucrt:signal.obj
 0001:0005c1d4       __acrt_initialize_signal_handlers 000000018005d1d4 f   libucrt:signal.obj
 0001:0005c1f4       raise                      000000018005d1f4 f   libucrt:signal.obj
 0001:0005c470       __acrt_has_user_matherr    000000018005d470 f   libucrt:matherr.obj
 0001:0005c490       __acrt_initialize_user_matherr 000000018005d490 f   libucrt:matherr.obj
 0001:0005c498       __acrt_invoke_user_matherr 000000018005d498 f   libucrt:matherr.obj
 0001:0005c4d4       __acrt_add_locale_ref      000000018005d4d4 f   libucrt:locale_refcounting.obj
 0001:0005c560       __acrt_free_locale         000000018005d560 f   libucrt:locale_refcounting.obj
 0001:0005c6d8       __acrt_locale_add_lc_time_reference 000000018005d6d8 f   libucrt:locale_refcounting.obj
 0001:0005c700       __acrt_locale_free_lc_time_if_unreferenced 000000018005d700 f   libucrt:locale_refcounting.obj
 0001:0005c738       __acrt_locale_release_lc_time_reference 000000018005d738 f   libucrt:locale_refcounting.obj
 0001:0005c760       __acrt_release_locale_ref  000000018005d760 f   libucrt:locale_refcounting.obj
 0001:0005c808       __acrt_update_thread_locale_data 000000018005d808 f   libucrt:locale_refcounting.obj
 0001:0005c878       _updatetlocinfoEx_nolock   000000018005d878 f   libucrt:locale_refcounting.obj
 0001:0005c8e0       __acrt_locale_free_monetary 000000018005d8e0 f   libucrt:initmon.obj
 0001:0005c9ec       __acrt_locale_free_numeric 000000018005d9ec f   libucrt:initnum.obj
 0001:0005ca8c       __acrt_locale_free_time    000000018005da8c f   libucrt:inittime.obj
 0001:0005cb94       __acrt_GetStringTypeA      000000018005db94 f   libucrt:getstringtypea.obj
 0001:0005cd24       __strncnt                  000000018005dd24 f   libucrt:strncnt.obj
 0001:0005cd3c       __acrt_lowio_create_handle_array 000000018005dd3c f   libucrt:osfinfo.obj
 0001:0005cde4       __acrt_lowio_destroy_handle_array 000000018005dde4 f   libucrt:osfinfo.obj
 0001:0005ce34       __acrt_lowio_ensure_fh_exists 000000018005de34 f   libucrt:osfinfo.obj
 0001:0005cedc       __acrt_lowio_lock_fh       000000018005dedc f   libucrt:osfinfo.obj
 0001:0005cf04       __acrt_lowio_set_os_handle 000000018005df04 f   libucrt:osfinfo.obj
 0001:0005cfc4       __acrt_lowio_unlock_fh     000000018005dfc4 f   libucrt:osfinfo.obj
 0001:0005cfec       _alloc_osfhnd              000000018005dfec f   libucrt:osfinfo.obj
 0001:0005d12c       _free_osfhnd               000000018005e12c f   libucrt:osfinfo.obj
 0001:0005d1e8       _get_osfhandle             000000018005e1e8 f   libucrt:osfinfo.obj
 0001:0005d260       _isatty                    000000018005e260 f   libucrt:isatty.obj
 0001:0005d2c0       _query_new_mode            000000018005e2c0 f   libucrt:new_mode.obj
 0001:0005d2c8       __acrt_DownlevelLocaleNameToLCID 000000018005e2c8 f   libucrt:lcidtoname_downlevel.obj
 0001:0005d36c       ?__mbrtowc_utf8@__crt_mbstring@@YA_KPEA_WPEBD_KPEAU_Mbstatet@@AEAV__crt_cached_ptd_host@@@Z 000000018005e36c f   libucrt:mbrtowc.obj
 0001:0005d3b0       ?__mbsrtowcs_utf8@__crt_mbstring@@YA_KPEA_WPEAPEBD_KPEAU_Mbstatet@@AEAV__crt_cached_ptd_host@@@Z 000000018005e3b0 f   libucrt:mbrtowc.obj
 0001:0005d554       _putwch_nolock             000000018005e554 f   libucrt:putwch.obj
 0001:0005d590       __acrt_stdio_allocate_buffer_nolock 000000018005e590 f   libucrt:_getbuf.obj
 0001:0005d5fc       __ascii_wcsnicmp           000000018005e5fc f   libucrt:wcsnicmp.obj
 0001:0005d648       _wcsnicmp                  000000018005e648 f   libucrt:wcsnicmp.obj
 0001:0005d690       _wcsnicmp_l                000000018005e690 f   libucrt:wcsnicmp.obj
 0001:0005d7e4       __ascii_strnicmp           000000018005e7e4 f   libucrt:strnicmp.obj
 0001:0005d830       _strnicmp                  000000018005e830 f   libucrt:strnicmp.obj
 0001:0005d880       _strnicmp_l                000000018005e880 f   libucrt:strnicmp.obj
 0001:0005e004       _sopen_nolock              000000018005f004 f   libucrt:open.obj
 0001:0005e120       _sopen_s                   000000018005f120 f   libucrt:open.obj
 0001:0005e154       _wsopen_nolock             000000018005f154 f   libucrt:open.obj
 0001:0005e544       _wsopen_s                  000000018005f544 f   libucrt:open.obj
 0001:0005e648       __acrt_fp_strflt_to_string 000000018005f648 f   libucrt:_fptostr.obj
 0001:0005e758       __acrt_fltout              000000018005f758 f   libucrt:cfout.obj
 0001:0005f9e8       ?__c32rtomb_utf8@__crt_mbstring@@YA_KPEAD_UPEAU_Mbstatet@@AEAV__crt_cached_ptd_host@@@Z 00000001800609e8 f   libucrt:c32rtomb.obj
 0001:0005fa8c       __acrt_fenv_get_common_round_control 0000000180060a8c f   libucrt:_fenvutils.obj
 0001:0005fa98       __acrt_fenv_get_control    0000000180060a98 f   libucrt:_fenvutils.obj
 0001:0005fb7c       __acrt_fenv_get_status     0000000180060b7c f   libucrt:_fenvutils.obj
 0001:0005fbd4       __acrt_fenv_set_control    0000000180060bd4 f   libucrt:_fenvutils.obj
 0001:0005fd0c       __acrt_fenv_set_status     0000000180060d0c f   libucrt:_fenvutils.obj
 0001:0005fd80       strncpy_s                  0000000180060d80 f   libucrt:strncpy_s.obj
 0001:0005ff10       strpbrk                    0000000180060f10 f   libucrt:strpbrk.obj
 0001:000602d8       _mbsdec                    00000001800612d8 f   libucrt:mbsdec.obj
 0001:000602e0       _mbsdec_l                  00000001800612e0 f   libucrt:mbsdec.obj
 0001:0006038c       _msize_base                000000018006138c f   libucrt:msize.obj
 0001:000603c8       _realloc_base              00000001800613c8 f   libucrt:realloc_base.obj
 0001:00060444       _query_app_type            0000000180061444 f   libucrt:report_runtime_error.obj
 0001:0006044c       ?__mbrtoc32_utf8@__crt_mbstring@@YA_KPEA_UPEBD_KPEAU_Mbstatet@@AEAV__crt_cached_ptd_host@@@Z 000000018006144c f   libucrt:mbrtoc32.obj
 0001:00060628       __dcrt_lowio_ensure_console_output_initialized 0000000180061628 f   libucrt:initcon.obj
 0001:0006067c       __dcrt_terminate_console_output 000000018006167c f   libucrt:initcon.obj
 0001:00060698       __dcrt_write_console       0000000180061698 f   libucrt:initcon.obj
 0001:00060758       _towlower_l                0000000180061758 f   libucrt:towlower.obj
 0001:0006084c       _get_fmode                 000000018006184c f   libucrt:setmode.obj
 0001:0006087c       _setmode_nolock            000000018006187c f   libucrt:setmode.obj
 0001:00060960       _chsize_nolock             0000000180061960 f   libucrt:chsize.obj
 0001:000609f8       _chsize_nolock_internal    00000001800619f8 f   libucrt:chsize.obj
 0001:00060b8c       _controlfp_s               0000000180061b8c f   libucrt:contrlfp.obj
 0001:00060bf0       fegetenv                   0000000180061bf0 f   libucrt:fegetenv.obj
 0001:00060c10       fesetenv                   0000000180061c10 f   libucrt:fesetenv.obj
 0001:00060c68       feholdexcept               0000000180061c68 f   libucrt:feholdexcept.obj
 0001:00060cb8       ceil                       0000000180061cb8 f   libucrt:ceil.obj
 0001:00060d80       log10                      0000000180061d80 f   libucrt:log10.obj
 0001:0006132c       ?reset_and_return@__crt_mbstring@@YA_K_KPEAU_Mbstatet@@@Z 000000018006232c f   libucrt:common_utf8.obj
 0001:00061334       ?return_illegal_sequence@__crt_mbstring@@YA_KPEAU_Mbstatet@@AEAV__crt_cached_ptd_host@@@Z 0000000180062334 f   libucrt:common_utf8.obj
 0001:00061348       __acrt_LCMapStringW        0000000180062348 f   libucrt:lcmapstringw.obj
 0001:000613d0       __acrt_initialize_fmode    00000001800623d0 f   libucrt:txtmode.obj
 0001:000613ec       _clearfp                   00000001800623ec f   libucrt:ieee.obj
 0001:00061458       _control87                 0000000180062458 f   libucrt:ieee.obj
 0001:00061820       _handle_error              0000000180062820 f   libucrt:libm_error.obj
 0001:00061948       _handle_errorf             0000000180062948 f   libucrt:libm_error.obj
 0001:00061a7c       _handle_nan                0000000180062a7c f   libucrt:libm_error.obj
 0001:00061a98       _handle_nanf               0000000180062a98 f   libucrt:libm_error.obj
 0001:00061ab0       __acrt_initialize_fma3     0000000180062ab0 f   libucrt:fma3_available.obj
 0001:00061b20       _log10_special             0000000180062b20 f   libucrt:log_special.obj
 0001:00061bf0       _get_fpsr                  0000000180062bf0 f   libucrt:fpsr.obj
 0001:00061c00       _set_fpsr                  0000000180062c00 f   libucrt:fpsr.obj
 0001:00061c0a       _fclrf                     0000000180062c0a f   libucrt:fpsr.obj
 0001:00061c1e       _frnd                      0000000180062c1e f   libucrt:fpsr.obj
 0001:00061c40       _raise_exc                 0000000180062c40 f   libucrt:fpexcept.obj
 0001:00061c68       _raise_exc_ex              0000000180062c68 f   libucrt:fpexcept.obj
 0001:00061f70       _raise_excf                0000000180062f70 f   libucrt:fpexcept.obj
 0001:00061f9c       _set_errno_from_matherr    0000000180062f9c f   libucrt:fpexcept.obj
 0001:00061fcc       _clrfp                     0000000180062fcc f   libucrt:fpctrl.obj
 0001:00061fec       _ctrlfp                    0000000180062fec f   libucrt:fpctrl.obj
 0001:00062068       _set_statfp                0000000180063068 f   libucrt:fpctrl.obj
 0001:00062088       _statfp                    0000000180063088 f   libucrt:fpctrl.obj
 0001:000620a0       _FindPESection             00000001800630a0 f   LIBCMT:pesect.obj
 0001:000620f0       _IsNonwritableInCurrentImage 00000001800630f0 f   LIBCMT:pesect.obj
 0001:00062140       _ValidateImageBase         0000000180063140 f   LIBCMT:pesect.obj
 0001:0006216c       __GSHandlerCheck_SEH       000000018006316c f   LIBCMT:gshandlerseh.obj
 0001:00062210       __chkstk                   0000000180063210 f   LIBCMT:chkstk.obj
 0001:00062210       _alloca_probe              0000000180063210 f   LIBCMT:chkstk.obj
 0001:00062260       __GSHandlerCheck_EH        0000000180063260 f   LIBCMT:gshandlereh.obj
 0001:000622e0       __C_specific_handler_noexcept 00000001800632e0 f   libvcruntime:chandler_noexcept.obj
 0001:00062330       strrchr                    0000000180063330 f   libvcruntime:strrchr.obj
 0001:00062468       __GSHandlerCheck_EH4       0000000180063468 f   LIBCMT:gshandlereh4.obj
 0001:000624f0       atan2f                     00000001800634f0 f   libucrt:atan2f.obj
 0001:000628e8       ceilf                      00000001800638e8 f   libucrt:ceilf.obj
 0001:00062970       cosf                       0000000180063970 f   libucrt:cosf.obj
 0001:00062e70       floorf                     0000000180063e70 f   libucrt:floorf.obj
 0001:00062eec       fmodf                      0000000180063eec f   libucrt:fmodf.obj
 0001:00063140       pow                        0000000180064140 f   libucrt:pow.obj
 0001:000647e0       powf                       00000001800657e0 f   libucrt:powf.obj
 0001:000656b0       sinf                       00000001800666b0 f   libucrt:sinf.obj
 0001:00065da8       sqrt                       0000000180066da8 f   libucrt:sqrt.obj
 0001:00065e74       sqrtf                      0000000180066e74 f   libucrt:sqrtf.obj
 0001:00065f30       strcmp                     0000000180066f30 f   libucrt:strcmp.obj
 0001:00065fa0       __remainder_piby2d2f_forAsm 0000000180066fa0 f   libucrt:remainder_piby2f_forasm.obj
 0001:000660f0       __remainder_piby2_fma3     00000001800670f0 f   libucrt:remainder_piby2_forfma3.obj
 0001:000662e0       __remainder_piby2_fma3_bdl 00000001800672e0 f   libucrt:remainder_piby2_forfma3.obj
 0001:00066358       _cosf_special              0000000180067358 f   libucrt:sincos_special.obj
 0001:000663f8       _sinf_special              00000001800673f8 f   libucrt:sincos_special.obj
 0001:00066410       _pow_special               0000000180067410 f   libucrt:pow_special.obj
 0001:00066544       _powf_special              0000000180067544 f   libucrt:pow_special.obj
 0001:000666c0       __remainder_piby2d2f_forC  00000001800676c0 f   libucrt:remainder_piby2f_forc.obj
 0001:00066860       _guard_dispatch_icall_nop  0000000180067860 f   LIBCMT:guard_dispatch.obj
 0001:00066880       _guard_xfg_dispatch_icall_nop 0000000180067880 f   LIBCMT:guard_xfg_dispatch.obj
 0001:000668b0       memset_repstos             00000001800678b0 f   libvcruntime:memset.obj
 0001:000668c0       memset                     00000001800678c0 f   libvcruntime:memset.obj
 0001:00066c70       memcpy_repmovs             0000000180067c70 f   libvcruntime:memcpy.obj
 0001:00066c80       memcpy                     0000000180067c80 f   libvcruntime:memcpy.obj
 0001:00066c80       memcpy_$fo_default$        0000000180067c80     libvcruntime:memcpy.obj
 0001:00066c80       memmove                    0000000180067c80 f   libvcruntime:memcpy.obj
 0001:00067300       memcmp                     0000000180068300 f   libvcruntime:memcmp.obj
 0001:000673e0       memchr                     00000001800683e0 f   libvcruntime:memchr.obj
 0002:00000000       __imp_D3DCompile           000000018006a000     d3dcompiler:D3DCOMPILER_47.dll
 0002:00000008       \177D3DCOMPILER_47_NULL_THUNK_DATA 000000018006a008     d3dcompiler:D3DCOMPILER_47.dll
 0002:00000010       __imp_ImmReleaseContext    000000018006a010     imm32:IMM32.dll
 0002:00000018       __imp_ImmSetCompositionWindow 000000018006a018     imm32:IMM32.dll
 0002:00000020       __imp_ImmGetContext        000000018006a020     imm32:IMM32.dll
 0002:00000028       \177IMM32_NULL_THUNK_DATA  000000018006a028     imm32:IMM32.dll
 0002:00000030       __imp_GlobalUnlock         000000018006a030     kernel32:KERNEL32.dll
 0002:00000038       __imp_QueryPerformanceFrequency 000000018006a038     kernel32:KERNEL32.dll
 0002:00000040       __imp_QueryPerformanceCounter 000000018006a040     kernel32:KERNEL32.dll
 0002:00000048       __imp_AllocConsole         000000018006a048     kernel32:KERNEL32.dll
 0002:00000050       __imp_SetEndOfFile         000000018006a050     kernel32:KERNEL32.dll
 0002:00000058       __imp_WriteConsoleW        000000018006a058     kernel32:KERNEL32.dll
 0002:00000060       __imp_HeapReAlloc          000000018006a060     kernel32:KERNEL32.dll
 0002:00000068       __imp_HeapSize             000000018006a068     kernel32:KERNEL32.dll
 0002:00000070       __imp_CreateFileW          000000018006a070     kernel32:KERNEL32.dll
 0002:00000078       __imp_SetStdHandle         000000018006a078     kernel32:KERNEL32.dll
 0002:00000080       __imp_GetStringTypeW       000000018006a080     kernel32:KERNEL32.dll
 0002:00000088       __imp_GetProcessHeap       000000018006a088     kernel32:KERNEL32.dll
 0002:00000090       __imp_GlobalLock           000000018006a090     kernel32:KERNEL32.dll
 0002:00000098       __imp_FreeEnvironmentStringsW 000000018006a098     kernel32:KERNEL32.dll
 0002:000000a0       __imp_GetEnvironmentStringsW 000000018006a0a0     kernel32:KERNEL32.dll
 0002:000000a8       __imp_WideCharToMultiByte  000000018006a0a8     kernel32:KERNEL32.dll
 0002:000000b0       __imp_MultiByteToWideChar  000000018006a0b0     kernel32:KERNEL32.dll
 0002:000000b8       __imp_GetCommandLineW      000000018006a0b8     kernel32:KERNEL32.dll
 0002:000000c0       __imp_GetCommandLineA      000000018006a0c0     kernel32:KERNEL32.dll
 0002:000000c8       __imp_GetCPInfo            000000018006a0c8     kernel32:KERNEL32.dll
 0002:000000d0       __imp_GetOEMCP             000000018006a0d0     kernel32:KERNEL32.dll
 0002:000000d8       __imp_GetACP               000000018006a0d8     kernel32:KERNEL32.dll
 0002:000000e0       __imp_IsValidCodePage      000000018006a0e0     kernel32:KERNEL32.dll
 0002:000000e8       __imp_FindNextFileW        000000018006a0e8     kernel32:KERNEL32.dll
 0002:000000f0       __imp_FindFirstFileExW     000000018006a0f0     kernel32:KERNEL32.dll
 0002:000000f8       __imp_FindClose            000000018006a0f8     kernel32:KERNEL32.dll
 0002:00000100       __imp_GetFileSizeEx        000000018006a100     kernel32:KERNEL32.dll
 0002:00000108       __imp_GlobalFree           000000018006a108     kernel32:KERNEL32.dll
 0002:00000110       __imp_GlobalAlloc          000000018006a110     kernel32:KERNEL32.dll
 0002:00000118       __imp_VirtualQuery         000000018006a118     kernel32:KERNEL32.dll
 0002:00000120       __imp_GetCurrentThread     000000018006a120     kernel32:KERNEL32.dll
 0002:00000128       __imp_GetModuleHandleA     000000018006a128     kernel32:KERNEL32.dll
 0002:00000130       __imp_GetCurrentThreadId   000000018006a130     kernel32:KERNEL32.dll
 0002:00000138       __imp_VirtualProtect       000000018006a138     kernel32:KERNEL32.dll
 0002:00000140       __imp_ResumeThread         000000018006a140     kernel32:KERNEL32.dll
 0002:00000148       __imp_FlushInstructionCache 000000018006a148     kernel32:KERNEL32.dll
 0002:00000150       __imp_GetCurrentProcess    000000018006a150     kernel32:KERNEL32.dll
 0002:00000158       __imp_SetThreadContext     000000018006a158     kernel32:KERNEL32.dll
 0002:00000160       __imp_GetThreadContext     000000018006a160     kernel32:KERNEL32.dll
 0002:00000168       __imp_VirtualFree          000000018006a168     kernel32:KERNEL32.dll
 0002:00000170       __imp_GetLastError         000000018006a170     kernel32:KERNEL32.dll
 0002:00000178       __imp_SuspendThread        000000018006a178     kernel32:KERNEL32.dll
 0002:00000180       __imp_VirtualAlloc         000000018006a180     kernel32:KERNEL32.dll
 0002:00000188       __imp_SetLastError         000000018006a188     kernel32:KERNEL32.dll
 0002:00000190       __imp_GetSystemTimeAsFileTime 000000018006a190     kernel32:KERNEL32.dll
 0002:00000198       __imp_GetModuleHandleW     000000018006a198     kernel32:KERNEL32.dll
 0002:000001a0       __imp_GetProcAddress       000000018006a1a0     kernel32:KERNEL32.dll
 0002:000001a8       __imp_ReleaseSRWLockExclusive 000000018006a1a8     kernel32:KERNEL32.dll
 0002:000001b0       __imp_AcquireSRWLockExclusive 000000018006a1b0     kernel32:KERNEL32.dll
 0002:000001b8       __imp_WakeAllConditionVariable 000000018006a1b8     kernel32:KERNEL32.dll
 0002:000001c0       __imp_SleepConditionVariableSRW 000000018006a1c0     kernel32:KERNEL32.dll
 0002:000001c8       __imp_RtlCaptureContext    000000018006a1c8     kernel32:KERNEL32.dll
 0002:000001d0       __imp_RtlLookupFunctionEntry 000000018006a1d0     kernel32:KERNEL32.dll
 0002:000001d8       __imp_RtlVirtualUnwind     000000018006a1d8     kernel32:KERNEL32.dll
 0002:000001e0       __imp_UnhandledExceptionFilter 000000018006a1e0     kernel32:KERNEL32.dll
 0002:000001e8       __imp_SetUnhandledExceptionFilter 000000018006a1e8     kernel32:KERNEL32.dll
 0002:000001f0       __imp_TerminateProcess     000000018006a1f0     kernel32:KERNEL32.dll
 0002:000001f8       __imp_IsProcessorFeaturePresent 000000018006a1f8     kernel32:KERNEL32.dll
 0002:00000200       __imp_IsDebuggerPresent    000000018006a200     kernel32:KERNEL32.dll
 0002:00000208       __imp_GetStartupInfoW      000000018006a208     kernel32:KERNEL32.dll
 0002:00000210       __imp_GetCurrentProcessId  000000018006a210     kernel32:KERNEL32.dll
 0002:00000218       __imp_InitializeSListHead  000000018006a218     kernel32:KERNEL32.dll
 0002:00000220       __imp_RtlUnwindEx          000000018006a220     kernel32:KERNEL32.dll
 0002:00000228       __imp_RtlPcToFileHeader    000000018006a228     kernel32:KERNEL32.dll
 0002:00000230       __imp_RaiseException       000000018006a230     kernel32:KERNEL32.dll
 0002:00000238       __imp_InterlockedFlushSList 000000018006a238     kernel32:KERNEL32.dll
 0002:00000240       __imp_EncodePointer        000000018006a240     kernel32:KERNEL32.dll
 0002:00000248       __imp_EnterCriticalSection 000000018006a248     kernel32:KERNEL32.dll
 0002:00000250       __imp_LeaveCriticalSection 000000018006a250     kernel32:KERNEL32.dll
 0002:00000258       __imp_DeleteCriticalSection 000000018006a258     kernel32:KERNEL32.dll
 0002:00000260       __imp_InitializeCriticalSectionAndSpinCount 000000018006a260     kernel32:KERNEL32.dll
 0002:00000268       __imp_TlsAlloc             000000018006a268     kernel32:KERNEL32.dll
 0002:00000270       __imp_TlsGetValue          000000018006a270     kernel32:KERNEL32.dll
 0002:00000278       __imp_TlsSetValue          000000018006a278     kernel32:KERNEL32.dll
 0002:00000280       __imp_TlsFree              000000018006a280     kernel32:KERNEL32.dll
 0002:00000288       __imp_FreeLibrary          000000018006a288     kernel32:KERNEL32.dll
 0002:00000290       __imp_LoadLibraryExW       000000018006a290     kernel32:KERNEL32.dll
 0002:00000298       __imp_ReadFile             000000018006a298     kernel32:KERNEL32.dll
 0002:000002a0       __imp_ExitProcess          000000018006a2a0     kernel32:KERNEL32.dll
 0002:000002a8       __imp_GetModuleHandleExW   000000018006a2a8     kernel32:KERNEL32.dll
 0002:000002b0       __imp_GetModuleFileNameW   000000018006a2b0     kernel32:KERNEL32.dll
 0002:000002b8       __imp_SetFilePointerEx     000000018006a2b8     kernel32:KERNEL32.dll
 0002:000002c0       __imp_GetConsoleMode       000000018006a2c0     kernel32:KERNEL32.dll
 0002:000002c8       __imp_ReadConsoleW         000000018006a2c8     kernel32:KERNEL32.dll
 0002:000002d0       __imp_GetStdHandle         000000018006a2d0     kernel32:KERNEL32.dll
 0002:000002d8       __imp_GetFileType          000000018006a2d8     kernel32:KERNEL32.dll
 0002:000002e0       __imp_HeapAlloc            000000018006a2e0     kernel32:KERNEL32.dll
 0002:000002e8       __imp_HeapFree             000000018006a2e8     kernel32:KERNEL32.dll
 0002:000002f0       __imp_FlsAlloc             000000018006a2f0     kernel32:KERNEL32.dll
 0002:000002f8       __imp_FlsGetValue          000000018006a2f8     kernel32:KERNEL32.dll
 0002:00000300       __imp_FlsSetValue          000000018006a300     kernel32:KERNEL32.dll
 0002:00000308       __imp_FlsFree              000000018006a308     kernel32:KERNEL32.dll
 0002:00000310       __imp_LCMapStringW         000000018006a310     kernel32:KERNEL32.dll
 0002:00000318       __imp_FlushFileBuffers     000000018006a318     kernel32:KERNEL32.dll
 0002:00000320       __imp_WriteFile            000000018006a320     kernel32:KERNEL32.dll
 0002:00000328       __imp_GetConsoleOutputCP   000000018006a328     kernel32:KERNEL32.dll
 0002:00000330       __imp_CloseHandle          000000018006a330     kernel32:KERNEL32.dll
 0002:00000338       \177KERNEL32_NULL_THUNK_DATA 000000018006a338     kernel32:KERNEL32.dll
 0002:00000340       __imp_LoadCursorA          000000018006a340     user32:USER32.dll
 0002:00000348       __imp_ScreenToClient       000000018006a348     user32:USER32.dll
 0002:00000350       __imp_GetCapture           000000018006a350     user32:USER32.dll
 0002:00000358       __imp_ClientToScreen       000000018006a358     user32:USER32.dll
 0002:00000360       __imp_IsChild              000000018006a360     user32:USER32.dll
 0002:00000368       __imp_GetForegroundWindow  000000018006a368     user32:USER32.dll
 0002:00000370       __imp_SetCapture           000000018006a370     user32:USER32.dll
 0002:00000378       __imp_SetCursor            000000018006a378     user32:USER32.dll
 0002:00000380       __imp_GetClientRect        000000018006a380     user32:USER32.dll
 0002:00000388       __imp_ReleaseCapture       000000018006a388     user32:USER32.dll
 0002:00000390       __imp_GetKeyState          000000018006a390     user32:USER32.dll
 0002:00000398       __imp_GetCursorPos         000000018006a398     user32:USER32.dll
 0002:000003a0       __imp_OpenClipboard        000000018006a3a0     user32:USER32.dll
 0002:000003a8       __imp_CloseClipboard       000000018006a3a8     user32:USER32.dll
 0002:000003b0       __imp_EmptyClipboard       000000018006a3b0     user32:USER32.dll
 0002:000003b8       __imp_GetClipboardData     000000018006a3b8     user32:USER32.dll
 0002:000003c0       __imp_SetClipboardData     000000018006a3c0     user32:USER32.dll
 0002:000003c8       __imp_CallWindowProcA      000000018006a3c8     user32:USER32.dll
 0002:000003d0       __imp_SetWindowLongPtrA    000000018006a3d0     user32:USER32.dll
 0002:000003d8       __imp_mouse_event          000000018006a3d8     user32:USER32.dll
 0002:000003e0       __imp_GetAsyncKeyState     000000018006a3e0     user32:USER32.dll
 0002:000003e8       __imp_SendInput            000000018006a3e8     user32:USER32.dll
 0002:000003f0       __imp_SetCursorPos         000000018006a3f0     user32:USER32.dll
 0002:000003f8       \177USER32_NULL_THUNK_DATA 000000018006a3f8     user32:USER32.dll
 0002:00000400       __guard_check_icall_fptr   000000018006a400     LIBCMT:guard_support.obj
 0002:00000408       __guard_xfg_check_icall_fptr 000000018006a408     LIBCMT:guard_support.obj
 0002:00000410       __guard_dispatch_icall_fptr 000000018006a410     LIBCMT:guard_support.obj
 0002:00000418       __guard_xfg_dispatch_icall_fptr 000000018006a418     LIBCMT:guard_support.obj
 0002:00000420       __guard_xfg_table_dispatch_icall_fptr 000000018006a420     LIBCMT:guard_support.obj
 0002:00000428       __castguard_check_failure_os_handled_fptr 000000018006a428     LIBCMT:guard_support.obj
 0002:00000430       __guard_memcpy_fptr        000000018006a430     libvcruntime:softmemtag.obj
 0002:00000438       __xc_a                     000000018006a438     LIBCMT:initializers.obj
 0002:00000500       __xc_z                     000000018006a500     LIBCMT:initializers.obj
 0002:00000508       __xi_a                     000000018006a508     LIBCMT:initializers.obj
 0002:00000518       __acrt_stdio_initializer   000000018006a518     libucrt:stdio_initializer.obj
 0002:00000520       __acrt_multibyte_initializer 000000018006a520     libucrt:multibyte_initializer.obj
 0002:00000528       __acrt_fmode_initializer   000000018006a528     libucrt:fmode_initializer.obj
 0002:00000530       __acrt_tran_fma3_initializer 000000018006a530     libucrt:fma3_initializer.obj
 0002:00000538       __xi_z                     000000018006a538     LIBCMT:initializers.obj
 0002:00000540       __xl_a                     000000018006a540     LIBCMT:tlssup.obj
 0002:00000548       __xl_z                     000000018006a548     LIBCMT:tlssup.obj
 0002:00000550       __xp_a                     000000018006a550     LIBCMT:initializers.obj
 0002:00000558       __acrt_locale_terminator   000000018006a558     libucrt:locale_initializer.obj
 0002:00000560       __dcrt_console_output_terminator 000000018006a560     libucrt:console_output_initializer.obj
 0002:00000568       __acrt_stdio_terminator    000000018006a568     libucrt:stdio_initializer.obj
 0002:00000570       __xp_z                     000000018006a570     LIBCMT:initializers.obj
 0002:00000578       __xt_a                     000000018006a578     LIBCMT:initializers.obj
 0002:00000580       __xt_z                     000000018006a580     LIBCMT:initializers.obj
 0002:00000590       ?s_rbModRm@CDetourDis@@1QBEB 000000018006a590     detours:disasm.obj
 0002:00000690       ?s_rceCopyTable@CDetourDis@@1QBUCOPYENTRY@1@B 000000018006a690     detours:disasm.obj
 0002:000016a0       ?s_rceCopyTable0F@CDetourDis@@1QBUCOPYENTRY@1@B 000000018006b6a0     detours:disasm.obj
 0002:000026b8       ??_7exception@std@@6B@     000000018006c6b8     libcpmt:xthrow.obj
 0002:000026d0       ??_7bad_alloc@std@@6B@     000000018006c6d0     libcpmt:xthrow.obj
 0002:000026e0       ??_C@_0P@GHFPNOJB@bad?5allocation@ 000000018006c6e0     libcpmt:xthrow.obj
 0002:000026f8       ??_7logic_error@std@@6B@   000000018006c6f8     libcpmt:xthrow.obj
 0002:00002710       ??_7length_error@std@@6B@  000000018006c710     libcpmt:xthrow.obj
 0002:00002728       ??_7out_of_range@std@@6B@  000000018006c728     libcpmt:xthrow.obj
 0002:00002738       ??_C@_1BK@MGMFAEKH@?$AAk?$AAe?$AAr?$AAn?$AAe?$AAl?$AA3?$AA2?$AA?4?$AAd?$AAl?$AAl@ 000000018006c738     libcpmt:winapisupp.obj
 0002:00002758       ??_C@_0BE@JOGNEJCI@GetCurrentPackageId@ 000000018006c758     libcpmt:winapisupp.obj
 0002:00002770       ??_C@_0BP@FPNJPEJC@GetSystemTimePreciseAsFileTime@ 000000018006c770     libcpmt:winapisupp.obj
 0002:00002790       ??_C@_0O@NNMIPI@GetTempPath2W@ 000000018006c790     libcpmt:winapisupp.obj
 0002:000027a0       __xmm@ffffffffffffffffffffffffffffffff 000000018006c7a0     LIBCMT:utility.obj
 0002:000027b8       ??_7type_info@@6B@         000000018006c7b8     LIBCMT:std_type_info_static.obj
 0002:000027d0       _pDefaultRawDllMain        000000018006c7d0     LIBCMT:dll_dllmain.obj
 0002:000027d0       _pRawDllMain               000000018006c7d0     LIBCMT:dll_dllmain.obj
 0002:000027e0       ??_7bad_array_new_length@std@@6B@ 000000018006c7e0     LIBCMT:throw_bad_alloc.obj
 0002:000027f0       ?s_negLengthTab@FH4@@3QBCB 000000018006c7f0     libvcruntime:risctrnsctrl.obj
 0002:00002800       ?s_shiftTab@FH4@@3QBEB     000000018006c800     libvcruntime:risctrnsctrl.obj
 0002:00002948       _pDestructExceptionObject  000000018006c948     libvcruntime:ehhelpers.obj
 0002:00002958       ??_7bad_exception@std@@6B@ 000000018006c958     libvcruntime:frame.obj
 0002:00002968       ??_C@_0O@DPKOEFFH@bad?5exception@ 000000018006c968     libvcruntime:frame.obj
 0002:00003090       ??_C@_08EHJDFFNH@__based?$CI@ 000000018006d090     libvcruntime:undname.obj
 0002:000030a0       ??_C@_07KOLFKCDI@__cdecl@  000000018006d0a0     libvcruntime:undname.obj
 0002:000030a8       ??_C@_08GHMPAG@__pascal@   000000018006d0a8     libvcruntime:undname.obj
 0002:000030b8       ??_C@_09IFJBGAPI@__stdcall@ 000000018006d0b8     libvcruntime:undname.obj
 0002:000030c8       ??_C@_0L@NPHFGOKO@__thiscall@ 000000018006d0c8     libvcruntime:undname.obj
 0002:000030d8       ??_C@_0L@JMKHOMEK@__fastcall@ 000000018006d0d8     libvcruntime:undname.obj
 0002:000030e8       ??_C@_0N@BCKKPABJ@__vectorcall@ 000000018006d0e8     libvcruntime:undname.obj
 0002:000030f8       ??_C@_09HIJEGCPM@__clrcall@ 000000018006d0f8     libvcruntime:undname.obj
 0002:00003104       ??_C@_06GHPCKEAG@__eabi@   000000018006d104     libvcruntime:undname.obj
 0002:00003110       ??_C@_09IOPIDJLG@__swift_1@ 000000018006d110     libvcruntime:undname.obj
 0002:00003120       ??_C@_09KFNFGKHF@__swift_2@ 000000018006d120     libvcruntime:undname.obj
 0002:00003130       ??_C@_09LMMOFLDE@__swift_3@ 000000018006d130     libvcruntime:undname.obj
 0002:00003140       ??_C@_07JOMMBBKO@__ptr64@  000000018006d140     libvcruntime:undname.obj
 0002:00003148       ??_C@_0L@PILCLIHE@__restrict@ 000000018006d148     libvcruntime:undname.obj
 0002:00003158       ??_C@_0M@GFIIJFMG@__unaligned@ 000000018006d158     libvcruntime:undname.obj
 0002:00003168       ??_C@_09DHDLOLLB@restrict?$CI@ 000000018006d168     libvcruntime:undname.obj
 0002:00003174       ??_C@_04NIHEBCM@?5new@     000000018006d174     libvcruntime:undname.obj
 0002:00003180       ??_C@_07FPCDHGMM@?5delete@ 000000018006d180     libvcruntime:undname.obj
 0002:00003188       ??_C@_01NEMOKFLO@?$DN@     000000018006d188     libvcruntime:undname.obj
 0002:0000318c       ??_C@_01DCLJPIOD@?$CB@     000000018006d18c     libvcruntime:undname.obj
 0002:00003190       ??_C@_02EGOFBIJA@?$DN?$DN@ 000000018006d190     libvcruntime:undname.obj
 0002:00003194       ??_C@_02FDNJECIE@?$CB?$DN@ 000000018006d194     libvcruntime:undname.obj
 0002:00003198       ??_C@_02GPECMEKF@?$FL?$FN@ 000000018006d198     libvcruntime:undname.obj
 0002:000031a0       ??_C@_08LHJFAFGD@operator@ 000000018006d1a0     libvcruntime:undname.obj
 0002:000031ac       ??_C@_02HBOOOICD@?9?$DO@   000000018006d1ac     libvcruntime:undname.obj
 0002:000031b0       ??_C@_02ECNGHCIF@?$CL?$CL@ 000000018006d1b0     libvcruntime:undname.obj
 0002:000031b4       ??_C@_02BAABKJLB@?9?9@     000000018006d1b4     libvcruntime:undname.obj
 0002:000031b8       ??_C@_01HNPIGOCE@?$CG@     000000018006d1b8     libvcruntime:undname.obj
 0002:000031bc       ??_C@_03MNHNFDLC@?9?$DO?$CK@ 000000018006d1bc     libvcruntime:undname.obj
 0002:000031c0       ??_C@_01KMDKNFGN@?1@       000000018006d1c0     libvcruntime:undname.obj
 0002:000031c4       ??_C@_01FGNFDNOH@?$CF@     000000018006d1c4     libvcruntime:undname.obj
 0002:000031c8       ??_C@_02EHCHHCKH@?$DM?$DN@ 000000018006d1c8     libvcruntime:undname.obj
 0002:000031cc       ??_C@_02EEKDKGMJ@?$DO?$DN@ 000000018006d1cc     libvcruntime:undname.obj
 0002:000031d0       ??_C@_01IHBHIGKO@?0@       000000018006d1d0     libvcruntime:undname.obj
 0002:000031d4       ??_C@_02HCKGKOFO@?$CI?$CJ@ 000000018006d1d4     libvcruntime:undname.obj
 0002:000031d8       ??_C@_01PJKLJHI@?$HO@      000000018006d1d8     libvcruntime:undname.obj
 0002:000031dc       ??_C@_01JKBOJNNK@?$FO@     000000018006d1dc     libvcruntime:undname.obj
 0002:000031e0       ??_C@_01DNKMNLPK@?$HM@     000000018006d1e0     libvcruntime:undname.obj
 0002:000031e4       ??_C@_02PPKAJPJL@?$CG?$CG@ 000000018006d1e4     libvcruntime:undname.obj
 0002:000031e8       ??_C@_02NONPIBCD@?$HM?$HM@ 000000018006d1e8     libvcruntime:undname.obj
 0002:000031ec       ??_C@_02FPIMKNGF@?$CK?$DN@ 000000018006d1ec     libvcruntime:undname.obj
 0002:000031f0       ??_C@_02FOEOMHFC@?$CL?$DN@ 000000018006d1f0     libvcruntime:undname.obj
 0002:000031f4       ??_C@_02FKMDLLOA@?9?$DN@   000000018006d1f4     libvcruntime:undname.obj
 0002:000031f8       ??_C@_02FJEHGPIO@?1?$DN@   000000018006d1f8     libvcruntime:undname.obj
 0002:000031fc       ??_C@_02FENAOKFI@?$CF?$DN@ 000000018006d1fc     libvcruntime:undname.obj
 0002:00003200       ??_C@_03IKFCCPFF@?$DO?$DO?$DN@ 000000018006d200     libvcruntime:undname.obj
 0002:00003204       ??_C@_03CDNPDDLA@?$DM?$DM?$DN@ 000000018006d204     libvcruntime:undname.obj
 0002:00003208       ??_C@_02FGJGFEAB@?$CG?$DN@ 000000018006d208     libvcruntime:undname.obj
 0002:0000320c       ??_C@_02DHLNPPGH@?$HM?$DN@ 000000018006d20c     libvcruntime:undname.obj
 0002:00003210       ??_C@_02MHEGNOJ@?$FO?$DN@  000000018006d210     libvcruntime:undname.obj
 0002:00003218       ??_C@_09IFPLHPGF@?$GAvftable?8@ 000000018006d218     libvcruntime:undname.obj
 0002:00003228       ??_C@_09BLBHBJP@?$GAvbtable?8@ 000000018006d228     libvcruntime:undname.obj
 0002:00003238       ??_C@_07FEEIOKP@?$GAvcall?8@ 000000018006d238     libvcruntime:undname.obj
 0002:00003240       ??_C@_08LLFFHHDJ@?$GAtypeof?8@ 000000018006d240     libvcruntime:undname.obj
 0002:00003250       ??_C@_0BF@KDPPACIK@?$GAlocal?5static?5guard?8@ 000000018006d250     libvcruntime:undname.obj
 0002:00003268       ??_C@_08OBABFOLI@?$GAstring?8@ 000000018006d268     libvcruntime:undname.obj
 0002:00003278       ??_C@_0BD@JDLKDPAB@?$GAvbase?5destructor?8@ 000000018006d278     libvcruntime:undname.obj
 0002:00003290       ??_C@_0BN@DEGPLNFK@?$GAvector?5deleting?5destructor?8@ 000000018006d290     libvcruntime:undname.obj
 0002:000032b0       ??_C@_0BO@OBMKPJIG@?$GAdefault?5constructor?5closure?8@ 000000018006d2b0     libvcruntime:undname.obj
 0002:000032d0       ??_C@_0BN@IMDCHIKM@?$GAscalar?5deleting?5destructor?8@ 000000018006d2d0     libvcruntime:undname.obj
 0002:000032f0       ??_C@_0BO@PFGOCPJJ@?$GAvector?5constructor?5iterator?8@ 000000018006d2f0     libvcruntime:undname.obj
 0002:00003310       ??_C@_0BN@LFPFMEDL@?$GAvector?5destructor?5iterator?8@ 000000018006d310     libvcruntime:undname.obj
 0002:00003330       ??_C@_0CE@IKBNEHA@?$GAvector?5vbase?5constructor?5itera@ 000000018006d330     libvcruntime:undname.obj
 0002:00003358       ??_C@_0BL@NILFHHPC@?$GAvirtual?5displacement?5map?8@ 000000018006d358     libvcruntime:undname.obj
 0002:00003378       ??_C@_0CB@JONCMFFK@?$GAeh?5vector?5constructor?5iterator@ 000000018006d378     libvcruntime:undname.obj
 0002:000033a0       ??_C@_0CA@GCEOPDGL@?$GAeh?5vector?5destructor?5iterator?8@ 000000018006d3a0     libvcruntime:undname.obj
 0002:000033c0       ??_C@_0CH@OOJPLCPH@?$GAeh?5vector?5vbase?5constructor?5it@ 000000018006d3c0     libvcruntime:undname.obj
 0002:000033e8       ??_C@_0BL@LLKPOHJI@?$GAcopy?5constructor?5closure?8@ 000000018006d3e8     libvcruntime:undname.obj
 0002:00003408       ??_C@_0BA@KBCDOMBN@?$GAudt?5returning?8@ 000000018006d408     libvcruntime:undname.obj
 0002:00003418       ??_C@_03KLGMFNMG@?$GAEH@   000000018006d418     libvcruntime:undname.obj
 0002:0000341c       ??_C@_05KHLCHHI@?$GARTTI@  000000018006d41c     libvcruntime:undname.obj
 0002:00003428       ??_C@_0BA@KKLDJDLB@?$GAlocal?5vftable?8@ 000000018006d428     libvcruntime:undname.obj
 0002:00003438       ??_C@_0CE@IIHCMGGL@?$GAlocal?5vftable?5constructor?5clos@ 000000018006d438     libvcruntime:undname.obj
 0002:0000345c       ??_C@_06FHBGPFGH@?5new?$FL?$FN@ 000000018006d45c     libvcruntime:undname.obj
 0002:00003468       ??_C@_09LBNFPBCA@?5delete?$FL?$FN@ 000000018006d468     libvcruntime:undname.obj
 0002:00003478       ??_C@_0P@HJKNJFNN@?$GAomni?5callsig?8@ 000000018006d478     libvcruntime:undname.obj
 0002:00003488       ??_C@_0BL@CNOONJFP@?$GAplacement?5delete?5closure?8@ 000000018006d488     libvcruntime:undname.obj
 0002:000034a8       ??_C@_0BN@CKNJLHMB@?$GAplacement?5delete?$FL?$FN?5closure?8@ 000000018006d4a8     libvcruntime:undname.obj
 0002:000034c8       ??_C@_0CG@CFDHKGGD@?$GAmanaged?5vector?5constructor?5ite@ 000000018006d4c8     libvcruntime:undname.obj
 0002:000034f0       ??_C@_0CF@IMGKMJNO@?$GAmanaged?5vector?5destructor?5iter@ 000000018006d4f0     libvcruntime:undname.obj
 0002:00003518       ??_C@_0CG@HLDDJMAG@?$GAeh?5vector?5copy?5constructor?5ite@ 000000018006d518     libvcruntime:undname.obj
 0002:00003540       ??_C@_0CM@FCBBDIGB@?$GAeh?5vector?5vbase?5copy?5construct@ 000000018006d540     libvcruntime:undname.obj
 0002:00003570       ??_C@_0BL@CLIPGLGB@?$GAdynamic?5initializer?5for?5?8@ 000000018006d570     libvcruntime:undname.obj
 0002:00003590       ??_C@_0CB@PDBIFEP@?$GAdynamic?5atexit?5destructor?5for?5@ 000000018006d590     libvcruntime:undname.obj
 0002:000035b8       ??_C@_0CD@CGAJBKEJ@?$GAvector?5copy?5constructor?5iterat@ 000000018006d5b8     libvcruntime:undname.obj
 0002:000035e0       ??_C@_0CJ@GJELGAMM@?$GAvector?5vbase?5copy?5constructor?5@ 000000018006d5e0     libvcruntime:undname.obj
 0002:00003610       ??_C@_0CL@FGIJHLCE@?$GAmanaged?5vector?5copy?5constructo@ 000000018006d610     libvcruntime:undname.obj
 0002:00003640       ??_C@_0BM@PMGGMLDN@?$GAlocal?5static?5thread?5guard?8@ 000000018006d640     libvcruntime:undname.obj
 0002:00003660       ??_C@_0N@BDNMDMOL@operator?5?$CC?$CC?5@ 000000018006d660     libvcruntime:undname.obj
 0002:00003670       ??_C@_0BC@GGEBGALA@operator?5co_await@ 000000018006d670     libvcruntime:undname.obj
 0002:00003688       ??_C@_0M@GAAIMMOH@operator?$DM?$DN?$DO@ 000000018006d688     libvcruntime:undname.obj
 0002:00003698       ??_C@_0BC@DAFEJGAK@?5Type?5Descriptor?8@ 000000018006d698     libvcruntime:undname.obj
 0002:000036b0       ??_C@_0BM@LDKODKLH@?5Base?5Class?5Descriptor?5at?5?$CI@ 000000018006d6b0     libvcruntime:undname.obj
 0002:000036d0       ??_C@_0BD@LGICGFMM@?5Base?5Class?5Array?8@ 000000018006d6d0     libvcruntime:undname.obj
 0002:000036e8       ??_C@_0BN@MECKDCOJ@?5Class?5Hierarchy?5Descriptor?8@ 000000018006d6e8     libvcruntime:undname.obj
 0002:00003708       ??_C@_0BK@CFCOFLF@?5Complete?5Object?5Locator?8@ 000000018006d708     libvcruntime:undname.obj
 0002:00003728       ??_C@_0BG@JNJLAMPM@?$GAanonymous?5namespace?8@ 000000018006d728     libvcruntime:undname.obj
 0002:00003758       ??_C@_1DM@KHCHBNEB@?$AAa?$AAp?$AAi?$AA?9?$AAm?$AAs?$AA?9?$AAw?$AAi?$AAn?$AA?9?$AAc?$AAo?$AAr?$AAe@ 000000018006d758     libvcruntime:winapi_downlevel.obj
 0002:00003798       ??_C@_1DK@LPPGFMPP@?$AAa?$AAp?$AAi?$AA?9?$AAm?$AAs?$AA?9?$AAw?$AAi?$AAn?$AA?9?$AAc?$AAo?$AAr?$AAe@ 000000018006d798     libvcruntime:winapi_downlevel.obj
 0002:000037d8       ??_C@_1BC@GDMECMAK@?$AAk?$AAe?$AAr?$AAn?$AAe?$AAl?$AA3?$AA2@ 000000018006d7d8     libvcruntime:winapi_downlevel.obj
 0002:000037f0       ??_C@_1BA@PFFKHIOG@?$AAa?$AAp?$AAi?$AA?9?$AAm?$AAs?$AA?9@ 000000018006d7f0     libvcruntime:winapi_downlevel.obj
 0002:00003808       ??_C@_08KNHFBNJ@FlsAlloc@  000000018006d808     libvcruntime:winapi_downlevel.obj
 0002:00003820       ??_C@_07PEJMOBNF@FlsFree@  000000018006d820     libvcruntime:winapi_downlevel.obj
 0002:00003830       ??_C@_0M@GDNOONDI@FlsGetValue@ 000000018006d830     libvcruntime:winapi_downlevel.obj
 0002:00003848       ??_C@_0M@JCPCPOEF@FlsSetValue@ 000000018006d848     libvcruntime:winapi_downlevel.obj
 0002:00003860       ??_C@_0BM@HCFOFFN@InitializeCriticalSectionEx@ 000000018006d860     libvcruntime:winapi_downlevel.obj
 0002:00003880       ?standard_lookup_table_spectre@__crt_stdio_output@@3V?$spectre_mitigated_lookup_table@Ustate_transition_pair@__crt_stdio_output@@$0IA@@1@B 000000018006d880     libucrt:output.obj
 0002:00003980       ??_C@_1O@CEDCILHN@?$AA?$CI?$AAn?$AAu?$AAl?$AAl?$AA?$CJ@ 000000018006d980     libucrt:output.obj
 0002:00003990       ??_C@_06OJHGLDPL@?$CInull?$CJ@ 000000018006d990     libucrt:output.obj
 0002:000039a0       ?large_power_data@?1??multiply_by_power_of_ten@__crt_strtox@@YA_NAEAUbig_integer@2@I@Z@4QBIB 000000018006d9a0     libucrt:input.obj
 0002:000042b0       ?large_power_indices@?1??multiply_by_power_of_ten@__crt_strtox@@YA_NAEAUbig_integer@2@I@Z@4QBUunpack_index@?1??12@YA_N0I@Z@B 000000018006e2b0     libucrt:input.obj
 0002:00004348       ?small_powers_of_ten@?1??multiply_by_power_of_ten@__crt_strtox@@YA_NAEAUbig_integer@2@I@Z@4QBIB 000000018006e348     libucrt:input.obj
 0002:00004370       ??_C@_1GE@DPGDJKLM@?$AAm?$AAi?$AAn?$AAk?$AAe?$AAr?$AAn?$AAe?$AAl?$AA?2?$AAc?$AAr?$AAt?$AAs?$AA?2@ 000000018006e370     libucrt:input.obj
 0002:000043e0       ??_C@_1FM@FELNCOBF@?$AA_?$AA_?$AAc?$AAr?$AAt?$AA_?$AAs?$AAt?$AAr?$AAt?$AAo?$AAx?$AA?3?$AA?3?$AAf@ 000000018006e3e0     libucrt:input.obj
 0002:00004440       ??_C@_1BG@GEMHBGAF@?$AA_?$AAi?$AAs?$AA_?$AAd?$AAo?$AAu?$AAb?$AAl?$AAe@ 000000018006e440     libucrt:input.obj
 0002:00004460       ??_C@_1FK@JOJELFFO@?$AA_?$AA_?$AAc?$AAr?$AAt?$AA_?$AAs?$AAt?$AAr?$AAt?$AAo?$AAx?$AA?3?$AA?3?$AAf@ 000000018006e460     libucrt:input.obj
 0002:000044c0       ??_C@_1BI@BANMPGJI@?$AA?$CB?$AA_?$AAi?$AAs?$AA_?$AAd?$AAo?$AAu?$AAb?$AAl?$AAe@ 000000018006e4c0     libucrt:input.obj
 0002:000044e0       ?constraints@?1??is_length_valid@__crt_stdio_input@@YA_NW4conversion_mode@2@W4length_modifier@2@@Z@4QAY0M@$$CBEA 000000018006e4e0     libucrt:input.obj
 0002:00004558       ?inf_uppercase@?1???$parse_floating_point_possible_infinity@DV?$input_adapter_character_source@V?$string_input_adapter@D@__crt_stdio_input@@@__crt_strtox@@_K@__crt_strtox@@YA?AW4floating_point_parse_result@1@AEADAEAV?$input_adapter_character_source@V?$string_input_adapter@D@__crt_stdio_input@@@1@_K@Z@4QBDB 000000018006e558     libucrt:input.obj
 0002:0000455c       ?inf_lowercase@?1???$parse_floating_point_possible_infinity@DV?$input_adapter_character_source@V?$string_input_adapter@D@__crt_stdio_input@@@__crt_strtox@@_K@__crt_strtox@@YA?AW4floating_point_parse_result@1@AEADAEAV?$input_adapter_character_source@V?$string_input_adapter@D@__crt_stdio_input@@@1@_K@Z@4QBDB 000000018006e55c     libucrt:input.obj
 0002:00004560       ?inity_uppercase@?1???$parse_floating_point_possible_infinity@DV?$input_adapter_character_source@V?$string_input_adapter@D@__crt_stdio_input@@@__crt_strtox@@_K@__crt_strtox@@YA?AW4floating_point_parse_result@1@AEADAEAV?$input_adapter_character_source@V?$string_input_adapter@D@__crt_stdio_input@@@1@_K@Z@4QBDB 000000018006e560     libucrt:input.obj
 0002:00004568       ?inity_lowercase@?1???$parse_floating_point_possible_infinity@DV?$input_adapter_character_source@V?$string_input_adapter@D@__crt_stdio_input@@@__crt_strtox@@_K@__crt_strtox@@YA?AW4floating_point_parse_result@1@AEADAEAV?$input_adapter_character_source@V?$string_input_adapter@D@__crt_stdio_input@@@1@_K@Z@4QBDB 000000018006e568     libucrt:input.obj
 0002:00004570       ?uppercase@?1???$parse_floating_point_possible_nan@DV?$input_adapter_character_source@V?$string_input_adapter@D@__crt_stdio_input@@@__crt_strtox@@_K@__crt_strtox@@YA?AW4floating_point_parse_result@1@AEADAEAV?$input_adapter_character_source@V?$string_input_adapter@D@__crt_stdio_input@@@1@_K@Z@4QBDB 000000018006e570     libucrt:input.obj
 0002:00004574       ?lowercase@?1???$parse_floating_point_possible_nan@DV?$input_adapter_character_source@V?$string_input_adapter@D@__crt_stdio_input@@@__crt_strtox@@_K@__crt_strtox@@YA?AW4floating_point_parse_result@1@AEADAEAV?$input_adapter_character_source@V?$string_input_adapter@D@__crt_stdio_input@@@1@_K@Z@4QBDB 000000018006e574     libucrt:input.obj
 0002:00004578       ?uppercase@?1???$parse_floating_point_possible_nan_is_snan@DV?$input_adapter_character_source@V?$string_input_adapter@D@__crt_stdio_input@@@__crt_strtox@@@__crt_strtox@@YA_NAEADAEAV?$input_adapter_character_source@V?$string_input_adapter@D@__crt_stdio_input@@@1@@Z@4QBDB 000000018006e578     libucrt:input.obj
 0002:00004580       ?lowercase@?1???$parse_floating_point_possible_nan_is_snan@DV?$input_adapter_character_source@V?$string_input_adapter@D@__crt_stdio_input@@@__crt_strtox@@@__crt_strtox@@YA_NAEADAEAV?$input_adapter_character_source@V?$string_input_adapter@D@__crt_stdio_input@@@1@@Z@4QBDB 000000018006e580     libucrt:input.obj
 0002:00004588       ?uppercase@?1???$parse_floating_point_possible_nan_is_ind@DV?$input_adapter_character_source@V?$string_input_adapter@D@__crt_stdio_input@@@__crt_strtox@@@__crt_strtox@@YA_NAEADAEAV?$input_adapter_character_source@V?$string_input_adapter@D@__crt_stdio_input@@@1@@Z@4QBDB 000000018006e588     libucrt:input.obj
 0002:0000458c       ?lowercase@?1???$parse_floating_point_possible_nan_is_ind@DV?$input_adapter_character_source@V?$string_input_adapter@D@__crt_stdio_input@@@__crt_strtox@@@__crt_strtox@@YA_NAEADAEAV?$input_adapter_character_source@V?$string_input_adapter@D@__crt_stdio_input@@@1@@Z@4QBDB 000000018006e58c     libucrt:input.obj
 0002:00004590       ?inf_uppercase@?1???$parse_floating_point_possible_infinity@DV?$c_string_character_source@D@__crt_strtox@@PEBD@__crt_strtox@@YA?AW4floating_point_parse_result@1@AEADAEAV?$c_string_character_source@D@1@PEBD@Z@4QBDB 000000018006e590     libucrt:atof.obj
 0002:00004594       ?inf_lowercase@?1???$parse_floating_point_possible_infinity@DV?$c_string_character_source@D@__crt_strtox@@PEBD@__crt_strtox@@YA?AW4floating_point_parse_result@1@AEADAEAV?$c_string_character_source@D@1@PEBD@Z@4QBDB 000000018006e594     libucrt:atof.obj
 0002:00004598       ?inity_uppercase@?1???$parse_floating_point_possible_infinity@DV?$c_string_character_source@D@__crt_strtox@@PEBD@__crt_strtox@@YA?AW4floating_point_parse_result@1@AEADAEAV?$c_string_character_source@D@1@PEBD@Z@4QBDB 000000018006e598     libucrt:atof.obj
 0002:000045a0       ?inity_lowercase@?1???$parse_floating_point_possible_infinity@DV?$c_string_character_source@D@__crt_strtox@@PEBD@__crt_strtox@@YA?AW4floating_point_parse_result@1@AEADAEAV?$c_string_character_source@D@1@PEBD@Z@4QBDB 000000018006e5a0     libucrt:atof.obj
 0002:000045a8       ?uppercase@?1???$parse_floating_point_possible_nan@DV?$c_string_character_source@D@__crt_strtox@@PEBD@__crt_strtox@@YA?AW4floating_point_parse_result@1@AEADAEAV?$c_string_character_source@D@1@PEBD@Z@4QBDB 000000018006e5a8     libucrt:atof.obj
 0002:000045ac       ?lowercase@?1???$parse_floating_point_possible_nan@DV?$c_string_character_source@D@__crt_strtox@@PEBD@__crt_strtox@@YA?AW4floating_point_parse_result@1@AEADAEAV?$c_string_character_source@D@1@PEBD@Z@4QBDB 000000018006e5ac     libucrt:atof.obj
 0002:000045b0       ?uppercase@?1???$parse_floating_point_possible_nan_is_snan@DV?$c_string_character_source@D@__crt_strtox@@@__crt_strtox@@YA_NAEADAEAV?$c_string_character_source@D@1@@Z@4QBDB 000000018006e5b0     libucrt:atof.obj
 0002:000045b8       ?lowercase@?1???$parse_floating_point_possible_nan_is_snan@DV?$c_string_character_source@D@__crt_strtox@@@__crt_strtox@@YA_NAEADAEAV?$c_string_character_source@D@1@@Z@4QBDB 000000018006e5b8     libucrt:atof.obj
 0002:000045c0       ?uppercase@?1???$parse_floating_point_possible_nan_is_ind@DV?$c_string_character_source@D@__crt_strtox@@@__crt_strtox@@YA_NAEADAEAV?$c_string_character_source@D@1@@Z@4QBDB 000000018006e5c0     libucrt:atof.obj
 0002:000045c4       ?lowercase@?1???$parse_floating_point_possible_nan_is_ind@DV?$c_string_character_source@D@__crt_strtox@@@__crt_strtox@@YA_NAEADAEAV?$c_string_character_source@D@1@@Z@4QBDB 000000018006e5c4     libucrt:atof.obj
 0002:000045d0       __acrt_exception_action_table 000000018006e5d0     libucrt:exception_filter.obj
 0002:00004690       __acrt_signal_action_table_count 000000018006e690     libucrt:exception_filter.obj
 0002:00004698       __acrt_signal_action_first_fpe_index 000000018006e698     libucrt:exception_filter.obj
 0002:000046a0       __acrt_signal_action_fpe_count 000000018006e6a0     libucrt:exception_filter.obj
 0002:000046f8       ??_C@_1BI@BGOHAHKC@?$AAm?$AAs?$AAc?$AAo?$AAr?$AAe?$AAe?$AA?4?$AAd?$AAl?$AAl@ 000000018006e6f8     libucrt:exit.obj
 0002:00004710       ??_C@_0P@MIGLKIOC@CorExitProcess@ 000000018006e710     libucrt:exit.obj
 0002:00004870       __lc_time_c                000000018006e870     libucrt:nlsdata.obj
 0002:00004b30       ??_C@_03KOEHGMDN@Sun@      000000018006eb30     libucrt:nlsdata.obj
 0002:00004b34       ??_C@_03PDAGKDH@Mon@       000000018006eb34     libucrt:nlsdata.obj
 0002:00004b38       ??_C@_03NAGEINEP@Tue@      000000018006eb38     libucrt:nlsdata.obj
 0002:00004b3c       ??_C@_03MHOMLAJA@Wed@      000000018006eb3c     libucrt:nlsdata.obj
 0002:00004b40       ??_C@_03IOFIKPDN@Thu@      000000018006eb40     libucrt:nlsdata.obj
 0002:00004b44       ??_C@_03IDIOELNC@Fri@      000000018006eb44     libucrt:nlsdata.obj
 0002:00004b48       ??_C@_03FEFJNEK@Sat@       000000018006eb48     libucrt:nlsdata.obj
 0002:00004b4c       ??_C@_06OOPIFAJ@Sunday@    000000018006eb4c     libucrt:nlsdata.obj
 0002:00004b54       ??_C@_06JLEDEDGH@Monday@   000000018006eb54     libucrt:nlsdata.obj
 0002:00004b60       ??_C@_07BAAGCFCM@Tuesday@  000000018006eb60     libucrt:nlsdata.obj
 0002:00004b68       ??_C@_09DLIGFAKA@Wednesday@ 000000018006eb68     libucrt:nlsdata.obj
 0002:00004b78       ??_C@_08HACCIKIA@Thursday@ 000000018006eb78     libucrt:nlsdata.obj
 0002:00004b84       ??_C@_06JECMNKMI@Friday@   000000018006eb84     libucrt:nlsdata.obj
 0002:00004b90       ??_C@_08INBOOONO@Saturday@ 000000018006eb90     libucrt:nlsdata.obj
 0002:00004b9c       ??_C@_03JIHJHPIE@Jan@      000000018006eb9c     libucrt:nlsdata.obj
 0002:00004ba0       ??_C@_03HJBDCHOM@Feb@      000000018006eba0     libucrt:nlsdata.obj
 0002:00004ba4       ??_C@_03ODNJBKGA@Mar@      000000018006eba4     libucrt:nlsdata.obj
 0002:00004ba8       ??_C@_03LEOLGMJP@Apr@      000000018006eba8     libucrt:nlsdata.obj
 0002:00004bac       ??_C@_03CNMDKL@May@        000000018006ebac     libucrt:nlsdata.obj
 0002:00004bb0       ??_C@_03IDFGHECI@Jun@      000000018006ebb0     libucrt:nlsdata.obj
 0002:00004bb4       ??_C@_03LBGABGKK@Jul@      000000018006ebb4     libucrt:nlsdata.obj
 0002:00004bb8       ??_C@_03IFJFEIGA@Aug@      000000018006ebb8     libucrt:nlsdata.obj
 0002:00004bbc       ??_C@_03GGCAPAJC@Sep@      000000018006ebbc     libucrt:nlsdata.obj
 0002:00004bc0       ??_C@_03BMAOKBAD@Oct@      000000018006ebc0     libucrt:nlsdata.obj
 0002:00004bc4       ??_C@_03JPJOFNIA@Nov@      000000018006ebc4     libucrt:nlsdata.obj
 0002:00004bc8       ??_C@_03MKABNOCG@Dec@      000000018006ebc8     libucrt:nlsdata.obj
 0002:00004bd0       ??_C@_07CGJPFGJA@January@  000000018006ebd0     libucrt:nlsdata.obj
 0002:00004bd8       ??_C@_08GNJGEPFN@February@ 000000018006ebd8     libucrt:nlsdata.obj
 0002:00004be4       ??_C@_05HPCKOFNC@March@    000000018006ebe4     libucrt:nlsdata.obj
 0002:00004bec       ??_C@_05DMJDNLEJ@April@    000000018006ebec     libucrt:nlsdata.obj
 0002:00004bf4       ??_C@_04CNLMGBGM@June@     000000018006ebf4     libucrt:nlsdata.obj
 0002:00004bfc       ??_C@_04MIEPOIFP@July@     000000018006ebfc     libucrt:nlsdata.obj
 0002:00004c04       ??_C@_06LBBHFDDG@August@   000000018006ec04     libucrt:nlsdata.obj
 0002:00004c10       ??_C@_09BHHEALKD@September@ 000000018006ec10     libucrt:nlsdata.obj
 0002:00004c20       ??_C@_07JJNFCEND@October@  000000018006ec20     libucrt:nlsdata.obj
 0002:00004c28       ??_C@_08HCHEGEOA@November@ 000000018006ec28     libucrt:nlsdata.obj
 0002:00004c38       ??_C@_08EDHMEBNP@December@ 000000018006ec38     libucrt:nlsdata.obj
 0002:00004c44       ??_C@_02DEDBPAFC@AM@       000000018006ec44     libucrt:nlsdata.obj
 0002:00004c48       ??_C@_02CJNFDJBF@PM@       000000018006ec48     libucrt:nlsdata.obj
 0002:00004c50       ??_C@_08BPBNCDIB@MM?1dd?1yy@ 000000018006ec50     libucrt:nlsdata.obj
 0002:00004c60       ??_C@_0BE@CKGJFCPC@dddd?0?5MMMM?5dd?0?5yyyy@ 000000018006ec60     libucrt:nlsdata.obj
 0002:00004c78       ??_C@_08JCCMCCIL@HH?3mm?3ss@ 000000018006ec78     libucrt:nlsdata.obj
 0002:00004c88       ??_C@_17MBGCMIPB@?$AAS?$AAu?$AAn@ 000000018006ec88     libucrt:nlsdata.obj
 0002:00004c90       ??_C@_17KBOMKBF@?$AAM?$AAo?$AAn@ 000000018006ec90     libucrt:nlsdata.obj
 0002:00004c98       ??_C@_17BMKGEGOJ@?$AAT?$AAu?$AAe@ 000000018006ec98     libucrt:nlsdata.obj
 0002:00004ca0       ??_C@_17CJEDCEPE@?$AAW?$AAe?$AAd@ 000000018006eca0     libucrt:nlsdata.obj
 0002:00004ca8       ??_C@_17PDPHAADD@?$AAT?$AAh?$AAu@ 000000018006eca8     libucrt:nlsdata.obj
 0002:00004cb0       ??_C@_17HFOLPPLP@?$AAF?$AAr?$AAi@ 000000018006ecb0     libucrt:nlsdata.obj
 0002:00004cb8       ??_C@_17GGIBDPIH@?$AAS?$AAa?$AAt@ 000000018006ecb8     libucrt:nlsdata.obj
 0002:00004cc0       ??_C@_1O@IHNHDHPB@?$AAS?$AAu?$AAn?$AAd?$AAa?$AAy@ 000000018006ecc0     libucrt:nlsdata.obj
 0002:00004cd0       ??_C@_1O@MMNBFLIA@?$AAM?$AAo?$AAn?$AAd?$AAa?$AAy@ 000000018006ecd0     libucrt:nlsdata.obj
 0002:00004ce0       ??_C@_1BA@ENFBFFEK@?$AAT?$AAu?$AAe?$AAs?$AAd?$AAa?$AAy@ 000000018006ece0     libucrt:nlsdata.obj
 0002:00004cf0       ??_C@_1BE@EBOGMDOH@?$AAW?$AAe?$AAd?$AAn?$AAe?$AAs?$AAd?$AAa?$AAy@ 000000018006ecf0     libucrt:nlsdata.obj
 0002:00004d08       ??_C@_1BC@HHMNLIHE@?$AAT?$AAh?$AAu?$AAr?$AAs?$AAd?$AAa?$AAy@ 000000018006ed08     libucrt:nlsdata.obj
 0002:00004d20       ??_C@_1O@PDICJHAG@?$AAF?$AAr?$AAi?$AAd?$AAa?$AAy@ 000000018006ed20     libucrt:nlsdata.obj
 0002:00004d30       ??_C@_1BC@ENMNNPAJ@?$AAS?$AAa?$AAt?$AAu?$AAr?$AAd?$AAa?$AAy@ 000000018006ed30     libucrt:nlsdata.obj
 0002:00004d48       ??_C@_17DKNBKCHM@?$AAJ?$AAa?$AAn@ 000000018006ed48     libucrt:nlsdata.obj
 0002:00004d50       ??_C@_17LMDJEKJN@?$AAF?$AAe?$AAb@ 000000018006ed50     libucrt:nlsdata.obj
 0002:00004d58       ??_C@_17CKNLEDEC@?$AAM?$AAa?$AAr@ 000000018006ed58     libucrt:nlsdata.obj
 0002:00004d60       ??_C@_17LFPOIHDD@?$AAA?$AAp?$AAr@ 000000018006ed60     libucrt:nlsdata.obj
 0002:00004d68       ??_C@_17PNNKMEED@?$AAM?$AAa?$AAy@ 000000018006ed68     libucrt:nlsdata.obj
 0002:00004d70       ??_C@_17KCJGOCPB@?$AAJ?$AAu?$AAn@ 000000018006ed70     libucrt:nlsdata.obj
 0002:00004d78       ??_C@_17IJPCKHK@?$AAJ?$AAu?$AAl@ 000000018006ed78     libucrt:nlsdata.obj
 0002:00004d80       ??_C@_17ICPELBCN@?$AAA?$AAu?$AAg@ 000000018006ed80     libucrt:nlsdata.obj
 0002:00004d88       ??_C@_17HCHCOKMG@?$AAS?$AAe?$AAp@ 000000018006ed88     libucrt:nlsdata.obj
 0002:00004d90       ??_C@_17FNLKOI@?$AAO?$AAc?$AAt@ 000000018006ed90     libucrt:nlsdata.obj
 0002:00004d98       ??_C@_17BBDMLCIG@?$AAN?$AAo?$AAv@ 000000018006ed98     libucrt:nlsdata.obj
 0002:00004da0       ??_C@_17EGKACKIF@?$AAD?$AAe?$AAc@ 000000018006eda0     libucrt:nlsdata.obj
 0002:00004da8       ??_C@_1BA@EFMEIEBA@?$AAJ?$AAa?$AAn?$AAu?$AAa?$AAr?$AAy@ 000000018006eda8     libucrt:nlsdata.obj
 0002:00004db8       ??_C@_1BC@JGDDFFAM@?$AAF?$AAe?$AAb?$AAr?$AAu?$AAa?$AAr?$AAy@ 000000018006edb8     libucrt:nlsdata.obj
 0002:00004dd0       ??_C@_1M@IKEENEDF@?$AAM?$AAa?$AAr?$AAc?$AAh@ 000000018006edd0     libucrt:nlsdata.obj
 0002:00004de0       ??_C@_1M@GJNLMHFD@?$AAA?$AAp?$AAr?$AAi?$AAl@ 000000018006ede0     libucrt:nlsdata.obj
 0002:00004df0       ??_C@_19EPFLPGAP@?$AAJ?$AAu?$AAn?$AAe@ 000000018006edf0     libucrt:nlsdata.obj
 0002:00004e00       ??_C@_19BIFMLPCD@?$AAJ?$AAu?$AAl?$AAy@ 000000018006ee00     libucrt:nlsdata.obj
 0002:00004e10       ??_C@_1O@PAHLKOAC@?$AAA?$AAu?$AAg?$AAu?$AAs?$AAt@ 000000018006ee10     libucrt:nlsdata.obj
 0002:00004e20       ??_C@_1BE@DKAAMBJL@?$AAS?$AAe?$AAp?$AAt?$AAe?$AAm?$AAb?$AAe?$AAr@ 000000018006ee20     libucrt:nlsdata.obj
 0002:00004e38       ??_C@_1BA@EPANDLNG@?$AAO?$AAc?$AAt?$AAo?$AAb?$AAe?$AAr@ 000000018006ee38     libucrt:nlsdata.obj
 0002:00004e48       ??_C@_1BC@BGLIFPF@?$AAN?$AAo?$AAv?$AAe?$AAm?$AAb?$AAe?$AAr@ 000000018006ee48     libucrt:nlsdata.obj
 0002:00004e60       ??_C@_1BC@FEMKIFH@?$AAD?$AAe?$AAc?$AAe?$AAm?$AAb?$AAe?$AAr@ 000000018006ee60     libucrt:nlsdata.obj
 0002:00004e74       ??_C@_15ODEHAHHF@?$AAA?$AAM@ 000000018006ee74     libucrt:nlsdata.obj
 0002:00004e7c       ??_C@_15CLMNNGEL@?$AAP?$AAM@ 000000018006ee7c     libucrt:nlsdata.obj
 0002:00004e88       ??_C@_1BC@IEBCMHCM@?$AAM?$AAM?$AA?1?$AAd?$AAd?$AA?1?$AAy?$AAy@ 000000018006ee88     libucrt:nlsdata.obj
 0002:00004ea0       ??_C@_1CI@KNAKOEBC@?$AAd?$AAd?$AAd?$AAd?$AA?0?$AA?5?$AAM?$AAM?$AAM?$AAM?$AA?5?$AAd?$AAd?$AA?0?$AA?5@ 000000018006eea0     libucrt:nlsdata.obj
 0002:00004ec8       ??_C@_1BC@GDGBMEMK@?$AAH?$AAH?$AA?3?$AAm?$AAm?$AA?3?$AAs?$AAs@ 000000018006eec8     libucrt:nlsdata.obj
 0002:00004ee0       ??_C@_1M@BMHNFIME@?$AAe?$AAn?$AA?9?$AAU?$AAS@ 000000018006eee0     libucrt:nlsdata.obj
 0002:00005110       ??_C@_1EA@JGEFHKEI@?$AAa?$AAp?$AAi?$AA?9?$AAm?$AAs?$AA?9?$AAw?$AAi?$AAn?$AA?9?$AAc?$AAo?$AAr?$AAe@ 000000018006f110     libucrt:winapi_thunks.obj
 0002:00005150       ??_C@_1DI@KMEPCBPN@?$AAa?$AAp?$AAi?$AA?9?$AAm?$AAs?$AA?9?$AAw?$AAi?$AAn?$AA?9?$AAc?$AAo?$AAr?$AAe@ 000000018006f150     libucrt:winapi_thunks.obj
 0002:00005188       ??_C@_1DI@IJCEHOCB@?$AAa?$AAp?$AAi?$AA?9?$AAm?$AAs?$AA?9?$AAw?$AAi?$AAn?$AA?9?$AAc?$AAo?$AAr?$AAe@ 000000018006f188     libucrt:winapi_thunks.obj
 0002:000051c0       ??_C@_1EI@MPIAOHOC@?$AAa?$AAp?$AAi?$AA?9?$AAm?$AAs?$AA?9?$AAw?$AAi?$AAn?$AA?9?$AAc?$AAo?$AAr?$AAe@ 000000018006f1c0     libucrt:winapi_thunks.obj
 0002:00005210       ??_C@_1FK@FPHCKFIE@?$AAa?$AAp?$AAi?$AA?9?$AAm?$AAs?$AA?9?$AAw?$AAi?$AAn?$AA?9?$AAc?$AAo?$AAr?$AAe@ 000000018006f210     libucrt:winapi_thunks.obj
 0002:00005270       ??_C@_1EM@DILCGIIO@?$AAa?$AAp?$AAi?$AA?9?$AAm?$AAs?$AA?9?$AAw?$AAi?$AAn?$AA?9?$AAc?$AAo?$AAr?$AAe@ 000000018006f270     libucrt:winapi_thunks.obj
 0002:000052c0       ??_C@_1DM@LNCGDDPN@?$AAa?$AAp?$AAi?$AA?9?$AAm?$AAs?$AA?9?$AAw?$AAi?$AAn?$AA?9?$AAc?$AAo?$AAr?$AAe@ 000000018006f2c0     libucrt:winapi_thunks.obj
 0002:00005300       ??_C@_1DO@FPAPJEMD@?$AAa?$AAp?$AAi?$AA?9?$AAm?$AAs?$AA?9?$AAw?$AAi?$AAn?$AA?9?$AAc?$AAo?$AAr?$AAe@ 000000018006f300     libucrt:winapi_thunks.obj
 0002:00005340       ??_C@_1DK@NDHNAHIO@?$AAa?$AAp?$AAi?$AA?9?$AAm?$AAs?$AA?9?$AAw?$AAi?$AAn?$AA?9?$AAc?$AAo?$AAr?$AAe@ 000000018006f340     libucrt:winapi_thunks.obj
 0002:00005380       ??_C@_1DM@KGHDGBCM@?$AAa?$AAp?$AAi?$AA?9?$AAm?$AAs?$AA?9?$AAw?$AAi?$AAn?$AA?9?$AAc?$AAo?$AAr?$AAe@ 000000018006f380     libucrt:winapi_thunks.obj
 0002:000053c0       ??_C@_1EO@IJIOEFOH@?$AAa?$AAp?$AAi?$AA?9?$AAm?$AAs?$AA?9?$AAw?$AAi?$AAn?$AA?9?$AAr?$AAt?$AAc?$AAo@ 000000018006f3c0     libucrt:winapi_thunks.obj
 0002:00005410       ??_C@_1FG@HHGEKANL@?$AAa?$AAp?$AAi?$AA?9?$AAm?$AAs?$AA?9?$AAw?$AAi?$AAn?$AA?9?$AAs?$AAe?$AAc?$AAu@ 000000018006f410     libucrt:winapi_thunks.obj
 0002:00005470       ??_C@_1EG@DBIOJECG@?$AAe?$AAx?$AAt?$AA?9?$AAm?$AAs?$AA?9?$AAw?$AAi?$AAn?$AA?9?$AAn?$AAt?$AAu?$AAs@ 000000018006f470     libucrt:winapi_thunks.obj
 0002:000054c0       ??_C@_1EO@FIHMJCLF@?$AAe?$AAx?$AAt?$AA?9?$AAm?$AAs?$AA?9?$AAw?$AAi?$AAn?$AA?9?$AAn?$AAt?$AAu?$AAs@ 000000018006f4c0     libucrt:winapi_thunks.obj
 0002:00005510       ??_C@_1BC@DNHGCMLG@?$AAa?$AAd?$AAv?$AAa?$AAp?$AAi?$AA3?$AA2@ 000000018006f510     libucrt:winapi_thunks.obj
 0002:00005528       ??_C@_1BG@CJPGBMEF@?$AAk?$AAe?$AAr?$AAn?$AAe?$AAl?$AAb?$AAa?$AAs?$AAe@ 000000018006f528     libucrt:winapi_thunks.obj
 0002:00005540       ??_C@_1M@OAIMIKLP@?$AAn?$AAt?$AAd?$AAl?$AAl@ 000000018006f540     libucrt:winapi_thunks.obj
 0002:00005550       ??_C@_1EG@DPGNFKGC@?$AAa?$AAp?$AAi?$AA?9?$AAm?$AAs?$AA?9?$AAw?$AAi?$AAn?$AA?9?$AAa?$AAp?$AAp?$AAm@ 000000018006f550     libucrt:winapi_thunks.obj
 0002:00005598       ??_C@_1O@BCCLBEOE@?$AAu?$AAs?$AAe?$AAr?$AA3?$AA2@ 000000018006f598     libucrt:winapi_thunks.obj
 0002:000055a8       ??_C@_1BA@IAIFMGEF@?$AAe?$AAx?$AAt?$AA?9?$AAm?$AAs?$AA?9@ 000000018006f5a8     libucrt:winapi_thunks.obj
 0002:000055c0       ??_C@_0BA@FHFNEAED@AreFileApisANSI@ 000000018006f5c0     libucrt:winapi_thunks.obj
 0002:000055e0       ??_C@_0O@KKBNKAPF@LCMapStringEx@ 000000018006f5e0     libucrt:winapi_thunks.obj
 0002:000055f8       ??_C@_0BB@HBDEELFH@LocaleNameToLCID@ 000000018006f5f8     libucrt:winapi_thunks.obj
 0002:00005610       ??_C@_0CF@OJOFEIGO@AppPolicyGetProcessTerminationM@ 000000018006f610     libucrt:winapi_thunks.obj
 0002:00005660       ?ccs@?1???$__acrt_stdio_parse_mode@D@@YA?AU__acrt_stdio_stream_mode@@QEBD@Z@4QBDB 000000018006f660     libucrt:openfile.obj
 0002:00005664       ?utf8_encoding@?1???$__acrt_stdio_parse_mode@D@@YA?AU__acrt_stdio_stream_mode@@QEBD@Z@4QBDB 000000018006f664     libucrt:openfile.obj
 0002:00005670       ?utf16_encoding@?1???$__acrt_stdio_parse_mode@D@@YA?AU__acrt_stdio_stream_mode@@QEBD@Z@4QBDB 000000018006f670     libucrt:openfile.obj
 0002:00005678       ?unicode_encoding@?1???$__acrt_stdio_parse_mode@D@@YA?AU__acrt_stdio_stream_mode@@QEBD@Z@4QBDB 000000018006f678     libucrt:openfile.obj
 0002:00005680       ?ccs@?1???$__acrt_stdio_parse_mode@_W@@YA?AU__acrt_stdio_stream_mode@@QEB_W@Z@4QB_WB 000000018006f680     libucrt:openfile.obj
 0002:00005688       ?utf8_encoding@?1???$__acrt_stdio_parse_mode@_W@@YA?AU__acrt_stdio_stream_mode@@QEB_W@Z@4QB_WB 000000018006f688     libucrt:openfile.obj
 0002:00005698       ?utf16_encoding@?1???$__acrt_stdio_parse_mode@_W@@YA?AU__acrt_stdio_stream_mode@@QEB_W@Z@4QB_WB 000000018006f698     libucrt:openfile.obj
 0002:000056a8       ?unicode_encoding@?1???$__acrt_stdio_parse_mode@_W@@YA?AU__acrt_stdio_stream_mode@@QEB_W@Z@4QB_WB 000000018006f6a8     libucrt:openfile.obj
 0002:00005740       ??_C@_03OEIAHPBN@INF@      000000018006f740     libucrt:cvt.obj
 0002:00005744       ??_C@_03OJHLLCGB@inf@      000000018006f744     libucrt:cvt.obj
 0002:00005748       ??_C@_03LKNCIKJB@NAN@      000000018006f748     libucrt:cvt.obj
 0002:0000574c       ??_C@_03LHCJEHON@nan@      000000018006f74c     libucrt:cvt.obj
 0002:00005750       ??_C@_09OFJJIMPC@NAN?$CISNAN?$CJ@ 000000018006f750     libucrt:cvt.obj
 0002:00005760       ??_C@_09IPFBKMDL@nan?$CIsnan?$CJ@ 000000018006f760     libucrt:cvt.obj
 0002:00005770       ??_C@_08IKHNHAJ@NAN?$CIIND?$CJ@ 000000018006f770     libucrt:cvt.obj
 0002:00005780       ??_C@_08OFCDMILK@nan?$CIind?$CJ@ 000000018006f780     libucrt:cvt.obj
 0002:0000578c       ??_C@_05KLBDPFGC@e?$CL000@ 000000018006f78c     libucrt:cvt.obj
 0002:000057a0       __newctype                 000000018006f7a0     libucrt:ctype.obj
 0002:00005aa0       __newclmap                 000000018006faa0     libucrt:ctype.obj
 0002:00005c20       __newcumap                 000000018006fc20     libucrt:ctype.obj
 0002:00005da0       _wctype                    000000018006fda0     libucrt:ctype.obj
 0002:00005fc8       ??_C@_1M@HPNHIDJI@?$AAj?$AAa?$AA?9?$AAJ?$AAP@ 000000018006ffc8     libucrt:mbctype.obj
 0002:00005fd8       ??_C@_1M@BIBDDEMK@?$AAz?$AAh?$AA?9?$AAC?$AAN@ 000000018006ffd8     libucrt:mbctype.obj
 0002:00005fe8       ??_C@_1M@JLOOOEGK@?$AAk?$AAo?$AA?9?$AAK?$AAR@ 000000018006ffe8     libucrt:mbctype.obj
 0002:00005ff8       ??_C@_1M@CLNBBOPM@?$AAz?$AAh?$AA?9?$AAT?$AAW@ 000000018006fff8     libucrt:mbctype.obj
 0002:00006004       ??_C@_15PJPFLCCM@?$AAu?$AAk@ 0000000180070004     libucrt:get_qualified_locale.obj
 0002:00006e50       ??_C@_15EMKDOKLE@?$AAa?$AAr@ 0000000180070e50     libucrt:lcidtoname_downlevel.obj
 0002:00006e58       ??_C@_15KNPADPLH@?$AAb?$AAg@ 0000000180070e58     libucrt:lcidtoname_downlevel.obj
 0002:00006e60       ??_C@_15EDMHLDMO@?$AAc?$AAa@ 0000000180070e60     libucrt:lcidtoname_downlevel.obj
 0002:00006e68       ??_C@_1O@BPEAJADD@?$AAz?$AAh?$AA?9?$AAC?$AAH?$AAS@ 0000000180070e68     libucrt:lcidtoname_downlevel.obj
 0002:00006e78       ??_C@_15LJNHCMNK@?$AAc?$AAs@ 0000000180070e78     libucrt:lcidtoname_downlevel.obj
 0002:00006e80       ??_C@_15FOMCIDHG@?$AAd?$AAa@ 0000000180070e80     libucrt:lcidtoname_downlevel.obj
 0002:00006e88       ??_C@_15NBKABECB@?$AAd?$AAe@ 0000000180070e88     libucrt:lcidtoname_downlevel.obj
 0002:00006e90       ??_C@_15GHPEIIAO@?$AAe?$AAl@ 0000000180070e90     libucrt:lcidtoname_downlevel.obj
 0002:00006e98       ??_C@_15MNPNEAIF@?$AAe?$AAn@ 0000000180070e98     libucrt:lcidtoname_downlevel.obj
 0002:00006ea0       ??_C@_15GPIOMPMH@?$AAe?$AAs@ 0000000180070ea0     libucrt:lcidtoname_downlevel.obj
 0002:00006ea8       ??_C@_15NGLOAKJC@?$AAf?$AAi@ 0000000180070ea8     libucrt:lcidtoname_downlevel.obj
 0002:00006eb0       ??_C@_15FBKGNKAM@?$AAf?$AAr@ 0000000180070eb0     libucrt:lcidtoname_downlevel.obj
 0002:00006eb8       ??_C@_15KGGCNEFK@?$AAh?$AAe@ 0000000180070eb8     libucrt:lcidtoname_downlevel.obj
 0002:00006ec0       ??_C@_15PGHLIDMF@?$AAh?$AAu@ 0000000180070ec0     libucrt:lcidtoname_downlevel.obj
 0002:00006ec8       ??_C@_15BIEMAPLM@?$AAi?$AAs@ 0000000180070ec8     libucrt:lcidtoname_downlevel.obj
 0002:00006ed0       ??_C@_15IFJLDHAF@?$AAi?$AAt@ 0000000180070ed0     libucrt:lcidtoname_downlevel.obj
 0002:00006ed8       ??_C@_15GEMIOCAG@?$AAj?$AAa@ 0000000180070ed8     libucrt:lcidtoname_downlevel.obj
 0002:00006ee0       ??_C@_15EPELEGJA@?$AAk?$AAo@ 0000000180070ee0     libucrt:lcidtoname_downlevel.obj
 0002:00006ee8       ??_C@_15NDDHIMN@?$AAn?$AAl@ 0000000180070ee8     libucrt:lcidtoname_downlevel.obj
 0002:00006ef0       ??_C@_15BPIGNHCD@?$AAn?$AAo@ 0000000180070ef0     libucrt:lcidtoname_downlevel.obj
 0002:00006ef8       ??_C@_15DEOPBLCG@?$AAp?$AAl@ 0000000180070ef8     libucrt:lcidtoname_downlevel.obj
 0002:00006f00       ??_C@_15KBECGEFG@?$AAp?$AAt@ 0000000180070f00     libucrt:lcidtoname_downlevel.obj
 0002:00006f08       ??_C@_15GLJCBFMD@?$AAr?$AAo@ 0000000180070f08     libucrt:lcidtoname_downlevel.obj
 0002:00006f10       ??_C@_15FEDGKCDI@?$AAr?$AAu@ 0000000180070f10     libucrt:lcidtoname_downlevel.obj
 0002:00006f18       ??_C@_15GLKMLLHM@?$AAh?$AAr@ 0000000180070f18     libucrt:lcidtoname_downlevel.obj
 0002:00006f20       ??_C@_15CPKMFBDB@?$AAs?$AAk@ 0000000180070f20     libucrt:lcidtoname_downlevel.obj
 0002:00006f28       ??_C@_15BAAIOGMK@?$AAs?$AAq@ 0000000180070f28     libucrt:lcidtoname_downlevel.obj
 0002:00006f30       ??_C@_15INNPNOHD@?$AAs?$AAv@ 0000000180070f30     libucrt:lcidtoname_downlevel.obj
 0002:00006f38       ??_C@_15CABMMOGH@?$AAt?$AAh@ 0000000180070f38     libucrt:lcidtoname_downlevel.obj
 0002:00006f40       ??_C@_15BPLIHJJM@?$AAt?$AAr@ 0000000180070f40     libucrt:lcidtoname_downlevel.obj
 0002:00006f48       ??_C@_15NEOEKKDJ@?$AAu?$AAr@ 0000000180070f48     libucrt:lcidtoname_downlevel.obj
 0002:00006f50       ??_C@_15NFICGAJK@?$AAi?$AAd@ 0000000180070f50     libucrt:lcidtoname_downlevel.obj
 0002:00006f58       ??_C@_15HPJPHDM@?$AAb?$AAe@ 0000000180070f58     libucrt:lcidtoname_downlevel.obj
 0002:00006f60       ??_C@_15LCHLGJII@?$AAs?$AAl@ 0000000180070f60     libucrt:lcidtoname_downlevel.obj
 0002:00006f68       ??_C@_15PCFJPHHO@?$AAe?$AAt@ 0000000180070f68     libucrt:lcidtoname_downlevel.obj
 0002:00006f70       ??_C@_15HPFPGODN@?$AAl?$AAv@ 0000000180070f70     libucrt:lcidtoname_downlevel.obj
 0002:00006f78       ??_C@_15NFFGKGLG@?$AAl?$AAt@ 0000000180070f78     libucrt:lcidtoname_downlevel.obj
 0002:00006f80       ??_C@_15BDAKCCHN@?$AAf?$AAa@ 0000000180070f80     libucrt:lcidtoname_downlevel.obj
 0002:00006f88       ??_C@_15NFGIAIAJ@?$AAv?$AAi@ 0000000180070f88     libucrt:lcidtoname_downlevel.obj
 0002:00006f90       ??_C@_15LMKNDMHN@?$AAh?$AAy@ 0000000180070f90     libucrt:lcidtoname_downlevel.obj
 0002:00006f98       ??_C@_15IJBHMCFL@?$AAa?$AAz@ 0000000180070f98     libucrt:lcidtoname_downlevel.obj
 0002:00006fa0       ??_C@_15EKOFJABL@?$AAe?$AAu@ 0000000180070fa0     libucrt:lcidtoname_downlevel.obj
 0002:00006fa8       ??_C@_15BGHADCNK@?$AAm?$AAk@ 0000000180070fa8     libucrt:lcidtoname_downlevel.obj
 0002:00006fb0       ??_C@_15JDNICKHM@?$AAa?$AAf@ 0000000180070fb0     libucrt:lcidtoname_downlevel.obj
 0002:00006fb8       ??_C@_15KPJEDBKD@?$AAk?$AAa@ 0000000180070fb8     libucrt:lcidtoname_downlevel.obj
 0002:00006fc0       ??_C@_15PDNFFFEO@?$AAf?$AAo@ 0000000180070fc0     libucrt:lcidtoname_downlevel.obj
 0002:00006fc8       ??_C@_15OMLEGLOC@?$AAh?$AAi@ 0000000180070fc8     libucrt:lcidtoname_downlevel.obj
 0002:00006fd0       ??_C@_15IDNNENKK@?$AAm?$AAs@ 0000000180070fd0     libucrt:lcidtoname_downlevel.obj
 0002:00006fd8       ??_C@_15MACJNBMH@?$AAk?$AAk@ 0000000180070fd8     libucrt:lcidtoname_downlevel.obj
 0002:00006fe0       ??_C@_15DKDJEOND@?$AAk?$AAy@ 0000000180070fe0     libucrt:lcidtoname_downlevel.obj
 0002:00006fe8       ??_C@_15DFGDLJBG@?$AAs?$AAw@ 0000000180070fe8     libucrt:lcidtoname_downlevel.obj
 0002:00006ff0       ??_C@_15BBFAICNG@?$AAu?$AAz@ 0000000180070ff0     libucrt:lcidtoname_downlevel.obj
 0002:00006ff8       ??_C@_15DKNDCGEA@?$AAt?$AAt@ 0000000180070ff8     libucrt:lcidtoname_downlevel.obj
 0002:00007000       ??_C@_15MGIFMDPL@?$AAp?$AAa@ 0000000180071000     libucrt:lcidtoname_downlevel.obj
 0002:00007008       ??_C@_15HCNDBBA@?$AAg?$AAu@ 0000000180071008     libucrt:lcidtoname_downlevel.obj
 0002:00007010       ??_C@_15FNBEIBON@?$AAt?$AAa@ 0000000180071010     libucrt:lcidtoname_downlevel.obj
 0002:00007018       ??_C@_15NCHGBGLK@?$AAt?$AAe@ 0000000180071018     libucrt:lcidtoname_downlevel.obj
 0002:00007020       ??_C@_15PHPHCBPF@?$AAk?$AAn@ 0000000180071020     libucrt:lcidtoname_downlevel.obj
 0002:00007028       ??_C@_15DLGBCKMP@?$AAm?$AAr@ 0000000180071028     libucrt:lcidtoname_downlevel.obj
 0002:00007030       ??_C@_15EABBLBFF@?$AAs?$AAa@ 0000000180071030     libucrt:lcidtoname_downlevel.obj
 0002:00007038       ??_C@_15CBKOMCOI@?$AAm?$AAn@ 0000000180071038     libucrt:lcidtoname_downlevel.obj
 0002:00007040       ??_C@_15CKDMCJAF@?$AAg?$AAl@ 0000000180071040     libucrt:lcidtoname_downlevel.obj
 0002:00007048       ??_C@_17CNJFBPG@?$AAk?$AAo?$AAk@ 0000000180071048     libucrt:lcidtoname_downlevel.obj
 0002:00007050       ??_C@_17FFBJICPL@?$AAs?$AAy?$AAr@ 0000000180071050     libucrt:lcidtoname_downlevel.obj
 0002:00007058       ??_C@_17KPNDCPAF@?$AAd?$AAi?$AAv@ 0000000180071058     libucrt:lcidtoname_downlevel.obj
 0002:00007060       ??_C@_11LOCGONAA@@         0000000180071060     libucrt:lcidtoname_downlevel.obj
 0002:00007068       ??_C@_1M@OKAHONE@?$AAa?$AAr?$AA?9?$AAS?$AAA@ 0000000180071068     libucrt:lcidtoname_downlevel.obj
 0002:00007078       ??_C@_1M@FFFIGIGK@?$AAb?$AAg?$AA?9?$AAB?$AAG@ 0000000180071078     libucrt:lcidtoname_downlevel.obj
 0002:00007088       ??_C@_1M@BJNKEDC@?$AAc?$AAa?$AA?9?$AAE?$AAS@ 0000000180071088     libucrt:lcidtoname_downlevel.obj
 0002:00007098       ??_C@_1M@IJJHFJHA@?$AAc?$AAs?$AA?9?$AAC?$AAZ@ 0000000180071098     libucrt:lcidtoname_downlevel.obj
 0002:000070a8       ??_C@_1M@CLPEOBGI@?$AAd?$AAa?$AA?9?$AAD?$AAK@ 00000001800710a8     libucrt:lcidtoname_downlevel.obj
 0002:000070b8       ??_C@_1M@MCMADGCB@?$AAd?$AAe?$AA?9?$AAD?$AAE@ 00000001800710b8     libucrt:lcidtoname_downlevel.obj
 0002:000070c8       ??_C@_1M@OOCKEMAM@?$AAe?$AAl?$AA?9?$AAG?$AAR@ 00000001800710c8     libucrt:lcidtoname_downlevel.obj
 0002:000070d8       ??_C@_1M@DDNJFGID@?$AAf?$AAi?$AA?9?$AAF?$AAI@ 00000001800710d8     libucrt:lcidtoname_downlevel.obj
 0002:000070e8       ??_C@_1M@GLIPPMAC@?$AAf?$AAr?$AA?9?$AAF?$AAR@ 00000001800710e8     libucrt:lcidtoname_downlevel.obj
 0002:000070f8       ??_C@_1M@GFMCHPE@?$AAh?$AAe?$AA?9?$AAI?$AAL@ 00000001800710f8     libucrt:lcidtoname_downlevel.obj
 0002:00007108       ??_C@_1M@MHLPGNKM@?$AAh?$AAu?$AA?9?$AAH?$AAU@ 0000000180071108     libucrt:lcidtoname_downlevel.obj
 0002:00007118       ??_C@_1M@LPDDNNPN@?$AAi?$AAs?$AA?9?$AAI?$AAS@ 0000000180071118     libucrt:lcidtoname_downlevel.obj
 0002:00007128       ??_C@_1M@MADIPODN@?$AAi?$AAt?$AA?9?$AAI?$AAT@ 0000000180071128     libucrt:lcidtoname_downlevel.obj
 0002:00007138       ??_C@_1M@IHBJJGG@?$AAn?$AAl?$AA?9?$AAN?$AAL@ 0000000180071138     libucrt:lcidtoname_downlevel.obj
 0002:00007148       ??_C@_1M@EANAGDL@?$AAn?$AAb?$AA?9?$AAN?$AAO@ 0000000180071148     libucrt:lcidtoname_downlevel.obj
 0002:00007158       ??_C@_1M@NEIEMEGP@?$AAp?$AAl?$AA?9?$AAP?$AAL@ 0000000180071158     libucrt:lcidtoname_downlevel.obj
 0002:00007168       ??_C@_1M@BOCFIGEP@?$AAp?$AAt?$AA?9?$AAB?$AAR@ 0000000180071168     libucrt:lcidtoname_downlevel.obj
 0002:00007178       ??_C@_1M@IMPFOPBG@?$AAr?$AAo?$AA?9?$AAR?$AAO@ 0000000180071178     libucrt:lcidtoname_downlevel.obj
 0002:00007188       ??_C@_1M@IDNNEJMM@?$AAr?$AAu?$AA?9?$AAR?$AAU@ 0000000180071188     libucrt:lcidtoname_downlevel.obj
 0002:00007198       ??_C@_1M@LILEEOGM@?$AAh?$AAr?$AA?9?$AAH?$AAR@ 0000000180071198     libucrt:lcidtoname_downlevel.obj
 0002:000071a8       ??_C@_1M@FKIFEHPB@?$AAs?$AAk?$AA?9?$AAS?$AAK@ 00000001800711a8     libucrt:lcidtoname_downlevel.obj
 0002:000071b8       ??_C@_1M@LJMAMNPJ@?$AAs?$AAq?$AA?9?$AAA?$AAL@ 00000001800711b8     libucrt:lcidtoname_downlevel.obj
 0002:000071c8       ??_C@_1M@GIAKDKJK@?$AAs?$AAv?$AA?9?$AAS?$AAE@ 00000001800711c8     libucrt:lcidtoname_downlevel.obj
 0002:000071d8       ??_C@_1M@MKJKIKCL@?$AAt?$AAh?$AA?9?$AAT?$AAH@ 00000001800711d8     libucrt:lcidtoname_downlevel.obj
 0002:000071e8       ??_C@_1M@MFLCCMPB@?$AAt?$AAr?$AA?9?$AAT?$AAR@ 00000001800711e8     libucrt:lcidtoname_downlevel.obj
 0002:000071f8       ??_C@_1M@OIJHDKJN@?$AAu?$AAr?$AA?9?$AAP?$AAK@ 00000001800711f8     libucrt:lcidtoname_downlevel.obj
 0002:00007208       ??_C@_1M@LHIPCIEK@?$AAi?$AAd?$AA?9?$AAI?$AAD@ 0000000180071208     libucrt:lcidtoname_downlevel.obj
 0002:00007218       ??_C@_1M@MFMOBGI@?$AAu?$AAk?$AA?9?$AAU?$AAA@ 0000000180071218     libucrt:lcidtoname_downlevel.obj
 0002:00007228       ??_C@_1M@OBGLJIPL@?$AAb?$AAe?$AA?9?$AAB?$AAY@ 0000000180071228     libucrt:lcidtoname_downlevel.obj
 0002:00007238       ??_C@_1M@BCFAJEAD@?$AAs?$AAl?$AA?9?$AAS?$AAI@ 0000000180071238     libucrt:lcidtoname_downlevel.obj
 0002:00007248       ??_C@_1M@FKFFEDDN@?$AAe?$AAt?$AA?9?$AAE?$AAE@ 0000000180071248     libucrt:lcidtoname_downlevel.obj
 0002:00007258       ??_C@_1M@KGKKAACI@?$AAl?$AAv?$AA?9?$AAL?$AAV@ 0000000180071258     libucrt:lcidtoname_downlevel.obj
 0002:00007268       ??_C@_1M@IFGBIJO@?$AAl?$AAt?$AA?9?$AAL?$AAT@ 0000000180071268     libucrt:lcidtoname_downlevel.obj
 0002:00007278       ??_C@_1M@FGEAHEDM@?$AAf?$AAa?$AA?9?$AAI?$AAR@ 0000000180071278     libucrt:lcidtoname_downlevel.obj
 0002:00007288       ??_C@_1M@KBMAIBFN@?$AAv?$AAi?$AA?9?$AAV?$AAN@ 0000000180071288     libucrt:lcidtoname_downlevel.obj
 0002:00007298       ??_C@_1M@GPCBKDJK@?$AAh?$AAy?$AA?9?$AAA?$AAM@ 0000000180071298     libucrt:lcidtoname_downlevel.obj
 0002:000072a8       ??_C@_1BG@BECMDDJB@?$AAa?$AAz?$AA?9?$AAA?$AAZ?$AA?9?$AAL?$AAa?$AAt?$AAn@ 00000001800712a8     libucrt:lcidtoname_downlevel.obj
 0002:000072c0       ??_C@_1M@MAOFCAEA@?$AAe?$AAu?$AA?9?$AAE?$AAS@ 00000001800712c0     libucrt:lcidtoname_downlevel.obj
 0002:000072d0       ??_C@_1M@IGHABKPI@?$AAm?$AAk?$AA?9?$AAM?$AAK@ 00000001800712d0     libucrt:lcidtoname_downlevel.obj
 0002:000072e0       ??_C@_1M@IAIGNEJG@?$AAt?$AAn?$AA?9?$AAZ?$AAA@ 00000001800712e0     libucrt:lcidtoname_downlevel.obj
 0002:000072f0       ??_C@_1M@IIJCOJFA@?$AAx?$AAh?$AA?9?$AAZ?$AAA@ 00000001800712f0     libucrt:lcidtoname_downlevel.obj
 0002:00007300       ??_C@_1M@LGPJHNJH@?$AAz?$AAu?$AA?9?$AAZ?$AAA@ 0000000180071300     libucrt:lcidtoname_downlevel.obj
 0002:00007310       ??_C@_1M@HOKAOIO@?$AAa?$AAf?$AA?9?$AAZ?$AAA@ 0000000180071310     libucrt:lcidtoname_downlevel.obj
 0002:00007320       ??_C@_1M@DPCLHLIE@?$AAk?$AAa?$AA?9?$AAG?$AAE@ 0000000180071320     libucrt:lcidtoname_downlevel.obj
 0002:00007330       ??_C@_1M@BLKMHJBI@?$AAf?$AAo?$AA?9?$AAF?$AAO@ 0000000180071330     libucrt:lcidtoname_downlevel.obj
 0002:00007340       ??_C@_1M@LGGJAPPB@?$AAh?$AAi?$AA?9?$AAI?$AAN@ 0000000180071340     libucrt:lcidtoname_downlevel.obj
 0002:00007350       ??_C@_1M@FIKPIHFE@?$AAm?$AAt?$AA?9?$AAM?$AAT@ 0000000180071350     libucrt:lcidtoname_downlevel.obj
 0002:00007360       ??_C@_1M@HEGGPBFA@?$AAs?$AAe?$AA?9?$AAN?$AAO@ 0000000180071360     libucrt:lcidtoname_downlevel.obj
 0002:00007370       ??_C@_1M@EIBJEEPA@?$AAm?$AAs?$AA?9?$AAM?$AAY@ 0000000180071370     libucrt:lcidtoname_downlevel.obj
 0002:00007380       ??_C@_1M@FHLBGMPP@?$AAk?$AAk?$AA?9?$AAK?$AAZ@ 0000000180071380     libucrt:lcidtoname_downlevel.obj
 0002:00007390       ??_C@_1M@NGJJLCGI@?$AAk?$AAy?$AA?9?$AAK?$AAG@ 0000000180071390     libucrt:lcidtoname_downlevel.obj
 0002:000073a0       ??_C@_1M@GIENNBFC@?$AAs?$AAw?$AA?9?$AAK?$AAE@ 00000001800713a0     libucrt:lcidtoname_downlevel.obj
 0002:000073b0       ??_C@_1BG@NDGMJIMJ@?$AAu?$AAz?$AA?9?$AAU?$AAZ?$AA?9?$AAL?$AAa?$AAt?$AAn@ 00000001800713b0     libucrt:lcidtoname_downlevel.obj
 0002:000073c8       ??_C@_1M@IDCCIHBC@?$AAt?$AAt?$AA?9?$AAR?$AAU@ 00000001800713c8     libucrt:lcidtoname_downlevel.obj
 0002:000073d8       ??_C@_1M@LOICPMOJ@?$AAb?$AAn?$AA?9?$AAI?$AAN@ 00000001800713d8     libucrt:lcidtoname_downlevel.obj
 0002:000073e8       ??_C@_1M@KPKKNEAH@?$AAp?$AAa?$AA?9?$AAI?$AAN@ 00000001800713e8     libucrt:lcidtoname_downlevel.obj
 0002:000073f8       ??_C@_1M@PJGPPBOG@?$AAg?$AAu?$AA?9?$AAI?$AAN@ 00000001800713f8     libucrt:lcidtoname_downlevel.obj
 0002:00007408       ??_C@_1M@KMKMOPHI@?$AAt?$AAa?$AA?9?$AAI?$AAN@ 0000000180071408     libucrt:lcidtoname_downlevel.obj
 0002:00007418       ??_C@_1M@KFEHEPAC@?$AAt?$AAe?$AA?9?$AAI?$AAN@ 0000000180071418     libucrt:lcidtoname_downlevel.obj
 0002:00007428       ??_C@_1M@CDCLMGHI@?$AAk?$AAn?$AA?9?$AAI?$AAN@ 0000000180071428     libucrt:lcidtoname_downlevel.obj
 0002:00007438       ??_C@_1M@MIODLDKF@?$AAm?$AAl?$AA?9?$AAI?$AAN@ 0000000180071438     libucrt:lcidtoname_downlevel.obj
 0002:00007448       ??_C@_1M@PBIEACPO@?$AAm?$AAr?$AA?9?$AAI?$AAN@ 0000000180071448     libucrt:lcidtoname_downlevel.obj
 0002:00007458       ??_C@_1M@NIDEAGPH@?$AAs?$AAa?$AA?9?$AAI?$AAN@ 0000000180071458     libucrt:lcidtoname_downlevel.obj
 0002:00007468       ??_C@_1M@FHIHCBIO@?$AAm?$AAn?$AA?9?$AAM?$AAN@ 0000000180071468     libucrt:lcidtoname_downlevel.obj
 0002:00007478       ??_C@_1M@JAIJPENP@?$AAc?$AAy?$AA?9?$AAG?$AAB@ 0000000180071478     libucrt:lcidtoname_downlevel.obj
 0002:00007488       ??_C@_1M@PHGFBEPN@?$AAg?$AAl?$AA?9?$AAE?$AAS@ 0000000180071488     libucrt:lcidtoname_downlevel.obj
 0002:00007498       ??_C@_1O@KPIPDNCP@?$AAk?$AAo?$AAk?$AA?9?$AAI?$AAN@ 0000000180071498     libucrt:lcidtoname_downlevel.obj
 0002:000074a8       ??_C@_1O@KNHJLDJA@?$AAs?$AAy?$AAr?$AA?9?$AAS?$AAY@ 00000001800714a8     libucrt:lcidtoname_downlevel.obj
 0002:000074b8       ??_C@_1O@MKEKBLAH@?$AAd?$AAi?$AAv?$AA?9?$AAM?$AAV@ 00000001800714b8     libucrt:lcidtoname_downlevel.obj
 0002:000074c8       ??_C@_1O@OHDCKDDF@?$AAq?$AAu?$AAz?$AA?9?$AAB?$AAO@ 00000001800714c8     libucrt:lcidtoname_downlevel.obj
 0002:000074d8       ??_C@_1M@LEPJNLFD@?$AAn?$AAs?$AA?9?$AAZ?$AAA@ 00000001800714d8     libucrt:lcidtoname_downlevel.obj
 0002:000074e8       ??_C@_1M@OMLEIIJB@?$AAm?$AAi?$AA?9?$AAN?$AAZ@ 00000001800714e8     libucrt:lcidtoname_downlevel.obj
 0002:000074f8       ??_C@_1M@PMPEAILG@?$AAa?$AAr?$AA?9?$AAI?$AAQ@ 00000001800714f8     libucrt:lcidtoname_downlevel.obj
 0002:00007508       ??_C@_1M@CNKPNOEE@?$AAd?$AAe?$AA?9?$AAC?$AAH@ 0000000180071508     libucrt:lcidtoname_downlevel.obj
 0002:00007518       ??_C@_1M@LKMGMLKO@?$AAe?$AAn?$AA?9?$AAG?$AAB@ 0000000180071518     libucrt:lcidtoname_downlevel.obj
 0002:00007528       ??_C@_1M@PGKJFFGL@?$AAe?$AAs?$AA?9?$AAM?$AAX@ 0000000180071528     libucrt:lcidtoname_downlevel.obj
 0002:00007538       ??_C@_1M@DNNANBDC@?$AAf?$AAr?$AA?9?$AAB?$AAE@ 0000000180071538     libucrt:lcidtoname_downlevel.obj
 0002:00007548       ??_C@_1M@HLGMDFHM@?$AAi?$AAt?$AA?9?$AAC?$AAH@ 0000000180071548     libucrt:lcidtoname_downlevel.obj
 0002:00007558       ??_C@_1M@CLLBGJH@?$AAn?$AAl?$AA?9?$AAB?$AAE@ 0000000180071558     libucrt:lcidtoname_downlevel.obj
 0002:00007568       ??_C@_1M@BODBOGLF@?$AAn?$AAn?$AA?9?$AAN?$AAO@ 0000000180071568     libucrt:lcidtoname_downlevel.obj
 0002:00007578       ??_C@_1M@HFFAHKAD@?$AAp?$AAt?$AA?9?$AAP?$AAT@ 0000000180071578     libucrt:lcidtoname_downlevel.obj
 0002:00007588       ??_C@_1BG@LNOAKHIE@?$AAs?$AAr?$AA?9?$AAS?$AAP?$AA?9?$AAL?$AAa?$AAt?$AAn@ 0000000180071588     libucrt:lcidtoname_downlevel.obj
 0002:000075a0       ??_C@_1M@HBMHBGAK@?$AAs?$AAv?$AA?9?$AAF?$AAI@ 00000001800715a0     libucrt:lcidtoname_downlevel.obj
 0002:000075b0       ??_C@_1BG@DGCJGJBE@?$AAa?$AAz?$AA?9?$AAA?$AAZ?$AA?9?$AAC?$AAy?$AAr?$AAl@ 00000001800715b0     libucrt:lcidtoname_downlevel.obj
 0002:000075c8       ??_C@_1M@KEJDAAHB@?$AAs?$AAe?$AA?9?$AAS?$AAE@ 00000001800715c8     libucrt:lcidtoname_downlevel.obj
 0002:000075d8       ??_C@_1M@HEIBJJAD@?$AAm?$AAs?$AA?9?$AAB?$AAN@ 00000001800715d8     libucrt:lcidtoname_downlevel.obj
 0002:000075e8       ??_C@_1BG@PBGJMCEM@?$AAu?$AAz?$AA?9?$AAU?$AAZ?$AA?9?$AAC?$AAy?$AAr?$AAl@ 00000001800715e8     libucrt:lcidtoname_downlevel.obj
 0002:00007600       ??_C@_1O@LAOBCMDF@?$AAq?$AAu?$AAz?$AA?9?$AAE?$AAC@ 0000000180071600     libucrt:lcidtoname_downlevel.obj
 0002:00007610       ??_C@_1M@POEEMAIO@?$AAa?$AAr?$AA?9?$AAE?$AAG@ 0000000180071610     libucrt:lcidtoname_downlevel.obj
 0002:00007620       ??_C@_1M@EFAKDEDL@?$AAz?$AAh?$AA?9?$AAH?$AAK@ 0000000180071620     libucrt:lcidtoname_downlevel.obj
 0002:00007630       ??_C@_1M@HKKIJHGI@?$AAd?$AAe?$AA?9?$AAA?$AAT@ 0000000180071630     libucrt:lcidtoname_downlevel.obj
 0002:00007640       ??_C@_1M@KBFBEHJF@?$AAe?$AAn?$AA?9?$AAA?$AAU@ 0000000180071640     libucrt:lcidtoname_downlevel.obj
 0002:00007650       ??_C@_1M@MNPLFAAH@?$AAe?$AAs?$AA?9?$AAE?$AAS@ 0000000180071650     libucrt:lcidtoname_downlevel.obj
 0002:00007660       ??_C@_1M@HJOOJFMA@?$AAf?$AAr?$AA?9?$AAC?$AAA@ 0000000180071660     libucrt:lcidtoname_downlevel.obj
 0002:00007670       ??_C@_1BG@JPOFPNAB@?$AAs?$AAr?$AA?9?$AAS?$AAP?$AA?9?$AAC?$AAy?$AAr?$AAl@ 0000000180071670     libucrt:lcidtoname_downlevel.obj
 0002:00007688       ??_C@_1M@LNFOCMOB@?$AAs?$AAe?$AA?9?$AAF?$AAI@ 0000000180071688     libucrt:lcidtoname_downlevel.obj
 0002:00007698       ??_C@_1O@MGJBOAMB@?$AAq?$AAu?$AAz?$AA?9?$AAP?$AAE@ 0000000180071698     libucrt:lcidtoname_downlevel.obj
 0002:000076a8       ??_C@_1M@GJINLBOK@?$AAa?$AAr?$AA?9?$AAL?$AAY@ 00000001800716a8     libucrt:lcidtoname_downlevel.obj
 0002:000076b8       ??_C@_1M@GGMNHJNL@?$AAz?$AAh?$AA?9?$AAS?$AAG@ 00000001800716b8     libucrt:lcidtoname_downlevel.obj
 0002:000076c8       ??_C@_1M@HOIKODND@?$AAd?$AAe?$AA?9?$AAL?$AAU@ 00000001800716c8     libucrt:lcidtoname_downlevel.obj
 0002:000076d8       ??_C@_1M@DDOCCGFG@?$AAe?$AAn?$AA?9?$AAC?$AAA@ 00000001800716d8     libucrt:lcidtoname_downlevel.obj
 0002:000076e8       ??_C@_1M@BNOEMJLF@?$AAe?$AAs?$AA?9?$AAG?$AAT@ 00000001800716e8     libucrt:lcidtoname_downlevel.obj
 0002:000076f8       ??_C@_1M@EOGNKEK@?$AAf?$AAr?$AA?9?$AAC?$AAH@ 00000001800716f8     libucrt:lcidtoname_downlevel.obj
 0002:00007708       ??_C@_1M@FLIDJFHL@?$AAh?$AAr?$AA?9?$AAB?$AAA@ 0000000180071708     libucrt:lcidtoname_downlevel.obj
 0002:00007718       ??_C@_1O@FMCELNAJ@?$AAs?$AAm?$AAj?$AA?9?$AAN?$AAO@ 0000000180071718     libucrt:lcidtoname_downlevel.obj
 0002:00007728       ??_C@_1M@JHGLJMGJ@?$AAa?$AAr?$AA?9?$AAD?$AAZ@ 0000000180071728     libucrt:lcidtoname_downlevel.obj
 0002:00007738       ??_C@_1M@JKKFDCNP@?$AAz?$AAh?$AA?9?$AAM?$AAO@ 0000000180071738     libucrt:lcidtoname_downlevel.obj
 0002:00007748       ??_C@_1M@GEEFALPE@?$AAd?$AAe?$AA?9?$AAL?$AAI@ 0000000180071748     libucrt:lcidtoname_downlevel.obj
 0002:00007758       ??_C@_1M@IGEOFBG@?$AAe?$AAn?$AA?9?$AAN?$AAZ@ 0000000180071758     libucrt:lcidtoname_downlevel.obj
 0002:00007768       ??_C@_1M@KDBONEHP@?$AAe?$AAs?$AA?9?$AAC?$AAR@ 0000000180071768     libucrt:lcidtoname_downlevel.obj
 0002:00007778       ??_C@_1M@FHMDOHNN@?$AAf?$AAr?$AA?9?$AAL?$AAU@ 0000000180071778     libucrt:lcidtoname_downlevel.obj
 0002:00007788       ??_C@_1BG@NFKKMAFG@?$AAb?$AAs?$AA?9?$AAB?$AAA?$AA?9?$AAL?$AAa?$AAt?$AAn@ 0000000180071788     libucrt:lcidtoname_downlevel.obj
 0002:000077a0       ??_C@_1O@IMNBEMCI@?$AAs?$AAm?$AAj?$AA?9?$AAS?$AAE@ 00000001800717a0     libucrt:lcidtoname_downlevel.obj
 0002:000077b0       ??_C@_1M@DHHMBNDP@?$AAa?$AAr?$AA?9?$AAM?$AAA@ 00000001800717b0     libucrt:lcidtoname_downlevel.obj
 0002:000077c0       ??_C@_1M@BNBLJCGH@?$AAe?$AAn?$AA?9?$AAI?$AAE@ 00000001800717c0     libucrt:lcidtoname_downlevel.obj
 0002:000077d0       ??_C@_1M@GEPAFMDL@?$AAe?$AAs?$AA?9?$AAP?$AAA@ 00000001800717d0     libucrt:lcidtoname_downlevel.obj
 0002:000077e0       ??_C@_1M@OJONDMDL@?$AAf?$AAr?$AA?9?$AAM?$AAC@ 00000001800717e0     libucrt:lcidtoname_downlevel.obj
 0002:000077f0       ??_C@_1BG@OBCNFJB@?$AAs?$AAr?$AA?9?$AAB?$AAA?$AA?9?$AAL?$AAa?$AAt?$AAn@ 00000001800717f0     libucrt:lcidtoname_downlevel.obj
 0002:00007808       ??_C@_1O@KEMEEGPO@?$AAs?$AAm?$AAa?$AA?9?$AAN?$AAO@ 0000000180071808     libucrt:lcidtoname_downlevel.obj
 0002:00007818       ??_C@_1M@ELMGFODK@?$AAa?$AAr?$AA?9?$AAT?$AAN@ 0000000180071818     libucrt:lcidtoname_downlevel.obj
 0002:00007828       ??_C@_1M@BHDLHFAF@?$AAe?$AAn?$AA?9?$AAZ?$AAA@ 0000000180071828     libucrt:lcidtoname_downlevel.obj
 0002:00007838       ??_C@_1M@BMGIGLIF@?$AAe?$AAs?$AA?9?$AAD?$AAO@ 0000000180071838     libucrt:lcidtoname_downlevel.obj
 0002:00007848       ??_C@_1BG@CMBHIPBE@?$AAs?$AAr?$AA?9?$AAB?$AAA?$AA?9?$AAC?$AAy?$AAr?$AAl@ 0000000180071848     libucrt:lcidtoname_downlevel.obj
 0002:00007860       ??_C@_1O@HEDBLHNP@?$AAs?$AAm?$AAa?$AA?9?$AAS?$AAE@ 0000000180071860     libucrt:lcidtoname_downlevel.obj
 0002:00007870       ??_C@_1M@DAGCADIM@?$AAa?$AAr?$AA?9?$AAO?$AAM@ 0000000180071870     libucrt:lcidtoname_downlevel.obj
 0002:00007880       ??_C@_1M@FODLMICG@?$AAe?$AAn?$AA?9?$AAJ?$AAM@ 0000000180071880     libucrt:lcidtoname_downlevel.obj
 0002:00007890       ??_C@_1M@DNMLCIHB@?$AAe?$AAs?$AA?9?$AAV?$AAE@ 0000000180071890     libucrt:lcidtoname_downlevel.obj
 0002:000078a0       ??_C@_1O@EOKHMKJK@?$AAs?$AAm?$AAs?$AA?9?$AAF?$AAI@ 00000001800718a0     libucrt:lcidtoname_downlevel.obj
 0002:000078b0       ??_C@_1M@CAFJMKOF@?$AAa?$AAr?$AA?9?$AAY?$AAE@ 00000001800718b0     libucrt:lcidtoname_downlevel.obj
 0002:000078c0       ??_C@_1M@CBFHIJLI@?$AAe?$AAn?$AA?9?$AAC?$AAB@ 00000001800718c0     libucrt:lcidtoname_downlevel.obj
 0002:000078d0       ??_C@_1M@BGNFLDN@?$AAe?$AAs?$AA?9?$AAC?$AAO@ 00000001800718d0     libucrt:lcidtoname_downlevel.obj
 0002:000078e0       ??_C@_1O@JMPHMAMC@?$AAs?$AAm?$AAn?$AA?9?$AAF?$AAI@ 00000001800718e0     libucrt:lcidtoname_downlevel.obj
 0002:000078f0       ??_C@_1M@JLANABKE@?$AAa?$AAr?$AA?9?$AAS?$AAY@ 00000001800718f0     libucrt:lcidtoname_downlevel.obj
 0002:00007900       ??_C@_1M@HPKGCFGN@?$AAe?$AAn?$AA?9?$AAB?$AAZ@ 0000000180071900     libucrt:lcidtoname_downlevel.obj
 0002:00007910       ??_C@_1M@OLJCMLGM@?$AAe?$AAs?$AA?9?$AAP?$AAE@ 0000000180071910     libucrt:lcidtoname_downlevel.obj
 0002:00007920       ??_C@_1M@MKKGFKLE@?$AAa?$AAr?$AA?9?$AAJ?$AAO@ 0000000180071920     libucrt:lcidtoname_downlevel.obj
 0002:00007930       ??_C@_1M@EKPGLDNI@?$AAe?$AAn?$AA?9?$AAT?$AAT@ 0000000180071930     libucrt:lcidtoname_downlevel.obj
 0002:00007940       ??_C@_1M@OONGHFHE@?$AAe?$AAs?$AA?9?$AAA?$AAR@ 0000000180071940     libucrt:lcidtoname_downlevel.obj
 0002:00007950       ??_C@_1M@OOJFGBHE@?$AAa?$AAr?$AA?9?$AAL?$AAB@ 0000000180071950     libucrt:lcidtoname_downlevel.obj
 0002:00007960       ??_C@_1M@GCEJHNEG@?$AAe?$AAn?$AA?9?$AAZ?$AAW@ 0000000180071960     libucrt:lcidtoname_downlevel.obj
 0002:00007970       ??_C@_1M@JNOCAHJI@?$AAe?$AAs?$AA?9?$AAE?$AAC@ 0000000180071970     libucrt:lcidtoname_downlevel.obj
 0002:00007980       ??_C@_1M@JEFHPGGB@?$AAa?$AAr?$AA?9?$AAK?$AAW@ 0000000180071980     libucrt:lcidtoname_downlevel.obj
 0002:00007990       ??_C@_1M@MLKIBJOJ@?$AAe?$AAn?$AA?9?$AAP?$AAH@ 0000000180071990     libucrt:lcidtoname_downlevel.obj
 0002:000079a0       ??_C@_1M@BDNIPEND@?$AAe?$AAs?$AA?9?$AAC?$AAL@ 00000001800719a0     libucrt:lcidtoname_downlevel.obj
 0002:000079b0       ??_C@_1M@MPNMEKBD@?$AAa?$AAr?$AA?9?$AAA?$AAE@ 00000001800719b0     libucrt:lcidtoname_downlevel.obj
 0002:000079c0       ??_C@_1M@KBJALCPI@?$AAe?$AAs?$AA?9?$AAU?$AAY@ 00000001800719c0     libucrt:lcidtoname_downlevel.obj
 0002:000079d0       ??_C@_1M@LLCCOAGA@?$AAa?$AAr?$AA?9?$AAB?$AAH@ 00000001800719d0     libucrt:lcidtoname_downlevel.obj
 0002:000079e0       ??_C@_1M@PBFNCDEL@?$AAe?$AAs?$AA?9?$AAP?$AAY@ 00000001800719e0     libucrt:lcidtoname_downlevel.obj
 0002:000079f0       ??_C@_1M@EDGINPNP@?$AAa?$AAr?$AA?9?$AAQ?$AAA@ 00000001800719f0     libucrt:lcidtoname_downlevel.obj
 0002:00007a00       ??_C@_1M@MKDBIIJI@?$AAe?$AAs?$AA?9?$AAB?$AAO@ 0000000180071a00     libucrt:lcidtoname_downlevel.obj
 0002:00007a10       ??_C@_1M@CPKKEBLD@?$AAe?$AAs?$AA?9?$AAS?$AAV@ 0000000180071a10     libucrt:lcidtoname_downlevel.obj
 0002:00007a20       ??_C@_1M@NDBGMMJL@?$AAe?$AAs?$AA?9?$AAH?$AAN@ 0000000180071a20     libucrt:lcidtoname_downlevel.obj
 0002:00007a30       ??_C@_1M@JIJIBHDP@?$AAe?$AAs?$AA?9?$AAN?$AAI@ 0000000180071a30     libucrt:lcidtoname_downlevel.obj
 0002:00007a40       ??_C@_1M@CGFMKEEK@?$AAe?$AAs?$AA?9?$AAP?$AAR@ 0000000180071a40     libucrt:lcidtoname_downlevel.obj
 0002:00007a50       ??_C@_1O@ICJHKIIK@?$AAz?$AAh?$AA?9?$AAC?$AAH?$AAT@ 0000000180071a50     libucrt:lcidtoname_downlevel.obj
 0002:00007a60       ??_C@_15CLNEJCE@?$AAs?$AAr@ 0000000180071a60     libucrt:lcidtoname_downlevel.obj
 0002:000088b0       ??_C@_1M@KAHEKEIG@?$AAa?$AAf?$AA?9?$AAz?$AAa@ 00000001800728b0     libucrt:lcidtoname_downlevel.obj
 0002:000088c0       ??_C@_1M@GIECOABL@?$AAa?$AAr?$AA?9?$AAa?$AAe@ 00000001800728c0     libucrt:lcidtoname_downlevel.obj
 0002:000088d0       ??_C@_1M@BMLMEKGI@?$AAa?$AAr?$AA?9?$AAb?$AAh@ 00000001800728d0     libucrt:lcidtoname_downlevel.obj
 0002:000088e0       ??_C@_1M@DAPFDGGB@?$AAa?$AAr?$AA?9?$AAd?$AAz@ 00000001800728e0     libucrt:lcidtoname_downlevel.obj
 0002:000088f0       ??_C@_1M@FJNKGKIG@?$AAa?$AAr?$AA?9?$AAe?$AAg@ 00000001800728f0     libucrt:lcidtoname_downlevel.obj
 0002:00008900       ??_C@_1M@FLGKKCLO@?$AAa?$AAr?$AA?9?$AAi?$AAq@ 0000000180072900     libucrt:lcidtoname_downlevel.obj
 0002:00008910       ??_C@_1M@GNDIPALM@?$AAa?$AAr?$AA?9?$AAj?$AAo@ 0000000180072910     libucrt:lcidtoname_downlevel.obj
 0002:00008920       ??_C@_1M@DDMJFMGJ@?$AAa?$AAr?$AA?9?$AAk?$AAw@ 0000000180072920     libucrt:lcidtoname_downlevel.obj
 0002:00008930       ??_C@_1M@EJALMLHM@?$AAa?$AAr?$AA?9?$AAl?$AAb@ 0000000180072930     libucrt:lcidtoname_downlevel.obj
 0002:00008940       ??_C@_1M@MOBDBLOC@?$AAa?$AAr?$AA?9?$AAl?$AAy@ 0000000180072940     libucrt:lcidtoname_downlevel.obj
 0002:00008950       ??_C@_1M@JAOCLHDH@?$AAa?$AAr?$AA?9?$AAm?$AAa@ 0000000180072950     libucrt:lcidtoname_downlevel.obj
 0002:00008960       ??_C@_1M@JHPMKJIE@?$AAa?$AAr?$AA?9?$AAo?$AAm@ 0000000180072960     libucrt:lcidtoname_downlevel.obj
 0002:00008970       ??_C@_1M@OEPGHFNH@?$AAa?$AAr?$AA?9?$AAq?$AAa@ 0000000180072970     libucrt:lcidtoname_downlevel.obj
 0002:00008980       ??_C@_1M@KJDONENM@?$AAa?$AAr?$AA?9?$AAs?$AAa@ 0000000180072980     libucrt:lcidtoname_downlevel.obj
 0002:00008990       ??_C@_1M@DMJDKLKM@?$AAa?$AAr?$AA?9?$AAs?$AAy@ 0000000180072990     libucrt:lcidtoname_downlevel.obj
 0002:000089a0       ??_C@_1M@OMFIPEDC@?$AAa?$AAr?$AA?9?$AAt?$AAn@ 00000001800729a0     libucrt:lcidtoname_downlevel.obj
 0002:000089b0       ??_C@_1M@IHMHGAON@?$AAa?$AAr?$AA?9?$AAy?$AAe@ 00000001800729b0     libucrt:lcidtoname_downlevel.obj
 0002:000089c0       ??_C@_1BG@KDCPGJGB@?$AAa?$AAz?$AA?9?$AAa?$AAz?$AA?9?$AAc?$AAy?$AAr?$AAl@ 00000001800729c0     libucrt:lcidtoname_downlevel.obj
 0002:000089d8       ??_C@_1BG@IBCKDDOE@?$AAa?$AAz?$AA?9?$AAa?$AAz?$AA?9?$AAl?$AAa?$AAt?$AAn@ 00000001800729d8     libucrt:lcidtoname_downlevel.obj
 0002:000089f0       ??_C@_1M@EGPFDCPD@?$AAb?$AAe?$AA?9?$AAb?$AAy@ 00000001800729f0     libucrt:lcidtoname_downlevel.obj
 0002:00008a00       ??_C@_1M@PCMGMCGC@?$AAb?$AAg?$AA?9?$AAb?$AAg@ 0000000180072a00     libucrt:lcidtoname_downlevel.obj
 0002:00008a10       ??_C@_1M@BJBMFGOB@?$AAb?$AAn?$AA?9?$AAi?$AAn@ 0000000180072a10     libucrt:lcidtoname_downlevel.obj
 0002:00008a20       ??_C@_1BG@EAKMMACD@?$AAb?$AAs?$AA?9?$AAb?$AAa?$AA?9?$AAl?$AAa?$AAt?$AAn@ 0000000180072a20     libucrt:lcidtoname_downlevel.obj
 0002:00008a38       ??_C@_1M@KGADAODK@?$AAc?$AAa?$AA?9?$AAe?$AAs@ 0000000180072a38     libucrt:lcidtoname_downlevel.obj
 0002:00008a48       ??_C@_1M@COAJPDHI@?$AAc?$AAs?$AA?9?$AAc?$AAz@ 0000000180072a48     libucrt:lcidtoname_downlevel.obj
 0002:00008a58       ??_C@_1M@DHBHFONH@?$AAc?$AAy?$AA?9?$AAg?$AAb@ 0000000180072a58     libucrt:lcidtoname_downlevel.obj
 0002:00008a68       ??_C@_1M@IMGKELGA@?$AAd?$AAa?$AA?9?$AAd?$AAk@ 0000000180072a68     libucrt:lcidtoname_downlevel.obj
 0002:00008a78       ??_C@_1M@NNDGDNGA@?$AAd?$AAe?$AA?9?$AAa?$AAt@ 0000000180072a78     libucrt:lcidtoname_downlevel.obj
 0002:00008a88       ??_C@_1M@IKDBHEEM@?$AAd?$AAe?$AA?9?$AAc?$AAh@ 0000000180072a88     libucrt:lcidtoname_downlevel.obj
 0002:00008a98       ??_C@_1M@GFFOJMCJ@?$AAd?$AAe?$AA?9?$AAd?$AAe@ 0000000180072a98     libucrt:lcidtoname_downlevel.obj
 0002:00008aa8       ??_C@_1M@MDNLKBPM@?$AAd?$AAe?$AA?9?$AAl?$AAi@ 0000000180072aa8     libucrt:lcidtoname_downlevel.obj
 0002:00008ab8       ??_C@_1M@NJBEEJNL@?$AAd?$AAe?$AA?9?$AAl?$AAu@ 0000000180072ab8     libucrt:lcidtoname_downlevel.obj
 0002:00008ac8       ??_C@_1O@GNNELBAP@?$AAd?$AAi?$AAv?$AA?9?$AAm?$AAv@ 0000000180072ac8     libucrt:lcidtoname_downlevel.obj
 0002:00008ad8       ??_C@_1M@EJLEOGAE@?$AAe?$AAl?$AA?9?$AAg?$AAr@ 0000000180072ad8     libucrt:lcidtoname_downlevel.obj
 0002:00008ae8       ??_C@_1M@GMPONJN@?$AAe?$AAn?$AA?9?$AAa?$AAu@ 0000000180072ae8     libucrt:lcidtoname_downlevel.obj
 0002:00008af8       ??_C@_1M@NIDIIPGF@?$AAe?$AAn?$AA?9?$AAb?$AAz@ 0000000180072af8     libucrt:lcidtoname_downlevel.obj
 0002:00008b08       ??_C@_1M@JEHMIMFO@?$AAe?$AAn?$AA?9?$AAc?$AAa@ 0000000180072b08     libucrt:lcidtoname_downlevel.obj
 0002:00008b18       ??_C@_1M@IGMJCDLA@?$AAe?$AAn?$AA?9?$AAc?$AAb@ 0000000180072b18     libucrt:lcidtoname_downlevel.obj
 0002:00008b28       ??_C@_1M@BNFIGBKG@?$AAe?$AAn?$AA?9?$AAg?$AAb@ 0000000180072b28     libucrt:lcidtoname_downlevel.obj
 0002:00008b38       ??_C@_1M@LKIFDIGP@?$AAe?$AAn?$AA?9?$AAi?$AAe@ 0000000180072b38     libucrt:lcidtoname_downlevel.obj
 0002:00008b48       ??_C@_1M@PJKFGCCO@?$AAe?$AAn?$AA?9?$AAj?$AAm@ 0000000180072b48     libucrt:lcidtoname_downlevel.obj
 0002:00008b58       ??_C@_1M@KPPKEPBO@?$AAe?$AAn?$AA?9?$AAn?$AAz@ 0000000180072b58     libucrt:lcidtoname_downlevel.obj
 0002:00008b68       ??_C@_1M@GMDGLDOB@?$AAe?$AAn?$AA?9?$AAp?$AAh@ 0000000180072b68     libucrt:lcidtoname_downlevel.obj
 0002:00008b78       ??_C@_1M@ONGIBJNA@?$AAe?$AAn?$AA?9?$AAt?$AAt@ 0000000180072b78     libucrt:lcidtoname_downlevel.obj
 0002:00008b88       ??_C@_1M@LLODPCMM@?$AAe?$AAn?$AA?9?$AAu?$AAs@ 0000000180072b88     libucrt:lcidtoname_downlevel.obj
 0002:00008b98       ??_C@_1M@LAKFNPAN@?$AAe?$AAn?$AA?9?$AAz?$AAa@ 0000000180072b98     libucrt:lcidtoname_downlevel.obj
 0002:00008ba8       ??_C@_1M@MFNHNHEO@?$AAe?$AAn?$AA?9?$AAz?$AAw@ 0000000180072ba8     libucrt:lcidtoname_downlevel.obj
 0002:00008bb8       ??_C@_1M@EJEINPHM@?$AAe?$AAs?$AA?9?$AAa?$AAr@ 0000000180072bb8     libucrt:lcidtoname_downlevel.obj
 0002:00008bc8       ??_C@_1M@GNKPCCJA@?$AAe?$AAs?$AA?9?$AAb?$AAo@ 0000000180072bc8     libucrt:lcidtoname_downlevel.obj
 0002:00008bd8       ??_C@_1M@LEEGFONL@?$AAe?$AAs?$AA?9?$AAc?$AAl@ 0000000180072bd8     libucrt:lcidtoname_downlevel.obj
 0002:00008be8       ??_C@_1M@KGPDPBDF@?$AAe?$AAs?$AA?9?$AAc?$AAo@ 0000000180072be8     libucrt:lcidtoname_downlevel.obj
 0002:00008bf8       ??_C@_1M@EIAHOHH@?$AAe?$AAs?$AA?9?$AAc?$AAr@ 0000000180072bf8     libucrt:lcidtoname_downlevel.obj
 0002:00008c08       ??_C@_1M@LLPGMBIN@?$AAe?$AAs?$AA?9?$AAd?$AAo@ 0000000180072c08     libucrt:lcidtoname_downlevel.obj
 0002:00008c18       ??_C@_1M@DKHMKNJA@?$AAe?$AAs?$AA?9?$AAe?$AAc@ 0000000180072c18     libucrt:lcidtoname_downlevel.obj
 0002:00008c28       ??_C@_1M@GKGFPKAP@?$AAe?$AAs?$AA?9?$AAe?$AAs@ 0000000180072c28     libucrt:lcidtoname_downlevel.obj
 0002:00008c38       ??_C@_1M@LKHKGDLN@?$AAe?$AAs?$AA?9?$AAg?$AAt@ 0000000180072c38     libucrt:lcidtoname_downlevel.obj
 0002:00008c48       ??_C@_1M@HEIIGGJD@?$AAe?$AAs?$AA?9?$AAh?$AAn@ 0000000180072c48     libucrt:lcidtoname_downlevel.obj
 0002:00008c58       ??_C@_1M@FBDHPPGD@?$AAe?$AAs?$AA?9?$AAm?$AAx@ 0000000180072c58     libucrt:lcidtoname_downlevel.obj
 0002:00008c68       ??_C@_1M@DPAGLNDH@?$AAe?$AAs?$AA?9?$AAn?$AAi@ 0000000180072c68     libucrt:lcidtoname_downlevel.obj
 0002:00008c78       ??_C@_1M@MDGOPGDD@?$AAe?$AAs?$AA?9?$AAp?$AAa@ 0000000180072c78     libucrt:lcidtoname_downlevel.obj
 0002:00008c88       ??_C@_1M@EMAMGBGE@?$AAe?$AAs?$AA?9?$AAp?$AAe@ 0000000180072c88     libucrt:lcidtoname_downlevel.obj
 0002:00008c98       ??_C@_1M@IBMCAOEC@?$AAe?$AAs?$AA?9?$AAp?$AAr@ 0000000180072c98     libucrt:lcidtoname_downlevel.obj
 0002:00008ca8       ??_C@_1M@FGMDIJED@?$AAe?$AAs?$AA?9?$AAp?$AAy@ 0000000180072ca8     libucrt:lcidtoname_downlevel.obj
 0002:00008cb8       ??_C@_1M@IIDEOLLL@?$AAe?$AAs?$AA?9?$AAs?$AAv@ 0000000180072cb8     libucrt:lcidtoname_downlevel.obj
 0002:00008cc8       ??_C@_1M@GAOBIPA@?$AAe?$AAs?$AA?9?$AAu?$AAy@ 0000000180072cc8     libucrt:lcidtoname_downlevel.obj
 0002:00008cd8       ??_C@_1M@JKFFICHJ@?$AAe?$AAs?$AA?9?$AAv?$AAe@ 0000000180072cd8     libucrt:lcidtoname_downlevel.obj
 0002:00008ce8       ??_C@_1M@PNMLOJDF@?$AAe?$AAt?$AA?9?$AAe?$AAe@ 0000000180072ce8     libucrt:lcidtoname_downlevel.obj
 0002:00008cf8       ??_C@_1M@GHHLIKEI@?$AAe?$AAu?$AA?9?$AAe?$AAs@ 0000000180072cf8     libucrt:lcidtoname_downlevel.obj
 0002:00008d08       ??_C@_1M@PBNONODE@?$AAf?$AAa?$AA?9?$AAi?$AAr@ 0000000180072d08     libucrt:lcidtoname_downlevel.obj
 0002:00008d18       ??_C@_1M@JEEHPMIL@?$AAf?$AAi?$AA?9?$AAf?$AAi@ 0000000180072d18     libucrt:lcidtoname_downlevel.obj
 0002:00008d28       ??_C@_1M@LMDCNDBA@?$AAf?$AAo?$AA?9?$AAf?$AAo@ 0000000180072d28     libucrt:lcidtoname_downlevel.obj
 0002:00008d38       ??_C@_1M@JKEOHLDK@?$AAf?$AAr?$AA?9?$AAb?$AAe@ 0000000180072d38     libucrt:lcidtoname_downlevel.obj
 0002:00008d48       ??_C@_1M@NOHADPMI@?$AAf?$AAr?$AA?9?$AAc?$AAa@ 0000000180072d48     libucrt:lcidtoname_downlevel.obj
 0002:00008d58       ??_C@_1M@KDHIHAEC@?$AAf?$AAr?$AA?9?$AAc?$AAh@ 0000000180072d58     libucrt:lcidtoname_downlevel.obj
 0002:00008d68       ??_C@_1M@MMBBFGAK@?$AAf?$AAr?$AA?9?$AAf?$AAr@ 0000000180072d68     libucrt:lcidtoname_downlevel.obj
 0002:00008d78       ??_C@_1M@PAFNENNF@?$AAf?$AAr?$AA?9?$AAl?$AAu@ 0000000180072d78     libucrt:lcidtoname_downlevel.obj
 0002:00008d88       ??_C@_1M@EOHDJGDD@?$AAf?$AAr?$AA?9?$AAm?$AAc@ 0000000180072d88     libucrt:lcidtoname_downlevel.obj
 0002:00008d98       ??_C@_1M@FAPLLOPF@?$AAg?$AAl?$AA?9?$AAe?$AAs@ 0000000180072d98     libucrt:lcidtoname_downlevel.obj
 0002:00008da8       ??_C@_1M@FOPBFLOO@?$AAg?$AAu?$AA?9?$AAi?$AAn@ 0000000180072da8     libucrt:lcidtoname_downlevel.obj
 0002:00008db8       ??_C@_1M@KBMCINPM@?$AAh?$AAe?$AA?9?$AAi?$AAl@ 0000000180072db8     libucrt:lcidtoname_downlevel.obj
 0002:00008dc8       ??_C@_1M@BBPHKFPJ@?$AAh?$AAi?$AA?9?$AAi?$AAn@ 0000000180072dc8     libucrt:lcidtoname_downlevel.obj
 0002:00008dd8       ??_C@_1M@PMBNDPHD@?$AAh?$AAr?$AA?9?$AAb?$AAa@ 0000000180072dd8     libucrt:lcidtoname_downlevel.obj
 0002:00008de8       ??_C@_1M@BPCKOEGE@?$AAh?$AAr?$AA?9?$AAh?$AAr@ 0000000180072de8     libucrt:lcidtoname_downlevel.obj
 0002:00008df8       ??_C@_1M@GACBMHKE@?$AAh?$AAu?$AA?9?$AAh?$AAu@ 0000000180072df8     libucrt:lcidtoname_downlevel.obj
 0002:00008e08       ??_C@_1M@MILPAJJC@?$AAh?$AAy?$AA?9?$AAa?$AAm@ 0000000180072e08     libucrt:lcidtoname_downlevel.obj
 0002:00008e18       ??_C@_1M@BABBICEC@?$AAi?$AAd?$AA?9?$AAi?$AAd@ 0000000180072e18     libucrt:lcidtoname_downlevel.obj
 0002:00008e28       ??_C@_1M@BIKNHHPF@?$AAi?$AAs?$AA?9?$AAi?$AAs@ 0000000180072e28     libucrt:lcidtoname_downlevel.obj
 0002:00008e38       ??_C@_1M@NMPCJPHE@?$AAi?$AAt?$AA?9?$AAc?$AAh@ 0000000180072e38     libucrt:lcidtoname_downlevel.obj
 0002:00008e48       ??_C@_1M@GHKGFEDF@?$AAi?$AAt?$AA?9?$AAi?$AAt@ 0000000180072e48     libucrt:lcidtoname_downlevel.obj
 0002:00008e58       ??_C@_1M@NIEJCJJA@?$AAj?$AAa?$AA?9?$AAj?$AAp@ 0000000180072e58     libucrt:lcidtoname_downlevel.obj
 0002:00008e68       ??_C@_1M@JILFNBIM@?$AAk?$AAa?$AA?9?$AAg?$AAe@ 0000000180072e68     libucrt:lcidtoname_downlevel.obj
 0002:00008e78       ??_C@_1M@PACPMGPH@?$AAk?$AAk?$AA?9?$AAk?$AAz@ 0000000180072e78     libucrt:lcidtoname_downlevel.obj
 0002:00008e88       ??_C@_1M@IELFGMHA@?$AAk?$AAn?$AA?9?$AAi?$AAn@ 0000000180072e88     libucrt:lcidtoname_downlevel.obj
 0002:00008e98       ??_C@_1O@IBBJHCH@?$AAk?$AAo?$AAk?$AA?9?$AAi?$AAn@ 0000000180072e98     libucrt:lcidtoname_downlevel.obj
 0002:00008ea8       ??_C@_1M@DMHAEOGC@?$AAk?$AAo?$AA?9?$AAk?$AAr@ 0000000180072ea8     libucrt:lcidtoname_downlevel.obj
 0002:00008eb8       ??_C@_1M@HBAHBIGA@?$AAk?$AAy?$AA?9?$AAk?$AAg@ 0000000180072eb8     libucrt:lcidtoname_downlevel.obj
 0002:00008ec8       ??_C@_1M@KPMILCJG@?$AAl?$AAt?$AA?9?$AAl?$AAt@ 0000000180072ec8     libucrt:lcidtoname_downlevel.obj
 0002:00008ed8       ??_C@_1M@BDEKKCA@?$AAl?$AAv?$AA?9?$AAl?$AAv@ 0000000180072ed8     libucrt:lcidtoname_downlevel.obj
 0002:00008ee8       ??_C@_1M@ELCKCCJJ@?$AAm?$AAi?$AA?9?$AAn?$AAz@ 0000000180072ee8     libucrt:lcidtoname_downlevel.obj
 0002:00008ef8       ??_C@_1M@CBOOLAPA@?$AAm?$AAk?$AA?9?$AAm?$AAk@ 0000000180072ef8     libucrt:lcidtoname_downlevel.obj
 0002:00008f08       ??_C@_1M@GPHNBJKN@?$AAm?$AAl?$AA?9?$AAi?$AAn@ 0000000180072f08     libucrt:lcidtoname_downlevel.obj
 0002:00008f18       ??_C@_1M@PABJILIG@?$AAm?$AAn?$AA?9?$AAm?$AAn@ 0000000180072f18     libucrt:lcidtoname_downlevel.obj
 0002:00008f28       ??_C@_1M@FGBKKIPG@?$AAm?$AAr?$AA?9?$AAi?$AAn@ 0000000180072f28     libucrt:lcidtoname_downlevel.obj
 0002:00008f38       ??_C@_1M@NDBPDDAL@?$AAm?$AAs?$AA?9?$AAb?$AAn@ 0000000180072f38     libucrt:lcidtoname_downlevel.obj
 0002:00008f48       ??_C@_1M@OPIHOOPI@?$AAm?$AAs?$AA?9?$AAm?$AAy@ 0000000180072f48     libucrt:lcidtoname_downlevel.obj
 0002:00008f58       ??_C@_1M@PPDBCNFM@?$AAm?$AAt?$AA?9?$AAm?$AAt@ 0000000180072f58     libucrt:lcidtoname_downlevel.obj
 0002:00008f68       ??_C@_1M@KDJDKMDD@?$AAn?$AAb?$AA?9?$AAn?$AAo@ 0000000180072f68     libucrt:lcidtoname_downlevel.obj
 0002:00008f78       ??_C@_1M@KFCFLMJP@?$AAn?$AAl?$AA?9?$AAb?$AAe@ 0000000180072f78     libucrt:lcidtoname_downlevel.obj
 0002:00008f88       ??_C@_1M@KPOPDDGO@?$AAn?$AAl?$AA?9?$AAn?$AAl@ 0000000180072f88     libucrt:lcidtoname_downlevel.obj
 0002:00008f98       ??_C@_1M@LJKPEMLN@?$AAn?$AAn?$AA?9?$AAn?$AAo@ 0000000180072f98     libucrt:lcidtoname_downlevel.obj
 0002:00008fa8       ??_C@_1M@BDGHHBFL@?$AAn?$AAs?$AA?9?$AAz?$AAa@ 0000000180072fa8     libucrt:lcidtoname_downlevel.obj
 0002:00008fb8       ??_C@_1M@IDEHOAP@?$AAp?$AAa?$AA?9?$AAi?$AAn@ 0000000180072fb8     libucrt:lcidtoname_downlevel.obj
 0002:00008fc8       ??_C@_1M@HDBKGOGH@?$AAp?$AAl?$AA?9?$AAp?$AAl@ 0000000180072fc8     libucrt:lcidtoname_downlevel.obj
 0002:00008fd8       ??_C@_1M@LJLLCMEH@?$AAp?$AAt?$AA?9?$AAb?$AAr@ 0000000180072fd8     libucrt:lcidtoname_downlevel.obj
 0002:00008fe8       ??_C@_1M@NCMONAAL@?$AAp?$AAt?$AA?9?$AAp?$AAt@ 0000000180072fe8     libucrt:lcidtoname_downlevel.obj
 0002:00008ff8       ??_C@_1O@EAKMAJDN@?$AAq?$AAu?$AAz?$AA?9?$AAb?$AAo@ 0000000180072ff8     libucrt:lcidtoname_downlevel.obj
 0002:00009008       ??_C@_1O@BHHPIGDN@?$AAq?$AAu?$AAz?$AA?9?$AAe?$AAc@ 0000000180073008     libucrt:lcidtoname_downlevel.obj
 0002:00009018       ??_C@_1O@GBAPEKMJ@?$AAq?$AAu?$AAz?$AA?9?$AAp?$AAe@ 0000000180073018     libucrt:lcidtoname_downlevel.obj
 0002:00009028       ??_C@_1M@CLGLEFBO@?$AAr?$AAo?$AA?9?$AAr?$AAo@ 0000000180073028     libucrt:lcidtoname_downlevel.obj
 0002:00009038       ??_C@_1M@CEEDODME@?$AAr?$AAu?$AA?9?$AAr?$AAu@ 0000000180073038     libucrt:lcidtoname_downlevel.obj
 0002:00009048       ??_C@_1M@HPKKKMPP@?$AAs?$AAa?$AA?9?$AAi?$AAn@ 0000000180073048     libucrt:lcidtoname_downlevel.obj
 0002:00009058       ??_C@_1M@BKMAIGOJ@?$AAs?$AAe?$AA?9?$AAf?$AAi@ 0000000180073058     libucrt:lcidtoname_downlevel.obj
 0002:00009068       ??_C@_1M@NDPIFLFI@?$AAs?$AAe?$AA?9?$AAn?$AAo@ 0000000180073068     libucrt:lcidtoname_downlevel.obj
 0002:00009078       ??_C@_1M@DANKKHJ@?$AAs?$AAe?$AA?9?$AAs?$AAe@ 0000000180073078     libucrt:lcidtoname_downlevel.obj
 0002:00009088       ??_C@_1M@PNBLONPJ@?$AAs?$AAk?$AA?9?$AAs?$AAk@ 0000000180073088     libucrt:lcidtoname_downlevel.obj
 0002:00009098       ??_C@_1M@LFMODOAL@?$AAs?$AAl?$AA?9?$AAs?$AAi@ 0000000180073098     libucrt:lcidtoname_downlevel.obj
 0002:000090a8       ??_C@_1O@DFKOMPG@?$AAs?$AAm?$AAa?$AA?9?$AAn?$AAo@ 00000001800730a8     libucrt:lcidtoname_downlevel.obj
 0002:000090b8       ??_C@_1O@NDKPBNNH@?$AAs?$AAm?$AAa?$AA?9?$AAs?$AAe@ 00000001800730b8     libucrt:lcidtoname_downlevel.obj
 0002:000090c8       ??_C@_1O@PLLKBHAB@?$AAs?$AAm?$AAj?$AA?9?$AAn?$AAo@ 00000001800730c8     libucrt:lcidtoname_downlevel.obj
 0002:000090d8       ??_C@_1O@CLEPOGCA@?$AAs?$AAm?$AAj?$AA?9?$AAs?$AAe@ 00000001800730d8     libucrt:lcidtoname_downlevel.obj
 0002:000090e8       ??_C@_1O@DLGJGKMK@?$AAs?$AAm?$AAn?$AA?9?$AAf?$AAi@ 00000001800730e8     libucrt:lcidtoname_downlevel.obj
 0002:000090f8       ??_C@_1O@OJDJGAJC@?$AAs?$AAm?$AAs?$AA?9?$AAf?$AAi@ 00000001800730f8     libucrt:lcidtoname_downlevel.obj
 0002:00009108       ??_C@_1M@BOFOGHPB@?$AAs?$AAq?$AA?9?$AAa?$AAl@ 0000000180073108     libucrt:lcidtoname_downlevel.obj
 0002:00009118       ??_C@_1BG@LJBBIPGB@?$AAs?$AAr?$AA?9?$AAb?$AAa?$AA?9?$AAc?$AAy?$AAr?$AAl@ 0000000180073118     libucrt:lcidtoname_downlevel.obj
 0002:00009130       ??_C@_1BG@JLBENFOE@?$AAs?$AAr?$AA?9?$AAb?$AAa?$AA?9?$AAl?$AAa?$AAt?$AAn@ 0000000180073130     libucrt:lcidtoname_downlevel.obj
 0002:00009148       ??_C@_1BG@KODPNHE@?$AAs?$AAr?$AA?9?$AAs?$AAp?$AA?9?$AAc?$AAy?$AAr?$AAl@ 0000000180073148     libucrt:lcidtoname_downlevel.obj
 0002:00009160       ??_C@_1BG@CIOGKHPB@?$AAs?$AAr?$AA?9?$AAs?$AAp?$AA?9?$AAl?$AAa?$AAt?$AAn@ 0000000180073160     libucrt:lcidtoname_downlevel.obj
 0002:00009178       ??_C@_1M@NGFJLMAC@?$AAs?$AAv?$AA?9?$AAf?$AAi@ 0000000180073178     libucrt:lcidtoname_downlevel.obj
 0002:00009188       ??_C@_1M@MPJEJAJC@?$AAs?$AAv?$AA?9?$AAs?$AAe@ 0000000180073188     libucrt:lcidtoname_downlevel.obj
 0002:00009198       ??_C@_1M@MPNDHLFK@?$AAs?$AAw?$AA?9?$AAk?$AAe@ 0000000180073198     libucrt:lcidtoname_downlevel.obj
 0002:000091a8       ??_C@_1O@KOHBJJI@?$AAs?$AAy?$AAr?$AA?9?$AAs?$AAy@ 00000001800731a8     libucrt:lcidtoname_downlevel.obj
 0002:000091b8       ??_C@_1M@LDCEFHA@?$AAt?$AAa?$AA?9?$AAi?$AAn@ 00000001800731b8     libucrt:lcidtoname_downlevel.obj
 0002:000091c8       ??_C@_1M@CNJOFAK@?$AAt?$AAe?$AA?9?$AAi?$AAn@ 00000001800731c8     libucrt:lcidtoname_downlevel.obj
 0002:000091d8       ??_C@_1M@GNAECACD@?$AAt?$AAh?$AA?9?$AAt?$AAh@ 00000001800731d8     libucrt:lcidtoname_downlevel.obj
 0002:000091e8       ??_C@_1M@CHBIHOJO@?$AAt?$AAn?$AA?9?$AAz?$AAa@ 00000001800731e8     libucrt:lcidtoname_downlevel.obj
 0002:000091f8       ??_C@_1M@GCCMIGPJ@?$AAt?$AAr?$AA?9?$AAt?$AAr@ 00000001800731f8     libucrt:lcidtoname_downlevel.obj
 0002:00009208       ??_C@_1M@CELMCNBK@?$AAt?$AAt?$AA?9?$AAr?$AAu@ 0000000180073208     libucrt:lcidtoname_downlevel.obj
 0002:00009218       ??_C@_1M@KLMCELGA@?$AAu?$AAk?$AA?9?$AAu?$AAa@ 0000000180073218     libucrt:lcidtoname_downlevel.obj
 0002:00009228       ??_C@_1M@EPAJJAJF@?$AAu?$AAr?$AA?9?$AAp?$AAk@ 0000000180073228     libucrt:lcidtoname_downlevel.obj
 0002:00009238       ??_C@_1BG@GEGPMCDJ@?$AAu?$AAz?$AA?9?$AAu?$AAz?$AA?9?$AAc?$AAy?$AAr?$AAl@ 0000000180073238     libucrt:lcidtoname_downlevel.obj
 0002:00009250       ??_C@_1BG@EGGKJILM@?$AAu?$AAz?$AA?9?$AAu?$AAz?$AA?9?$AAl?$AAa?$AAt?$AAn@ 0000000180073250     libucrt:lcidtoname_downlevel.obj
 0002:00009268       ??_C@_1M@GFOCLFF@?$AAv?$AAi?$AA?9?$AAv?$AAn@ 0000000180073268     libucrt:lcidtoname_downlevel.obj
 0002:00009278       ??_C@_1M@CPAMEDFI@?$AAx?$AAh?$AA?9?$AAz?$AAa@ 0000000180073278     libucrt:lcidtoname_downlevel.obj
 0002:00009288       ??_C@_1O@EBKIFIGN@?$AAz?$AAh?$AA?9?$AAc?$AAh?$AAs@ 0000000180073288     libucrt:lcidtoname_downlevel.obj
 0002:00009298       ??_C@_1O@NMHPGANE@?$AAz?$AAh?$AA?9?$AAc?$AAh?$AAt@ 0000000180073298     libucrt:lcidtoname_downlevel.obj
 0002:000092a8       ??_C@_1M@LPINJOMC@?$AAz?$AAh?$AA?9?$AAc?$AAn@ 00000001800732a8     libucrt:lcidtoname_downlevel.obj
 0002:000092b8       ??_C@_1M@OCJEJODD@?$AAz?$AAh?$AA?9?$AAh?$AAk@ 00000001800732b8     libucrt:lcidtoname_downlevel.obj
 0002:000092c8       ??_C@_1M@DNDLJINH@?$AAz?$AAh?$AA?9?$AAm?$AAo@ 00000001800732c8     libucrt:lcidtoname_downlevel.obj
 0002:000092d8       ??_C@_1M@MBFDNDND@?$AAz?$AAh?$AA?9?$AAs?$AAg@ 00000001800732d8     libucrt:lcidtoname_downlevel.obj
 0002:000092e8       ??_C@_1M@IMEPLEPE@?$AAz?$AAh?$AA?9?$AAt?$AAw@ 00000001800732e8     libucrt:lcidtoname_downlevel.obj
 0002:000092f8       ??_C@_1M@BBGHNHJP@?$AAz?$AAu?$AA?9?$AAz?$AAa@ 00000001800732f8     libucrt:lcidtoname_downlevel.obj
 0002:00009304       ??_C@_01GBGANLPD@0@        0000000180073304     libucrt:cfout.obj
 0002:00009308       ??_C@_05DNEBIAHO@1?$CDINF@ 0000000180073308     libucrt:cfout.obj
 0002:00009310       ??_C@_06IMKFLFPG@1?$CDQNAN@ 0000000180073310     libucrt:cfout.obj
 0002:00009318       ??_C@_06PGGFOGJG@1?$CDSNAN@ 0000000180073318     libucrt:cfout.obj
 0002:00009320       ??_C@_05PHHOCPM@1?$CDIND@  0000000180073320     libucrt:cfout.obj
 0002:00009328       ??_C@_1BA@BALFACEM@?$AAC?$AAO?$AAN?$AAO?$AAU?$AAT?$AA$@ 0000000180073328     libucrt:initcon.obj
 0002:00009590       __log10_256_lead           0000000180073590     libucrt:log10_256_lead_tail_table.obj
 0002:00009da0       __log10_256_tail           0000000180073da0     libucrt:log10_256_lead_tail_table.obj
 0002:0000a5b0       __log_F_inv_qword          00000001800745b0     libucrt:log_f_inv_qword_table.obj
 0002:0000adc0       ??_C@_05HGHHAHAP@log10@    0000000180074dc0     libucrt:log_special.obj
 0002:0000ade0       ??_C@_03JGHBODFD@pow@      0000000180074de0     libucrt:fpexcept.obj
 0002:0000ade4       ??_C@_04EIAKFFMI@sqrt@     0000000180074de4     libucrt:fpexcept.obj
 0002:0000adf0       ??_C@_0BC@EOODALEL@Unknown?5exception@ 0000000180074df0     Aimbot.obj
 0002:0000ae08       ??_C@_0BF@KINCDENJ@bad?5array?5new?5length@ 0000000180074e08     Aimbot.obj
 0002:0000ae20       ??_C@_0BA@JFNIOLAK@string?5too?5long@ 0000000180074e20     Aimbot.obj
 0002:0000ae30       ??_C@_0BA@FOIKENOD@vector?5too?5long@ 0000000180074e30     Aimbot.obj
 0002:0000ae40       ?HotKeyCodes@@3PAHA        0000000180074e40     Aimbot.obj
 0002:0000ae5c       ??_C@_01GOHFPIOK@m@        0000000180074e5c     ESP.obj
 0002:0000ae60       ??_C@_05CMECKLGA@Shift@    0000000180074e60     d3d.obj
 0002:0000ae68       ??_C@_03PHINJBAN@Alt@      0000000180074e68     d3d.obj
 0002:0000ae70       ??_C@_0BC@JHCAIGMH@Left?5Mouse?5Button@ 0000000180074e70     d3d.obj
 0002:0000ae88       ??_C@_0BD@ENMPOOIN@Right?5Mouse?5Button@ 0000000180074e88     d3d.obj
 0002:0000aea0       ??_C@_0BE@NBDFAKJ@Middle?5Mouse?5Button@ 0000000180074ea0     d3d.obj
 0002:0000aeb8       ??_C@_0P@IBPNLBKO@Mouse?5Button?54@ 0000000180074eb8     d3d.obj
 0002:0000aec8       ??_C@_0P@JIOGIAOP@Mouse?5Button?55@ 0000000180074ec8     d3d.obj
 0002:0000aed8       ??_C@_04BFCCBDOP@Head@     0000000180074ed8     d3d.obj
 0002:0000aee0       ??_C@_04BOHOCOOO@Neck@     0000000180074ee0     d3d.obj
 0002:0000aee8       ??_C@_07FGANNFEF@Spine?51@ 0000000180074ee8     d3d.obj
 0002:0000aef0       ??_C@_07HNCAIGIG@Spine?52@ 0000000180074ef0     d3d.obj
 0002:0000aef8       ??_C@_06EIPNOIEJ@Pelvis@   0000000180074ef8     d3d.obj
 0002:0000af00       ??_C@_0P@FJHPJGFD@Left?5Upper?5Arm@ 0000000180074f00     d3d.obj
 0002:0000af10       ??_C@_0P@PLHILIMI@Left?5Lower?5Arm@ 0000000180074f10     d3d.obj
 0002:0000af20       ??_C@_09CPMJCHBJ@Left?5Hand@ 0000000180074f20     d3d.obj
 0002:0000af30       ??_C@_0BA@INCEHLOO@Right?5Upper?5Arm@ 0000000180074f30     d3d.obj
 0002:0000af40       ??_C@_0BA@CPCDFFHF@Right?5Lower?5Arm@ 0000000180074f40     d3d.obj
 0002:0000af50       ??_C@_0L@BFBOGIEG@Right?5Hand@ 0000000180074f50     d3d.obj
 0002:0000af60       ??_C@_0P@EIJDBDPB@Left?5Upper?5Leg@ 0000000180074f60     d3d.obj
 0002:0000af70       ??_C@_0P@OKJEDNGK@Left?5Lower?5Leg@ 0000000180074f70     d3d.obj
 0002:0000af80       ??_C@_0L@OAFMJJJG@Left?5Ankle@ 0000000180074f80     d3d.obj
 0002:0000af90       ??_C@_0BA@JMMIPOEM@Right?5Upper?5Leg@ 0000000180074f90     d3d.obj
 0002:0000afa0       ??_C@_0BA@DOMPNANH@Right?5Lower?5Leg@ 0000000180074fa0     d3d.obj
 0002:0000afb0       ??_C@_0M@BLLCACLM@Right?5Ankle@ 0000000180074fb0     d3d.obj
 0002:0000afbc       ??_C@_04GEFJINEE@?$CF?42f@ 0000000180074fbc     d3d.obj
 0002:0000afc4       ??_C@_04GFJLOHHD@?$CF?43f@ 0000000180074fc4     d3d.obj
 0002:0000afd0       _GUID_db6f6ddb_ac77_4e88_8253_819df9bbf140 0000000180074fd0     d3d.obj
 0002:0000afe0       _GUID_6f15aaf2_d208_4e89_9ab4_489535d34f9c 0000000180074fe0     d3d.obj
 0002:0000aff0       ?BoneIndexMap@@3PAW4BONEINDEX@@A 0000000180074ff0     d3d.obj
 0002:0000b038       ??_C@_0N@MFFOHPLI@?$CD?$CDBackground@ 0000000180075038     imgui.obj
 0002:0000b048       ??_C@_0N@MFHPHIIJ@?$CD?$CDForeground@ 0000000180075048     imgui.obj
 0002:0000b058       ??_C@_09BJIHMJFE@imgui?4ini@ 0000000180075058     imgui.obj
 0002:0000b068       ??_C@_0O@HCOAADPE@imgui_log?4txt@ 0000000180075068     imgui.obj
 0002:0000b076       ??_C@_00CNPNBAHC@@         0000000180075076     imgui.obj
 0002:0000b078       ??_C@_05EJCOBEBF@?$CDMOVE@ 0000000180075078     imgui.obj
 0002:0000b080       ??_C@_0P@IMLDNMEK@Debug?$CD?$CDDefault@ 0000000180075080     imgui.obj
 0002:0000b090       ??_C@_0BC@JHPKFIGH@HoveredId?3?50x?$CF08X@ 0000000180075090     imgui.obj
 0002:0000b0a8       ??_C@_0BM@IIPBLKLJ@Press?5ESC?5to?5abort?5picking?4@ 00000001800750a8     imgui.obj
 0002:0000b0c8       ??_C@_0BM@OPIPEIJO@Click?5to?5break?5in?5debugger?$CB@ 00000001800750c8     imgui.obj
 0002:0000b0e4       ??_C@_06BKKJGDHO@Window@   00000001800750e4     imgui.obj
 0002:0000b0ec       ??_C@_03KHICJKCI@?4?4?4@   00000001800750ec     imgui.obj
 0002:0000b0f0       ??_C@_07KBCBAKFA@?$CFs?1?$CF08X@ 00000001800750f0     imgui.obj
 0002:0000b0f8       ??_C@_07HDHBJEOI@?$CDRESIZE@ 00000001800750f8     imgui.obj
 0002:0000b100       ??_C@_09BJOGEADB@?$CDCOLLAPSE@ 0000000180075100     imgui.obj
 0002:0000b10c       ??_C@_01NBENCBCI@?$CK@     000000018007510c     imgui.obj
 0002:0000b110       ??_C@_0P@DHLMFJKK@?$CD?$CDTooltip_?$CF02d@ 0000000180075110     imgui.obj
 0002:0000b120       ??_C@_0N@PIPFDMLM@?$CD?$CDPopup_?$CF08x@ 0000000180075120     imgui.obj
 0002:0000b130       ??_C@_07NPLNEKJH@?$CIPopup?$CJ@ 0000000180075130     imgui.obj
 0002:0000b138       ??_C@_0O@BKOLOJFE@?$CD?$CDMainMenuBar@ 0000000180075138     imgui.obj
 0002:0000b148       ??_C@_0BA@KDPNEDEH@?$CIMain?5menu?5bar?$CJ@ 0000000180075148     imgui.obj
 0002:0000b158       ??_C@_0L@JOJOIPFK@?$CIUntitled?$CJ@ 0000000180075158     imgui.obj
 0002:0000b168       ??_C@_0BE@EBHFKNCA@?$CD?$CD?$CDNavWindowingList@ 0000000180075168     imgui.obj
 0002:0000b180       ??_C@_09FDEMHCFC@?$AN?6?$CF?$CKs?$CF?4?$CKs@ 0000000180075180     imgui.obj
 0002:0000b190       ??_C@_07LFDEMEGD@?$CF?$CKs?$CF?4?$CKs@ 0000000180075190     imgui.obj
 0002:0000b198       ??_C@_05DBJFMKBA@?5?$CF?4?$CKs@ 0000000180075198     imgui.obj
 0002:0000b1a0       ??_C@_02PCIJFNDE@?$AN?6@   00000001800751a0     imgui.obj
 0002:0000b1a4       ??_C@_03OIJOKPOL@?$CD?$CD?$CD@ 00000001800751a4     imgui.obj
 0002:0000b1a8       ??_C@_02JDPG@rb@           00000001800751a8     imgui.obj
 0002:0000b1ac       ??_C@_02BKFDOEMK@wt@       00000001800751ac     imgui.obj
 0002:0000b1b0       ??_C@_09GOMOMIIP@Pos?$DN?$CFi?0?$CFi@ 00000001800751b0     imgui.obj
 0002:0000b1c0       ??_C@_0L@MPPKDMFA@Size?$DN?$CFi?0?$CFi@ 00000001800751c0     imgui.obj
 0002:0000b1d0       ??_C@_0N@IAKNMBB@Collapsed?$DN?$CFd@ 00000001800751d0     imgui.obj
 0002:0000b1e0       ??_C@_09HNFDDBIF@?$FL?$CFs?$FN?$FL?$CFs?$FN?6@ 00000001800751e0     imgui.obj
 0002:0000b1f0       ??_C@_0L@DDMADIHO@Pos?$DN?$CFd?0?$CFd?6@ 00000001800751f0     imgui.obj
 0002:0000b200       ??_C@_0M@CFANMDMP@Size?$DN?$CFd?0?$CFd?6@ 0000000180075200     imgui.obj
 0002:0000b210       ??_C@_0O@JAFHMCKE@Collapsed?$DN?$CFd?6@ 0000000180075210     imgui.obj
 0002:0000b220       ??_C@_01MNNFJEPP@?$DM@     0000000180075220     imgui.obj
 0002:0000b224       ??_C@_01PPODPGHN@?$DO@     0000000180075224     imgui.obj
 0002:0000b228       ??_C@_02DPKJAMEF@?$CFd@    0000000180075228     imgui.obj
 0002:0000f368       ??_C@_08HHEANBBL@?$CD?$CDpicker@ 0000000180079368     imgui_demo.obj
 0002:0000f378       ??_C@_07EDIFFIJI@Current@  0000000180079378     imgui_demo.obj
 0002:0000f380       ??_C@_09CDENILGE@?$CD?$CDcurrent@ 0000000180079380     imgui_demo.obj
 0002:0000f38c       ??_C@_06LFKNFKEK@_COL3F@   000000018007938c     imgui_demo.obj
 0002:0000f394       ??_C@_06LAOCEMMP@_COL4F@   0000000180079394     imgui_demo.obj
 0002:0000f39c       ??_C@_02NJPGOMH@?$CFf@     000000018007939c     imgui_demo.obj
 0002:0000f3a0       ??_C@_02GMHACPFF@?$CFu@    00000001800793a0     imgui_demo.obj
 0002:0000f3a4       ??_C@_05LLAMLEHD@?$CFI64d@ 00000001800793a4     imgui_demo.obj
 0002:0000f3ac       ??_C@_04OPMHGHMB@Copy@     00000001800793ac     imgui_demo.obj
 0002:0000f3b4       ??_C@_02FODMEDOG@?$DM?$DM@ 00000001800793b4     imgui_demo.obj
 0002:0000f3b8       ??_C@_02GPIOPFAK@?$DO?$DO@ 00000001800793b8     imgui_demo.obj
 0002:0000f3bc       ??_C@_05PDOBBJNA@Color@    00000001800793bc     imgui_demo.obj
 0002:0000f3c4       ??_C@_04EICJPCEA@cmap@     00000001800793c4     imgui_draw.obj
 0002:0000f3cc       ??_C@_04DACNFKGE@loca@     00000001800793cc     imgui_draw.obj
 0002:0000f3d4       ??_C@_04NEODDMOL@head@     00000001800793d4     imgui_draw.obj
 0002:0000f3dc       ??_C@_04LLIHEPK@glyf@      00000001800793dc     imgui_draw.obj
 0002:0000f3e4       ??_C@_04FMPHLIKP@hhea@     00000001800793e4     imgui_draw.obj
 0002:0000f3ec       ??_C@_04ONMNCIMC@hmtx@     00000001800793ec     imgui_draw.obj
 0002:0000f3f4       ??_C@_04HHMMLDJI@kern@     00000001800793f4     imgui_draw.obj
 0002:0000f3fc       ??_C@_04PCFDEHHD@GPOS@     00000001800793fc     imgui_draw.obj
 0002:0000f404       ??_C@_04HJGCPIEK@CFF?5@    0000000180079404     imgui_draw.obj
 0002:0000f40c       ??_C@_04KODIGLGG@maxp@     000000018007940c     imgui_draw.obj
 0002:0000f418       ??_C@_0BG@CONABPA@ProggyClean?4ttf?0?5?$CFdpx@ 0000000180079418     imgui_draw.obj
 0002:0000f440       ??_C@_0CMG@IBDOLAEO@cbuffer?5vertexBuffer?5?3?5register@ 0000000180079440     imgui_impl_dx11.obj
 0002:0000f710       ??_C@_0BJC@PEIKANGF@struct?5PS_INPUT?5?5?5?5?5?5?5?5?5?5?5?5?$HL?5?5?5@ 0000000180079710     imgui_impl_dx11.obj
 0002:0000f8a4       ??_C@_06BNDBNCGN@vs_4_0@   00000001800798a4     imgui_impl_dx11.obj
 0002:0000f8ac       ??_C@_04GHJNJNPO@main@     00000001800798ac     imgui_impl_dx11.obj
 0002:0000f8b8       ??_C@_08JPMAAECC@POSITION@ 00000001800798b8     imgui_impl_dx11.obj
 0002:0000f8c8       ??_C@_08CMDKBPJM@TEXCOORD@ 00000001800798c8     imgui_impl_dx11.obj
 0002:0000f8d4       ??_C@_05DPNLPLKI@COLOR@    00000001800798d4     imgui_impl_dx11.obj
 0002:0000f8dc       ??_C@_06HOOBOHFH@ps_4_0@   00000001800798dc     imgui_impl_dx11.obj
 0002:0000f8e8       ??_C@_0BA@OFLFAAJI@imgui_impl_dx11@ 00000001800798e8     imgui_impl_dx11.obj
 0002:0000f8f8       _GUID_54ec77fa_1377_44e6_8c32_88fd5f44c84c 00000001800798f8     imgui_impl_dx11.obj
 0002:0000f908       _GUID_2411e7e1_12ac_4ccf_bd14_9798e8534dc0 0000000180079908     imgui_impl_dx11.obj
 0002:0000f918       _GUID_7b7166ec_21c7_44ae_b21a_c9ae321ae369 0000000180079918     imgui_impl_dx11.obj
 0002:0000f928       ??_C@_0BB@FLGJPPJK@imgui_impl_win32@ 0000000180079928     imgui_impl_win32.obj
 0002:0000f940       ??_C@_08ENAFOMOP@?$CDSCROLLX@ 0000000180079940     imgui_widgets.obj
 0002:0000f950       ??_C@_08FEBONNKO@?$CDSCROLLY@ 0000000180079950     imgui_widgets.obj
 0002:0000f95c       ??_C@_03JHEALCLB@?$FLx?$FN@ 000000018007995c     imgui_widgets.obj
 0002:0000f960       ??_C@_03PFOPMNLJ@?$FL?5?$FN@ 0000000180079960     imgui_widgets.obj
 0002:0000f964       ??_C@_03KFJJABDB@?$CIx?$CJ@ 0000000180079964     imgui_widgets.obj
 0002:0000f968       ??_C@_03MHDGHODJ@?$CI?5?$CJ@ 0000000180079968     imgui_widgets.obj
 0002:0000f96c       ??_C@_02LLHJFGPH@?5?$HM@   000000018007996c     imgui_widgets.obj
 0002:0000f970       ??_C@_0CB@GNHPAIID@?9?9?9?9?9?9?9?9?9?9?9?9?9?9?9?9?9?9?9?9?9?9?9?9?9?9?9?9?9?9?9@ 0000000180079970     imgui_widgets.obj
 0002:0000f998       ??_C@_0N@JOGGDHMO@?$CD?$CDCombo_?$CF02d@ 0000000180079998     imgui_widgets.obj
 0002:0000f9a8       ??_C@_0P@HFPOEILF@?$CKUnknown?5item?$CK@ 00000001800799a8     imgui_widgets.obj
 0002:0000f9b8       ??_C@_05OINFJHGD@?$CFI64u@ 00000001800799b8     imgui_widgets.obj
 0002:0000f9c0       ??_C@_03DLDNIBIK@?$CFlf@   00000001800799c0     imgui_widgets.obj
 0002:0000f9c8       ??_C@_09JKJEEIJP@?$CF?4?$CKs?$CF?$CFd?$CFs@ 00000001800799c8     imgui_widgets.obj
 0002:0000f9d4       ??_C@_01JOAMLHOP@?9@       00000001800799d4     imgui_widgets.obj
 0002:0000f9d8       ??_C@_01MIFGBAGJ@?$CL@     00000001800799d8     imgui_widgets.obj
 0002:0000f9dc       ??_C@_03CEFFAPNG@?$CD?$CDX@ 00000001800799dc     imgui_widgets.obj
 0002:0000f9e0       ??_C@_03DNEODOJH@?$CD?$CDY@ 00000001800799e0     imgui_widgets.obj
 0002:0000f9e4       ??_C@_03BGGDGNFE@?$CD?$CDZ@ 00000001800799e4     imgui_widgets.obj
 0002:0000f9e8       ??_C@_03KDMNBDBJ@?$CD?$CDW@ 00000001800799e8     imgui_widgets.obj
 0002:0000f9ec       ??_C@_03GOOLIKIF@?$CF3d@   00000001800799ec     imgui_widgets.obj
 0002:0000f9f0       ??_C@_05FELKPNOB@R?3?$CF3d@ 00000001800799f0     imgui_widgets.obj
 0002:0000f9f8       ??_C@_05HKBGOMJ@G?3?$CF3d@ 00000001800799f8     imgui_widgets.obj
 0002:0000fa00       ??_C@_05FHGMPPHK@B?3?$CF3d@ 0000000180079a00     imgui_widgets.obj
 0002:0000fa08       ??_C@_05NBPIINNE@A?3?$CF3d@ 0000000180079a08     imgui_widgets.obj
 0002:0000fa10       ??_C@_05PGPHNMBM@H?3?$CF3d@ 0000000180079a10     imgui_widgets.obj
 0002:0000fa18       ??_C@_05JPOGCOEE@S?3?$CF3d@ 0000000180079a18     imgui_widgets.obj
 0002:0000fa20       ??_C@_05MPCLLPPH@V?3?$CF3d@ 0000000180079a20     imgui_widgets.obj
 0002:0000fa28       ??_C@_05ONBKDNLK@?$CF0?43f@ 0000000180079a28     imgui_widgets.obj
 0002:0000fa30       ??_C@_07CCOKENNH@R?3?$CF0?43f@ 0000000180079a30     imgui_widgets.obj
 0002:0000fa38       ??_C@_07BGLBHCJI@G?3?$CF0?43f@ 0000000180079a38     imgui_widgets.obj
 0002:0000fa40       ??_C@_07FOFBHMPM@B?3?$CF0?43f@ 0000000180079a40     imgui_widgets.obj
 0002:0000fa48       ??_C@_07NANOHLBP@A?3?$CF0?43f@ 0000000180079a48     imgui_widgets.obj
 0002:0000fa50       ??_C@_07MPJBGADE@H?3?$CF0?43f@ 0000000180079a50     imgui_widgets.obj
 0002:0000fa58       ??_C@_07OOEAENEJ@S?3?$CF0?43f@ 0000000180079a58     imgui_widgets.obj
 0002:0000fa60       ??_C@_07KGKAEDCN@V?3?$CF0?43f@ 0000000180079a60     imgui_widgets.obj
 0002:0000fa68       ??_C@_07FFNLLALM@M?30?4000@ 0000000180079a68     imgui_widgets.obj
 0002:0000fa70       ??_C@_05BNGMMMAL@M?3000@   0000000180079a70     imgui_widgets.obj
 0002:0000fa78       ??_C@_07JKKCBBMM@context@  0000000180079a78     imgui_widgets.obj
 0002:0000fa80       ??_C@_0BC@CKPCOFBK@?$CD?$CF02X?$CF02X?$CF02X?$CF02X@ 0000000180079a80     imgui_widgets.obj
 0002:0000fa98       ??_C@_0O@MBPBDFLP@?$CD?$CF02X?$CF02X?$CF02X@ 0000000180079a98     imgui_widgets.obj
 0002:0000faa8       ??_C@_06MNCEJPDI@?$CD?$CDText@ 0000000180079aa8     imgui_widgets.obj
 0002:0000fab0       ??_C@_0BB@DDMGLOLI@?$CF02X?$CF02X?$CF02X?$CF02X@ 0000000180079ab0     imgui_widgets.obj
 0002:0000fac8       ??_C@_0N@KODLFHPJ@?$CF02X?$CF02X?$CF02X@ 0000000180079ac8     imgui_widgets.obj
 0002:0000fad8       ??_C@_0O@GLNBIEEK@?$CD?$CDColorButton@ 0000000180079ad8     imgui_widgets.obj
 0002:0000fae8       ??_C@_06MAKAMBBI@picker@   0000000180079ae8     imgui_widgets.obj
 0002:0000faf0       ??_C@_03PPLPHHG@hsv@       0000000180079af0     imgui_widgets.obj
 0002:0000faf4       ??_C@_02CPGMCOJE@sv@       0000000180079af4     imgui_widgets.obj
 0002:0000faf8       ??_C@_03GKJJMKFG@hue@      0000000180079af8     imgui_widgets.obj
 0002:0000fafc       ??_C@_05IAEKHIAN@alpha@    0000000180079afc     imgui_widgets.obj
 0002:0000fb08       ??_C@_08DCPBJHAO@Original@ 0000000180079b08     imgui_widgets.obj
 0002:0000fb18       ??_C@_0L@IGJKOBOK@?$CD?$CDoriginal@ 0000000180079b18     imgui_widgets.obj
 0002:0000fb24       ??_C@_05JCABMAIH@?$CD?$CDrgb@ 0000000180079b24     imgui_widgets.obj
 0002:0000fb2c       ??_C@_05JICEKLIF@?$CD?$CDhsv@ 0000000180079b2c     imgui_widgets.obj
 0002:0000fb34       ??_C@_05BOAMFJMJ@?$CD?$CDhex@ 0000000180079b34     imgui_widgets.obj
 0002:0000fb40       ??_C@_09JCCDBEFL@?$CD?$CDpreview@ 0000000180079b40     imgui_widgets.obj
 0002:0000fb50       ??_C@_0DF@FAPNKOHO@?$CD?$CF02X?$CF02X?$CF02X?6R?3?5?$CFd?0?5G?3?5?$CFd?0?5B?3?5@ 0000000180079b50     imgui_widgets.obj
 0002:0000fb90       ??_C@_0EC@EBPMGCGK@?$CD?$CF02X?$CF02X?$CF02X?$CF02X?6R?3?$CFd?0?5G?3?$CFd?0?5B@ 0000000180079b90     imgui_widgets.obj
 0002:0000fbd8       ??_C@_0BK@HKNBICJE@H?3?5?$CF?43f?0?5S?3?5?$CF?43f?0?5V?3?5?$CF?43f@ 0000000180079bd8     imgui_widgets.obj
 0002:0000fbf8       ??_C@_0CD@EEDEAEPG@H?3?5?$CF?43f?0?5S?3?5?$CF?43f?0?5V?3?5?$CF?43f?0?5A?3?5?$CF@ 0000000180079bf8     imgui_widgets.obj
 0002:0000fc1c       ??_C@_03ICFFBAI@RGB@       0000000180079c1c     imgui_widgets.obj
 0002:0000fc20       ??_C@_03CAADKAK@HSV@       0000000180079c20     imgui_widgets.obj
 0002:0000fc24       ??_C@_03CJOBKKAE@Hex@      0000000180079c24     imgui_widgets.obj
 0002:0000fc28       ??_C@_06FDBEKFBH@0?4?4255@ 0000000180079c28     imgui_widgets.obj
 0002:0000fc30       ??_C@_0L@MDNPBJBM@0?400?4?41?400@ 0000000180079c30     imgui_widgets.obj
 0002:0000fc40       ??_C@_09NMCCFHEI@Copy?5as?4?4@ 0000000180079c40     imgui_widgets.obj
 0002:0000fc50       ??_C@_0BN@GKCJMPCH@?$CI?$CF?43ff?0?5?$CF?43ff?0?5?$CF?43ff?0?5?$CF?43ff?$CJ@ 0000000180079c50     imgui_widgets.obj
 0002:0000fc70       ??_C@_0O@EJHNAHBL@?$CI?$CFd?0?$CFd?0?$CFd?0?$CFd?$CJ@ 0000000180079c70     imgui_widgets.obj
 0002:0000fc80       ??_C@_0P@GDANBODO@0x?$CF02X?$CF02X?$CF02X@ 0000000180079c80     imgui_widgets.obj
 0002:0000fc90       ??_C@_0BD@MLNOPBDA@0x?$CF02X?$CF02X?$CF02X?$CF02X@ 0000000180079c90     imgui_widgets.obj
 0002:0000fca8       ??_C@_0N@KFBFGFJL@?$CD?$CDselectable@ 0000000180079ca8     imgui_widgets.obj
 0002:0000fcb8       ??_C@_0O@KNMNNHNH@?$CD?$CDdummypicker@ 0000000180079cb8     imgui_widgets.obj
 0002:0000fcc8       ??_C@_09KEDLMDJL@Alpha?5Bar@ 0000000180079cc8     imgui_widgets.obj
 0002:0000fde8       ??_C@_01NOFIACDB@w@        0000000180079de8     MainDLL.obj
 0002:0000fdf0       ??_C@_07GPDNMNG@CONOUT$@   0000000180079df0     MainDLL.obj
 0002:0000fdf8       ??_C@_0BI@CFPLBAOH@invalid?5string?5position@ 0000000180079df8     Memory.obj
 0002:0000fe10       ??_C@_07MDJDKHIJ@weapon_@  0000000180079e10     Entity.obj
 0002:0000fe18       ??_C@_0O@IBCIJBAA@baseanimgraph@ 0000000180079e18     Entity.obj
 0002:0000fe28       ??_C@_0L@KNGGEKK@Defuse?5Kit@ 0000000180079e28     Entity.obj
 0002:0000fe34       __real@00800000            0000000180079e34     imgui_widgets.obj
 0002:0000fe38       __real@1e3ce508            0000000180079e38     imgui.obj
 0002:0000fe3c       __real@358637bd            0000000180079e3c     imgui_widgets.obj
 0002:0000fe40       __real@3727c5ac            0000000180079e40     imgui_widgets.obj
 0002:0000fe44       __real@37800000            0000000180079e44     imgui_draw.obj
 0002:0000fe48       __real@38800000            0000000180079e48     imgui_draw.obj
 0002:0000fe4c       __real@38d1b717            0000000180079e4c     imgui_widgets.obj
 0002:0000fe50       __real@3b808081            0000000180079e50     Aimbot.obj
 0002:0000fe54       __real@3c23d70a            0000000180079e54     imgui_widgets.obj
 0002:0000fe58       __real@3cd013a9            0000000180079e58     ESP.obj
 0002:0000fe5c       __real@3cdd2f1b            0000000180079e5c     imgui_widgets.obj
 0002:0000fe60       __real@3d23d70a            0000000180079e60     imgui.obj
 0002:0000fe64       __real@3d4ccccd            0000000180079e64     imgui.obj
 0002:0000fe68       __real@3da3d70a            0000000180079e68     imgui_widgets.obj
 0002:0000fe6c       __real@3dcccccd            0000000180079e6c     imgui_demo.obj
 0002:0000fe70       __real@3e19999a            0000000180079e70     imgui.obj
 0002:0000fe74       __real@3e2aaaab            0000000180079e74     imgui.obj
 0002:0000fe78       __real@3e4ccccd            0000000180079e78     imgui.obj
 0002:0000fe7c       __real@3e800000            0000000180079e7c     imgui_draw.obj
 0002:0000fe80       __real@3e99999a            0000000180079e80     imgui.obj
 0002:0000fe84       __real@3eb33333            0000000180079e84     imgui_draw.obj
 0002:0000fe88       __real@3ecccccd            0000000180079e88     imgui_draw.obj
 0002:0000fe8c       __real@3efae148            0000000180079e8c     imgui_draw.obj
 0002:0000fe90       __real@3f000000            0000000180079e90     imgui_draw.obj
 0002:0000fe94       __real@3f0ccccd            0000000180079e94     imgui_widgets.obj
 0002:0000fe98       __real@3f19999a            0000000180079e98     imgui_draw.obj
 0002:0000fe9c       __real@3f266666            0000000180079e9c     imgui_widgets.obj
 0002:0000fea0       __real@3f2b851f            0000000180079ea0     imgui.obj
 0002:0000fea4       __real@3f333333            0000000180079ea4     imgui.obj
 0002:0000fea8       __real@3f3851ec            0000000180079ea8     imgui.obj
 0002:0000feac       __real@3f400000            0000000180079eac     imgui.obj
 0002:0000feb0       __real@3f490fdb            0000000180079eb0     imgui.obj
 0002:0000feb4       __real@3f4ccccd            0000000180079eb4     imgui.obj
 0002:0000feb8       __real@3f5db22d            0000000180079eb8     imgui.obj
 0002:0000febc       __real@3f5db3d0            0000000180079ebc     imgui_widgets.obj
 0002:0000fec0       __real@3f733333            0000000180079ec0     imgui.obj
 0002:0000fec4       __real@3f800000            0000000180079ec4     imgui_widgets.obj
 0002:0000fec8       __real@3f847ae147ae147b    0000000180079ec8     Aimbot.obj
 0002:0000fed0       __real@3f99999a            0000000180079ed0     imgui_widgets.obj
 0002:0000fed8       __real@3f9a027525460aa6    0000000180079ed8     Aimbot.obj
 0002:0000fee0       __real@3fa00000            0000000180079ee0     imgui.obj
 0002:0000fee4       __real@3faccccd            0000000180079ee4     imgui.obj
 0002:0000fee8       __real@3fb33333            0000000180079ee8     imgui_widgets.obj
 0002:0000feec       __real@3fc00000            0000000180079eec     imgui_widgets.obj
 0002:0000fef0       __real@3fe3333333333333    0000000180079ef0     ESP.obj
 0002:0000fef8       __real@3ff0000000000000    0000000180079ef8     imgui_widgets.obj
 0002:0000ff00       __real@3ffeb852            0000000180079f00     imgui_draw.obj
 0002:0000ff04       __real@40000000            0000000180079f04     Aimbot.obj
 0002:0000ff08       __real@4000000000000000    0000000180079f08     ESP.obj
 0002:0000ff10       __real@40200000            0000000180079f10     imgui.obj
 0002:0000ff18       __real@4024000000000000    0000000180079f18     imgui_widgets.obj
 0002:0000ff20       __real@403f5c29            0000000180079f20     imgui_widgets.obj
 0002:0000ff24       __real@40400000            0000000180079f24     imgui.obj
 0002:0000ff28       __real@40490fdb            0000000180079f28     imgui_draw.obj
 0002:0000ff2c       __real@40600000            0000000180079f2c     imgui.obj
 0002:0000ff30       __real@40666666            0000000180079f30     imgui_widgets.obj
 0002:0000ff34       __real@40800000            0000000180079f34     imgui.obj
 0002:0000ff38       __real@40a00000            0000000180079f38     imgui.obj
 0002:0000ff3c       __real@40b84e89            0000000180079f3c     ESP.obj
 0002:0000ff40       __real@40bc7edd            0000000180079f40     imgui_widgets.obj
 0002:0000ff44       __real@40c00000            0000000180079f44     imgui.obj
 0002:0000ff48       __real@40c5eb9c            0000000180079f48     ESP.obj
 0002:0000ff4c       __real@40c90fdb            0000000180079f4c     imgui_draw.obj
 0002:0000ff50       __real@40d00000            0000000180079f50     ESP.obj
 0002:0000ff54       __real@40e00000            0000000180079f54     ESP.obj
 0002:0000ff58       __real@41000000            0000000180079f58     imgui.obj
 0002:0000ff5c       __real@41080000            0000000180079f5c     ESP.obj
 0002:0000ff60       __real@41200000            0000000180079f60     imgui_widgets.obj
 0002:0000ff64       __real@41400000            0000000180079f64     imgui_draw.obj
 0002:0000ff68       __real@41500000            0000000180079f68     imgui_draw.obj
 0002:0000ff6c       __real@41680000            0000000180079f6c     d3d.obj
 0002:0000ff70       __real@41800000            0000000180079f70     imgui.obj
 0002:0000ff74       __real@41c00000            0000000180079f74     imgui.obj
 0002:0000ff78       __real@420c0000            0000000180079f78     ESP.obj
 0002:0000ff7c       __real@42340000            0000000180079f7c     ESP.obj
 0002:0000ff80       __real@42700000            0000000180079f80     imgui.obj
 0002:0000ff84       __real@42960000            0000000180079f84     ESP.obj
 0002:0000ff88       __real@42c80000            0000000180079f88     imgui_widgets.obj
 0002:0000ff8c       __real@42f00000            0000000180079f8c     imgui_impl_win32.obj
 0002:0000ff90       __real@43000000            0000000180079f90     imgui_widgets.obj
 0002:0000ff94       __real@433e0000            0000000180079f94     d3d.obj
 0002:0000ff98       __real@434c0000            0000000180079f98     imgui_widgets.obj
 0002:0000ff9c       __real@435c0000            0000000180079f9c     d3d.obj
 0002:0000ffa0       __real@43700000            0000000180079fa0     d3d.obj
 0002:0000ffa4       __real@437f0000            0000000180079fa4     imgui_widgets.obj
 0002:0000ffa8       __real@43a50000            0000000180079fa8     d3d.obj
 0002:0000ffb0       __real@43e0000000000000    0000000180079fb0     imgui_widgets.obj
 0002:0000ffb8       __real@44160000            0000000180079fb8     imgui.obj
 0002:0000ffbc       __real@44333333            0000000180079fbc     imgui_draw.obj
 0002:0000ffc0       __real@44480000            0000000180079fc0     imgui.obj
 0002:0000ffc4       __real@447a0000            0000000180079fc4     imgui.obj
 0002:0000ffc8       __real@44b33333            0000000180079fc8     imgui_draw.obj
 0002:0000ffcc       __real@45333333            0000000180079fcc     imgui_draw.obj
 0002:0000ffd0       __real@47efffffe0000000    0000000180079fd0     imgui_widgets.obj
 0002:0000ffd8       __real@49742400            0000000180079fd8     Aimbot.obj
 0002:0000ffdc       __real@7f7fffff            0000000180079fdc     imgui_widgets.obj
 0002:0000ffe0       __real@7fefffffffffffff    0000000180079fe0     imgui_widgets.obj
 0002:0000ffe8       __real@beaaaaab            0000000180079fe8     imgui.obj
 0002:0000ffec       __real@bf000000            0000000180079fec     imgui_widgets.obj
 0002:0000fff0       __real@bf400000            0000000180079ff0     imgui.obj
 0002:0000fff4       __real@bf5db22d            0000000180079ff4     imgui.obj
 0002:0000fff8       __real@bf5db3d0            0000000180079ff8     imgui_widgets.obj
 0002:0000fffc       __real@bf800000            0000000180079ffc     imgui_demo.obj
 0002:00010000       __real@c2c80000            000000018007a000     imgui_widgets.obj
 0002:00010008       __real@c7efffffe0000000    000000018007a008     imgui.obj
 0002:00010010       __real@c87a0000            000000018007a010     imgui.obj
 0002:00010014       __real@ff7fffff            000000018007a014     imgui.obj
 0002:00010018       __real@ffefffffffffffff    000000018007a018     imgui_widgets.obj
 0002:00010020       __xmm@00000000000000020000000300000001 000000018007a020     imgui.obj
 0002:00010030       __xmm@00000000000000080000000100000000 000000018007a030     imgui_impl_dx11.obj
 0002:00010040       __xmm@000000000000000f0000000000000000 000000018007a040     ESP.obj
 0002:00010050       __xmm@00000001000000010000000100000001 000000018007a050     imgui_draw.obj
 0002:00010060       __xmm@00000001000000010000000100000015 000000018007a060     imgui_impl_dx11.obj
 0002:00010070       __xmm@00000001000000060000000100000006 000000018007a070     imgui_impl_dx11.obj
 0002:00010080       __xmm@00000002000000000000000100000003 000000018007a080     imgui.obj
 0002:00010090       __xmm@00000003000000020000000100000000 000000018007a090     imgui_draw.obj
 0002:000100a0       __xmm@3e4ccccd3f4ccccd3f4ccccd3f4ccccd 000000018007a0a0     imgui_draw.obj
 0002:000100b0       __xmm@3e8000003f7ae1483f170a3d3e851eb8 000000018007a0b0     imgui_draw.obj
 0002:000100c0       __xmm@3e9eb8523f7ae1483f170a3d3e851eb8 000000018007a0c0     imgui_draw.obj
 0002:000100d0       __xmm@3eb333333f4ccccd3f4ccccd3f4ccccd 000000018007a0d0     imgui_draw.obj
 0002:000100e0       __xmm@3eb333333f7ae1483f170a3d3e851eb8 000000018007a0e0     imgui_draw.obj
 0002:000100f0       __xmm@3ecccccd3f7ae1483f170a3d3e851eb8 000000018007a0f0     imgui_draw.obj
 0002:00010100       __xmm@3f0000003f0000003edc28f63edc28f6 000000018007a100     imgui_draw.obj
 0002:00010110       __xmm@3f028f5c000000000000000000000000 000000018007a110     imgui_draw.obj
 0002:00010120       __xmm@3f07ae143ca3d70a3ca3d70a3ca3d70a 000000018007a120     imgui_draw.obj
 0002:00010130       __xmm@3f0a3d713ef5c28f3e947ae13e23d70a 000000018007a130     imgui_draw.obj
 0002:00010140       __xmm@3f2b851f3f7ae1483f170a3d3e851eb8 000000018007a140     imgui_draw.obj
 0002:00010150       __xmm@3f3333333f8000003f8000003f800000 000000018007a150     imgui_draw.obj
 0002:00010160       __xmm@3f47ae143f4000003ecccccd3dcccccd 000000018007a160     imgui_draw.obj
 0002:00010170       __xmm@3f4ccccd3f7ae1483f170a3d3e851eb8 000000018007a170     imgui_draw.obj
 0002:00010180       __xmm@3f5cdcde3e34b4b53e34b4b53e34b4b5 000000018007a180     ESP.obj
 0002:00010190       __xmm@3f5cdcde3eb4b4b53eb4b4b53eb4b4b5 000000018007a190     ESP.obj
 0002:000101a0       __xmm@3f5cdcde3ebebebf3ebebebf3f800000 000000018007a1a0     ESP.obj
 0002:000101b0       __xmm@3f5cdcde3ececed03f56d6d83f77f7f9 000000018007a1b0     ESP.obj
 0002:000101c0       __xmm@3f5cdcde3ee2e2e43f76f6f83ec0c0c2 000000018007a1c0     ESP.obj
 0002:000101d0       __xmm@3f666666000000003f8000003f800000 000000018007a1d0     imgui_draw.obj
 0002:000101e0       __xmm@3f70a3d73d75c28f3d75c28f3d75c28f 000000018007a1e0     imgui_draw.obj
 0002:000101f0       __xmm@3f70a3d73da3d70a3da3d70a3da3d70a 000000018007a1f0     imgui_draw.obj
 0002:00010200       __xmm@3f7333333f7ae1483f170a3d3e851eb8 000000018007a200     imgui_draw.obj
 0002:00010210       __xmm@3f80000000000000000000003f800000 000000018007a210     imgui_draw.obj
 0002:00010220       __xmm@3f800000000000003f19999a3f800000 000000018007a220     imgui_draw.obj
 0002:00010230       __xmm@3f800000000000003f3333333f666666 000000018007a230     imgui_draw.obj
 0002:00010240       __xmm@3f8000003d23d70a3d23d70a3d23d70a 000000018007a240     imgui_draw.obj
 0002:00010250       __xmm@3f8000003e0f5c293e0f5c293e0f5c29 000000018007a250     imgui_draw.obj
 0002:00010260       __xmm@3f8000003e19999a3dcccccd3d4ccccd 000000018007a260     d3d.obj
 0002:00010270       __xmm@3f8000003e4ccccd3e99999a3e19999a 000000018007a270     d3d.obj
 0002:00010280       __xmm@3f8000003e9eb8523e9eb8523e9eb852 000000018007a280     imgui_draw.obj
 0002:00010290       __xmm@3f8000003eb333333edc28f63f800000 000000018007a290     imgui_draw.obj
 0002:000102a0       __xmm@3f8000003ed1eb853ed1eb853ed1eb85 000000018007a2a0     imgui_draw.obj
 0002:000102b0       __xmm@3f8000003ef5c28f3e947ae13e23d70a 000000018007a2b0     imgui_draw.obj
 0002:000102c0       __xmm@3f8000003f0000003f0000003f000000 000000018007a2c0     imgui_draw.obj
 0002:000102d0       __xmm@3f8000003f028f5c3f028f5c3f028f5c 000000018007a2d0     imgui_draw.obj
 0002:000102e0       __xmm@3f8000003f1c28f63f1c28f63f1c28f6 000000018007a2e0     imgui_draw.obj
 0002:000102f0       __xmm@3f8000003f4000003ecccccd3dcccccd 000000018007a2f0     imgui_draw.obj
 0002:00010300       __xmm@3f8000003f6147ae3f051eb83e75c28f 000000018007a300     imgui_draw.obj
 0002:00010310       __xmm@3f8000003f7ae1483f07ae143d75c28f 000000018007a310     imgui_draw.obj
 0002:00010320       __xmm@3f8000003f7ae1483f170a3d3e851eb8 000000018007a320     imgui_draw.obj
 0002:00010330       __xmm@3f8000003f8000003f8000003f800000 000000018007a330     imgui_draw.obj
 0002:00010340       __xmm@437f0000437f0000437f0000437f0000 000000018007a340     imgui_widgets.obj
 0002:00010350       __xmm@4600000046000000c6000000c6000000 000000018007a350     imgui_draw.obj
 0002:00010360       __xmm@7fffffff7fffffff7fffffff7fffffff 000000018007a360     ESP.obj
 0002:00010370       __xmm@80000000000000008000000000000000 000000018007a370     imgui_widgets.obj
 0002:00010380       __xmm@80000000800000008000000080000000 000000018007a380     imgui_widgets.obj
 0002:00010b18       __real@3f1a36e2eb1c432d    000000018007ab18     libucrt:atan2f.obj
 0002:00010b20       __real@3fb0000000000000    000000018007ab20     libucrt:atan2f.obj
 0002:00010b28       __real@3fc2492482bd6be1    000000018007ab28     libucrt:atan2f.obj
 0002:00010b30       __real@3fc90fdb            000000018007ab30     libucrt:atan2f.obj
 0002:00010b38       __real@3fc99999999643a3    000000018007ab38     libucrt:atan2f.obj
 0002:00010b40       __real@3fd5555555550877    000000018007ab40     libucrt:atan2f.obj
 0002:00010b48       __real@3fd5555555555538    000000018007ab48     libucrt:atan2f.obj
 0002:00010b50       __real@3fe0000000000000    000000018007ab50     libucrt:atan2f.obj
 0002:00010b58       __real@3ff921fb54442d18    000000018007ab58     libucrt:atan2f.obj
 0002:00010b60       __real@400921fb54442d18    000000018007ab60     libucrt:atan2f.obj
 0002:00010b68       __real@4016cbe4            000000018007ab68     libucrt:atan2f.obj
 0002:00010b70       __real@4070000000000000    000000018007ab70     libucrt:atan2f.obj
 0002:00010b78       __real@80000000            000000018007ab78     libucrt:atan2f.obj
 0002:00010b7c       __real@bf490fdb            000000018007ab7c     libucrt:atan2f.obj
 0002:00010b80       __real@bfc90fdb            000000018007ab80     libucrt:atan2f.obj
 0002:00010b84       __real@c016cbe4            000000018007ab84     libucrt:atan2f.obj
 0002:00010b88       __real@c0490fdb            000000018007ab88     libucrt:atan2f.obj
 0002:00010cac       ??_C@_05OOAOEJGP@fmodf@    000000018007acac     libucrt:fmodf.obj
 0002:00012aa0       ??_C@_05KGFAIMPG@sqrtf@    000000018007caa0     libucrt:sqrtf.obj
 0002:00012c20       ??_C@_04LAGPAAHP@sinf@     000000018007cc20     libucrt:sincos_special.obj
 0002:00012c28       ??_C@_04OBBKPIAC@cosf@     000000018007cc28     libucrt:sincos_special.obj
 0002:00012c30       __Lcosfarray               000000018007cc30     libucrt:lsincosf_array.obj
 0002:00012c60       __Lsinfarray               000000018007cc60     libucrt:lsincosf_array.obj
 0002:00012c80       __log_256_lead             000000018007cc80     libucrt:log_256_lead_tail_table.obj
 0002:00013490       __log_256_tail             000000018007d490     libucrt:log_256_lead_tail_table.obj
 0002:00013ca0       __two_to_jby64_head_table  000000018007dca0     libucrt:two_to_jby64_head_tail_table.obj
 0002:00013ea0       __two_to_jby64_tail_table  000000018007dea0     libucrt:two_to_jby64_head_tail_table.obj
 0002:000140a0       ??_C@_04MBFDLNIM@powf@     000000018007e0a0     libucrt:pow_special.obj
 0002:000140b0       __two_to_jby64_table       000000018007e0b0     libucrt:two_to_jby64_table.obj
 0002:000142b0       __L_2_by_pi_bits           000000018007e2b0     libucrt:l2_by_pi_bits.obj
 0002:00014400       _load_config_used          000000018007e400     LIBCMT:loadcfg.obj
 0002:00014700       _tls_used                  000000018007e700     LIBCMT:tlssup.obj
 0002:00014728       ??_R4logic_error@std@@6B@  000000018007e728     libcpmt:xthrow.obj
 0002:00014750       ??_R3logic_error@std@@8    000000018007e750     libcpmt:xthrow.obj
 0002:00014768       ??_R2logic_error@std@@8    000000018007e768     libcpmt:xthrow.obj
 0002:00014780       ??_R1A@?0A@EA@logic_error@std@@8 000000018007e780     libcpmt:xthrow.obj
 0002:000147a8       ??_R4length_error@std@@6B@ 000000018007e7a8     libcpmt:xthrow.obj
 0002:000147d0       ??_R3length_error@std@@8   000000018007e7d0     libcpmt:xthrow.obj
 0002:000147e8       ??_R2length_error@std@@8   000000018007e7e8     libcpmt:xthrow.obj
 0002:00014808       ??_R1A@?0A@EA@length_error@std@@8 000000018007e808     libcpmt:xthrow.obj
 0002:00014830       ??_R4out_of_range@std@@6B@ 000000018007e830     libcpmt:xthrow.obj
 0002:00014858       ??_R3out_of_range@std@@8   000000018007e858     libcpmt:xthrow.obj
 0002:00014870       ??_R2out_of_range@std@@8   000000018007e870     libcpmt:xthrow.obj
 0002:00014890       ??_R1A@?0A@EA@out_of_range@std@@8 000000018007e890     libcpmt:xthrow.obj
 0002:000148b8       ??_R4type_info@@6B@        000000018007e8b8     LIBCMT:std_type_info_static.obj
 0002:000148e0       ??_R3type_info@@8          000000018007e8e0     LIBCMT:std_type_info_static.obj
 0002:000148f8       ??_R2type_info@@8          000000018007e8f8     LIBCMT:std_type_info_static.obj
 0002:00014908       ??_R1A@?0A@EA@type_info@@8 000000018007e908     LIBCMT:std_type_info_static.obj
 0002:00014930       ??_R4bad_exception@std@@6B@ 000000018007e930     libvcruntime:frame.obj
 0002:00014958       ??_R3bad_exception@std@@8  000000018007e958     libvcruntime:frame.obj
 0002:00014970       ??_R2bad_exception@std@@8  000000018007e970     libvcruntime:frame.obj
 0002:00014988       ??_R1A@?0A@EA@bad_exception@std@@8 000000018007e988     libvcruntime:frame.obj
 0002:000149b0       ??_R4exception@std@@6B@    000000018007e9b0     Aimbot.obj
 0002:000149d8       ??_R2bad_array_new_length@std@@8 000000018007e9d8     Aimbot.obj
 0002:000149f8       ??_R2bad_alloc@std@@8      000000018007e9f8     Aimbot.obj
 0002:00014a10       ??_R1A@?0A@EA@exception@std@@8 000000018007ea10     Aimbot.obj
 0002:00014a38       ??_R1A@?0A@EA@bad_alloc@std@@8 000000018007ea38     Aimbot.obj
 0002:00014a60       ??_R2exception@std@@8      000000018007ea60     Aimbot.obj
 0002:00014a70       ??_R3exception@std@@8      000000018007ea70     Aimbot.obj
 0002:00014a88       ??_R4bad_alloc@std@@6B@    000000018007ea88     Aimbot.obj
 0002:00014ab0       ??_R3bad_array_new_length@std@@8 000000018007eab0     Aimbot.obj
 0002:00014ac8       ??_R3bad_alloc@std@@8      000000018007eac8     Aimbot.obj
 0002:00014ae0       ??_R4bad_array_new_length@std@@6B@ 000000018007eae0     Aimbot.obj
 0002:00014b08       ??_R1A@?0A@EA@bad_array_new_length@std@@8 000000018007eb08     Aimbot.obj
 0002:00014b2c       __volatile_metadata        000000018007eb2c     <linker-defined>
 0002:000159c8       __rtc_iaa                  000000018007f9c8     LIBCMT:initsect.obj
 0002:000159d0       __rtc_izz                  000000018007f9d0     LIBCMT:initsect.obj
 0002:000159d8       __rtc_taa                  000000018007f9d8     LIBCMT:initsect.obj
 0002:000159e0       __rtc_tzz                  000000018007f9e0     LIBCMT:initsect.obj
 0002:000159e8       _tls_start                 000000018007f9e8     LIBCMT:tlssup.obj
 0002:000159ec       _Init_thread_epoch         000000018007f9ec     LIBCMT:thread_safe_statics.obj
 0002:000159f0       _tls_end                   000000018007f9f0     LIBCMT:tlssup.obj
 0002:0001b8c0       _TI2?AVbad_alloc@std@@     00000001800858c0     libcpmt:xthrow.obj
 0002:0001b8e0       _CTA2?AVbad_alloc@std@@    00000001800858e0     libcpmt:xthrow.obj
 0002:0001b8f8       _CT??_R0?AVlogic_error@std@@@8??0logic_error@std@@QEAA@AEBV01@@Z24 00000001800858f8     libcpmt:xthrow.obj
 0002:0001b920       _TI3?AVlength_error@std@@  0000000180085920     libcpmt:xthrow.obj
 0002:0001b940       _CTA3?AVlength_error@std@@ 0000000180085940     libcpmt:xthrow.obj
 0002:0001b960       _CT??_R0?AVlength_error@std@@@8??0length_error@std@@QEAA@AEBV01@@Z24 0000000180085960     libcpmt:xthrow.obj
 0002:0001b988       _TI3?AVout_of_range@std@@  0000000180085988     libcpmt:xthrow.obj
 0002:0001b9a8       _CTA3?AVout_of_range@std@@ 00000001800859a8     libcpmt:xthrow.obj
 0002:0001b9c8       _CT??_R0?AVout_of_range@std@@@8??0out_of_range@std@@QEAA@AEBV01@@Z24 00000001800859c8     libcpmt:xthrow.obj
 0002:0001b9f0       _TI2?AVbad_exception@std@@ 00000001800859f0     libvcruntime:frame.obj
 0002:0001ba10       _CTA2?AVbad_exception@std@@ 0000000180085a10     libvcruntime:frame.obj
 0002:0001ba28       _CT??_R0?AVbad_exception@std@@@8??0bad_exception@std@@QEAA@AEBV01@@Z24 0000000180085a28     libvcruntime:frame.obj
 0002:0001ba50       _CTA3?AVbad_array_new_length@std@@ 0000000180085a50     Aimbot.obj
 0002:0001ba70       _CT??_R0?AVbad_array_new_length@std@@@8??0bad_array_new_length@std@@QEAA@AEBV01@@Z24 0000000180085a70     Aimbot.obj
 0002:0001ba98       _CT??_R0?AVbad_alloc@std@@@8??0bad_alloc@std@@QEAA@AEBV01@@Z24 0000000180085a98     Aimbot.obj
 0002:0001bac0       _CT??_R0?AVexception@std@@@8??0exception@std@@QEAA@AEBV01@@Z24 0000000180085ac0     Aimbot.obj
 0002:0001bae8       _TI3?AVbad_array_new_length@std@@ 0000000180085ae8     Aimbot.obj
 0002:0001bb04       __IMPORT_DESCRIPTOR_KERNEL32 0000000180085b04     kernel32:KERNEL32.dll
 0002:0001bb18       __IMPORT_DESCRIPTOR_USER32 0000000180085b18     user32:USER32.dll
 0002:0001bb2c       __IMPORT_DESCRIPTOR_IMM32  0000000180085b2c     imm32:IMM32.dll
 0002:0001bb40       __IMPORT_DESCRIPTOR_D3DCOMPILER_47 0000000180085b40     d3dcompiler:D3DCOMPILER_47.dll
 0002:0001bb54       __NULL_IMPORT_DESCRIPTOR   0000000180085b54     kernel32:KERNEL32.dll
 0003:00000000       __scrt_native_dllmain_reason 0000000180087000     LIBCMT:utility.obj
 0003:00000004       _Init_global_epoch         0000000180087004     LIBCMT:thread_safe_statics.obj
 0003:00000040       __security_cookie          0000000180087040     LIBCMT:gs_cookie.obj
 0003:00000080       __security_cookie_complement 0000000180087080     LIBCMT:gs_cookie.obj
 0003:00000088       __isa_inverted             0000000180087088     LIBCMT:cpu_disp.obj
 0003:00000090       __isa_available            0000000180087090     LIBCMT:cpu_disp.obj
 0003:00000094       __isa_enabled              0000000180087094     LIBCMT:cpu_disp.obj
 0003:00000098       __memset_fast_string_threshold 0000000180087098     LIBCMT:cpu_disp.obj
 0003:000000a0       __memset_nt_threshold      00000001800870a0     LIBCMT:cpu_disp.obj
 0003:000000c0       _iob                       00000001800870c0     libucrt:_file.obj
 0003:000001d0       __abort_behavior           00000001800871d0     libucrt:abort.obj
 0003:000001e0       __acrt_initial_locale_data 00000001800871e0     libucrt:nlsdata.obj
 0003:00000338       __acrt_initial_locale_pointers 0000000180087338     libucrt:nlsdata.obj
 0003:00000348       __acrt_wide_c_locale_string 0000000180087348     libucrt:nlsdata.obj
 0003:00000360       _lookuptrailbytes          0000000180087360     libucrt:read.obj
 0003:00000460       __badioinfo                0000000180087460     libucrt:ioinit.obj
 0003:000004b0       __acrt_initial_multibyte_data 00000001800874b0     libucrt:mbctype.obj
 0003:000009f0       __acrt_lconv_c             00000001800879f0     libucrt:localeconv.obj
 0003:00000a88       __acrt_lconv_static_decimal 0000000180087a88     libucrt:localeconv.obj
 0003:00000a8c       __acrt_lconv_static_W_decimal 0000000180087a8c     libucrt:localeconv.obj
 0003:00000a90       __globallocalestatus       0000000180087a90     libucrt:glstatus.obj
 0003:00000ab4       _fltused                   0000000180087ab4     LIBCMT:fltused.obj
 0003:00000ac0       ?AimSmoothness@MenuConfig@@3MA 0000000180087ac0     Aimbot.obj
 0003:00000ac4       ?FOV@MenuConfig@@3MA       0000000180087ac4     Aimbot.obj
 0003:00000ac8       ?ClosestDistance@@3MA      0000000180087ac8     Aimbot.obj
 0003:00000acc       ?BoxThickness@MenuConfig@@3MA 0000000180087acc     ESP.obj
 0003:00000ad0       ?ShowBoneESP@MenuConfig@@3_NA 0000000180087ad0     ESP.obj
 0003:00000ad1       ?ShowHealthBar@MenuConfig@@3_NA 0000000180087ad1     ESP.obj
 0003:00000ad2       ?ShowDistance@MenuConfig@@3_NA 0000000180087ad2     ESP.obj
 0003:00000ad3       ?ShowBoxESP@MenuConfig@@3_NA 0000000180087ad3     ESP.obj
 0003:00000ad4       ?ShowPlayerName@MenuConfig@@3_NA 0000000180087ad4     ESP.obj
 0003:00000ad5       ?ShowWeaponESP@MenuConfig@@3_NA 0000000180087ad5     ESP.obj
 0003:00000ad8       ?BoneThickness@MenuConfig@@3MA 0000000180087ad8     ESP.obj
 0003:00000adc       ?ItemESP@MenuConfig@@3_NA  0000000180087adc     ESP.obj
 0003:00000ae0       ?TriggerBotDelay@MenuConfig@@3MA 0000000180087ae0     TriggerBot.obj
 0003:00000ae4       ?TeamCheck@MenuConfig@@3_NA 0000000180087ae4     TriggerBot.obj
 0003:00000ae8       ?MenuState@MenuConfig@@3HA 0000000180087ae8     d3d.obj
 0003:00000aec       ?CurrentBoneIndex@MenuConfig@@3HA 0000000180087aec     d3d.obj
 0003:00000af0       ?ShowMenu@MenuConfig@@3_NA 0000000180087af0     d3d.obj
 0003:00000b00       ?Bones@@3PAPEBDA           0000000180087b00     d3d.obj
 0003:00000b90       ?ubuntu_1@@3PAEA           0000000180087b90     d3d.obj
 0003:00042b50       ?HotKeys@@3PAPEBDA         00000001800c9b50     d3d.obj
 0003:00042b88       ?MousePos@@3VVec2@@A       00000001800c9b88     Aimbot.obj
 0003:00042b90       ?LocalController@@3VLocalEntity@@A 00000001800c9b90     Aimbot.obj
 0003:00042bb8       ?BoxColor@MenuConfig@@3UImColor@@A 00000001800c9bb8     Aimbot.obj
 0003:00042bc8       ?WeaponColor@MenuConfig@@3UImColor@@A 00000001800c9bc8     Aimbot.obj
 0003:00042bd8       ?NameColor@MenuConfig@@3UImColor@@A 00000001800c9bd8     Aimbot.obj
 0003:00042be8       ?BoneColor@MenuConfig@@3UImColor@@A 00000001800c9be8     Aimbot.obj
 0003:00042bf8       ?AimAtPosition@@3VVec2@@A  00000001800c9bf8     Aimbot.obj
 0003:00042c00       ?ItemColor@MenuConfig@@3UImColor@@A 00000001800c9c00     Aimbot.obj
 0003:00042c10       ?DistanceColor@MenuConfig@@3UImColor@@A 00000001800c9c10     Aimbot.obj
 0003:00042c20       ?Rect@@3UImVec4@@A         00000001800c9c20     ESP.obj
 0003:00042ca0       ??_R0?AVlogic_error@std@@@8 00000001800c9ca0     libcpmt:xthrow.obj
 0003:00042cc8       ??_R0?AVlength_error@std@@@8 00000001800c9cc8     libcpmt:xthrow.obj
 0003:00042cf0       ??_R0?AVout_of_range@std@@@8 00000001800c9cf0     libcpmt:xthrow.obj
 0003:00042d18       ??_R0?AVbad_exception@std@@@8 00000001800c9d18     libvcruntime:frame.obj
 0003:00042d40       ??_R0?AVbad_alloc@std@@@8  00000001800c9d40     Aimbot.obj
 0003:00042d68       ??_R0?AVexception@std@@@8  00000001800c9d68     Aimbot.obj
 0003:00042d90       ??_R0?AVbad_array_new_length@std@@@8 00000001800c9d90     Aimbot.obj
 0003:00042dc0       ??_R0?AVtype_info@@@8      00000001800c9dc0     LIBCMT:std_type_info_static.obj
 0003:00042e38       __scrt_current_native_startup_state 00000001800c9e38     LIBCMT:utility.obj
 0003:00042e40       __scrt_native_startup_lock 00000001800c9e40     LIBCMT:utility.obj
 0003:00043404       __avx10_version            00000001800ca404     LIBCMT:cpu_disp.obj
 0003:00043408       __favor                    00000001800ca408     LIBCMT:cpu_disp.obj
 0003:0004340c       __scrt_debugger_hook_flag  00000001800ca40c     LIBCMT:utility_desktop.obj
 0003:00043410       _tls_index                 00000001800ca410     LIBCMT:tlssup.obj
 0003:00043420       ?__type_info_root_node@@3U__type_info_node@@A 00000001800ca420     LIBCMT:tncleanup.obj
 0003:00043430       ?__WinRTOutOfMemoryExceptionCallback@@3P6APEAXXZEA 00000001800ca430     libvcruntime:ehhelpers.obj
 0003:000434f0       ?pArgList@UnDecorator@@0PEAVReplicator@@EA 00000001800ca4f0     libvcruntime:undname.obj
 0003:000434f8       ?pZNameList@UnDecorator@@0PEAVReplicator@@EA 00000001800ca4f8     libvcruntime:undname.obj
 0003:00043500       ?pTemplateArgList@UnDecorator@@0PEAVReplicator@@EA 00000001800ca500     libvcruntime:undname.obj
 0003:00043508       ?gName@UnDecorator@@0PEBDEB 00000001800ca508     libvcruntime:undname.obj
 0003:00043510       ?name@UnDecorator@@0PEBDEB 00000001800ca510     libvcruntime:undname.obj
 0003:00043518       ?disableFlags@UnDecorator@@0KA 00000001800ca518     libvcruntime:undname.obj
 0003:0004351c       ?fExplicitTemplateParams@UnDecorator@@0_NA 00000001800ca51c     libvcruntime:undname.obj
 0003:0004351d       ?fGetTemplateArgumentList@UnDecorator@@0_NA 00000001800ca51d     libvcruntime:undname.obj
 0003:00043520       ?m_pGetParameter@UnDecorator@@0P6APEADJ@ZEA 00000001800ca520     libvcruntime:undname.obj
 0003:00043528       ?m_CHPENameOffset@UnDecorator@@0KA 00000001800ca528     libvcruntime:undname.obj
 0003:0004352c       ?m_recursionLevel@UnDecorator@@0KA 00000001800ca52c     libvcruntime:undname.obj
 0003:00043598       __pPurecall                00000001800ca598     libvcruntime:purevirt_data.obj
 0003:000435a8       _nstream                   00000001800ca5a8     libucrt:_file.obj
 0003:000435b0       __piob                     00000001800ca5b0     libucrt:_file.obj
 0003:000435b8       _cflush                    00000001800ca5b8     libucrt:_file.obj
 0003:000436e8       _environ_table             00000001800ca6e8     libucrt:environment_initialization.obj
 0003:000436f0       _wenviron_table            00000001800ca6f0     libucrt:environment_initialization.obj
 0003:000436f8       __dcrt_initial_wide_environment 00000001800ca6f8     libucrt:environment_initialization.obj
 0003:00043700       __dcrt_initial_narrow_environment 00000001800ca700     libucrt:environment_initialization.obj
 0003:00043708       __acrt_atexit_table        00000001800ca708     libucrt:onexit.obj
 0003:00043720       __acrt_at_quick_exit_table 00000001800ca720     libucrt:onexit.obj
 0003:00043738       __acrt_locale_changed_data 00000001800ca738     libucrt:wsetlocale.obj
 0003:00043740       __acrt_current_locale_data 00000001800ca740     libucrt:nlsdata.obj
 0003:00043750       __pioinfo                  00000001800ca750     libucrt:ioinit.obj
 0003:00043b50       _nhandle                   00000001800cab50     libucrt:ioinit.obj
 0003:00043f48       __acrt_stdout_buffer       00000001800caf48     libucrt:_sftbuf.obj
 0003:00043f50       __acrt_stderr_buffer       00000001800caf50     libucrt:_sftbuf.obj
 0003:00043f68       _mbctype                   00000001800caf68     libucrt:mbctype.obj
 0003:00043f70       _mbcasemap                 00000001800caf70     libucrt:mbctype.obj
 0003:00043f78       __acrt_current_multibyte_data 00000001800caf78     libucrt:mbctype.obj
 0003:00043f88       _pgmptr                    00000001800caf88     libucrt:argv_data.obj
 0003:00043f90       __argc                     00000001800caf90     libucrt:argv_data.obj
 0003:00043f98       __argv                     00000001800caf98     libucrt:argv_data.obj
 0003:00043fa0       __wargv                    00000001800cafa0     libucrt:argv_data.obj
 0003:00043fa8       _acmdln                    00000001800cafa8     libucrt:argv_data.obj
 0003:00043fb0       _wcmdln                    00000001800cafb0     libucrt:argv_data.obj
 0003:00043fb8       __acrt_heap                00000001800cafb8     libucrt:heap_handle.obj
 0003:00043fe8       __acrt_lconv_static_null   00000001800cafe8     libucrt:localeconv.obj
 0003:00043fec       __acrt_lconv_static_W_null 00000001800cafec     libucrt:localeconv.obj
 0003:00043ff4       _commode                   00000001800caff4     libucrt:ncommode.obj
 0003:00044008       _umaskval                  00000001800cb008     libucrt:umask.obj
 0003:0004400c       _fmode                     00000001800cb00c     libucrt:txtmode.obj
 0003:00044010       __fma3_is_available        00000001800cb010     libucrt:fma3_available.obj
 0003:00044014       __use_fma3_lib             00000001800cb014     libucrt:fma3_available.obj
 0003:00044018       ?ClosestBone@MenuConfig@@3_NA 00000001800cb018     Aimbot.obj
 0003:00044019       ?EnableAimbot@MenuConfig@@3_NA 00000001800cb019     Aimbot.obj
 0003:0004401c       ?SelectedBoneIndex@MenuConfig@@3HA 00000001800cb01c     Aimbot.obj
 0003:00044020       ?SelectedHotkey@MenuConfig@@3HA 00000001800cb020     Aimbot.obj
 0003:00044024       ?DrawFOV@MenuConfig@@3_NA  00000001800cb024     ESP.obj
 0003:00044025       ?TriggerBot@MenuConfig@@3_NA 00000001800cb025     TriggerBot.obj
 0003:00044028       ?Initiated@@3_NA           00000001800cb028     d3d.obj
 0003:00044029       ?EmptyString@ImGuiTextBuffer@@2PADA 00000001800cb029     imgui.obj
 0003:00044038       ?GImGui@@3PEAUImGuiContext@@EA 00000001800cb038     imgui.obj
 0003:000440f0       ?oPresent@@3P6AJPEAUIDXGISwapChain@@II@ZEA 00000001800cb0f0     d3d.obj
 0003:000440f8       ?pContext@@3PEAUID3D11DeviceContext@@EA 00000001800cb0f8     d3d.obj
 0003:00044100       ?Window@@3PEAUHWND__@@EA   00000001800cb100     d3d.obj
 0003:00044108       ?pDevice@@3PEAUID3D11Device@@EA 00000001800cb108     d3d.obj
 0003:00044110       ?_OptionsStorage@?1??__local_stdio_printf_options@@9@4_KA 00000001800cb110     imgui.obj
 0003:00044118       ?_OptionsStorage@?1??__local_stdio_scanf_options@@9@4_KA 00000001800cb118     imgui.obj
 0003:00044120       ?GameRules@@3V?$basic_string@DU?$char_traits@D@std@@V?$allocator@D@2@@std@@A 00000001800cb120     Aimbot.obj
 0003:00044140       ?Entity@@3PEAVCEntity@@EA  00000001800cb140     Aimbot.obj
 0003:00044148       ?pBoneArray@@3V?$basic_string@DU?$char_traits@D@std@@V?$allocator@D@2@@std@@A 00000001800cb148     Aimbot.obj
 0003:00044168       ?Manager@@3PEAVModuleManager@@EA 00000001800cb168     Aimbot.obj
 0003:00044170       ?pGameSceneNode@@3V?$basic_string@DU?$char_traits@D@std@@V?$allocator@D@2@@std@@A 00000001800cb170     Aimbot.obj
 0003:00044190       ?EntityIndex@@3V?$basic_string@DU?$char_traits@D@std@@V?$allocator@D@2@@std@@A 00000001800cb190     Aimbot.obj
 0003:000441b0       ?Weapon@@3PEAVWeaponEntity@@EA 00000001800cb1b0     Aimbot.obj
 0003:000441b8       ?ViewMatrix@@3V?$basic_string@DU?$char_traits@D@std@@V?$allocator@D@2@@std@@A 00000001800cb1b8     Aimbot.obj
 0003:000441d8       ?EntityList@@3V?$basic_string@DU?$char_traits@D@std@@V?$allocator@D@2@@std@@A 00000001800cb1d8     Aimbot.obj
 0003:000441f8       ?pClippingWeapon@@3V?$basic_string@DU?$char_traits@D@std@@V?$allocator@D@2@@std@@A 00000001800cb1f8     Aimbot.obj
 0003:00044218       ?Offsets@@3PEAVGameData@@EA 00000001800cb218     Aimbot.obj
 0003:00044220       ?LocalPlayerPawn@@3V?$basic_string@DU?$char_traits@D@std@@V?$allocator@D@2@@std@@A 00000001800cb220     Aimbot.obj
 0003:00044240       ?iHealth@@3V?$basic_string@DU?$char_traits@D@std@@V?$allocator@D@2@@std@@A 00000001800cb240     Aimbot.obj
 0003:00044260       ?vOldOrigin@@3V?$basic_string@DU?$char_traits@D@std@@V?$allocator@D@2@@std@@A 00000001800cb260     Aimbot.obj
 0003:00044280       ?LocalPlayerController@@3V?$basic_string@DU?$char_traits@D@std@@V?$allocator@D@2@@std@@A 00000001800cb280     Aimbot.obj
 0003:000442a0       ?iTeamNum@@3V?$basic_string@DU?$char_traits@D@std@@V?$allocator@D@2@@std@@A 00000001800cb2a0     Aimbot.obj
 0003:000442c0       ?pArmorValue@@3V?$basic_string@DU?$char_traits@D@std@@V?$allocator@D@2@@std@@A 00000001800cb2c0     Aimbot.obj
 0003:000442e0       ?bPawnIsAlive@@3V?$basic_string@DU?$char_traits@D@std@@V?$allocator@D@2@@std@@A 00000001800cb2e0     Aimbot.obj
 0003:00044300       ?RightArm@BoneJointList@@3V?$list@KV?$allocator@K@std@@@std@@A 00000001800cb300     Aimbot.obj
 0003:00044310       ?List@BoneJointList@@3V?$vector@V?$list@KV?$allocator@K@std@@@std@@V?$allocator@V?$list@KV?$allocator@K@std@@@std@@@2@@std@@A 00000001800cb310     Aimbot.obj
 0003:00044328       ?LeftLeg@BoneJointList@@3V?$list@KV?$allocator@K@std@@@std@@A 00000001800cb328     Aimbot.obj
 0003:00044338       ?RightLeg@BoneJointList@@3V?$list@KV?$allocator@K@std@@@std@@A 00000001800cb338     Aimbot.obj
 0003:00044348       ?LeftArm@BoneJointList@@3V?$list@KV?$allocator@K@std@@@std@@A 00000001800cb348     Aimbot.obj
 0003:00044358       ?Trunk@BoneJointList@@3V?$list@KV?$allocator@K@std@@@std@@A 00000001800cb358     Aimbot.obj
 0003:00044374       ?CurrentHotkey@@3HA        00000001800cb374     d3d.obj
 0003:00044378       ?oWndProc@@3P6A_JPEAUHWND__@@I_K_J@ZEA 00000001800cb378     d3d.obj
 0003:00044380       ?MainRenderTargetView@@3PEAUID3D11RenderTargetView@@EA 00000001800cb380     d3d.obj
 0003:000443a0       __dyn_tls_init_callback    00000001800cb3a0     <common>
 0003:000443a8       __scrt_ucrt_dll_is_in_use  00000001800cb3a8     <common>

 entry point at        0001:00043a04

 Static symbols

 0000:fff2c000       .debug$S                   0000000180000000     d3dcompiler:D3DCOMPILER_47.dll
 0000:fff2c000       .debug$S                   0000000180000000     imm32:IMM32.dll
 0000:fff2c000       .debug$S                   0000000180000000     imm32:IMM32.dll
 0000:fff2c000       .debug$S                   0000000180000000     imm32:IMM32.dll
 0000:fff2c000       .debug$S                   0000000180000000     kernel32:KERNEL32.dll
 0000:fff2c000       .debug$S                   0000000180000000     kernel32:KERNEL32.dll
 0000:fff2c000       .debug$S                   0000000180000000     kernel32:KERNEL32.dll
 0000:fff2c000       .debug$S                   0000000180000000     kernel32:KERNEL32.dll
 0000:fff2c000       .debug$S                   0000000180000000     kernel32:KERNEL32.dll
 0000:fff2c000       .debug$S                   0000000180000000     kernel32:KERNEL32.dll
 0000:fff2c000       .debug$S                   0000000180000000     kernel32:KERNEL32.dll
 0000:fff2c000       .debug$S                   0000000180000000     kernel32:KERNEL32.dll
 0000:fff2c000       .debug$S                   0000000180000000     kernel32:KERNEL32.dll
 0000:fff2c000       .debug$S                   0000000180000000     kernel32:KERNEL32.dll
 0000:fff2c000       .debug$S                   0000000180000000     kernel32:KERNEL32.dll
 0000:fff2c000       .debug$S                   0000000180000000     kernel32:KERNEL32.dll
 0000:fff2c000       .debug$S                   0000000180000000     kernel32:KERNEL32.dll
 0000:fff2c000       .debug$S                   0000000180000000     kernel32:KERNEL32.dll
 0000:fff2c000       .debug$S                   0000000180000000     kernel32:KERNEL32.dll
 0000:fff2c000       .debug$S                   0000000180000000     kernel32:KERNEL32.dll
 0000:fff2c000       .debug$S                   0000000180000000     kernel32:KERNEL32.dll
 0000:fff2c000       .debug$S                   0000000180000000     kernel32:KERNEL32.dll
 0000:fff2c000       .debug$S                   0000000180000000     kernel32:KERNEL32.dll
 0000:fff2c000       .debug$S                   0000000180000000     kernel32:KERNEL32.dll
 0000:fff2c000       .debug$S                   0000000180000000     kernel32:KERNEL32.dll
 0000:fff2c000       .debug$S                   0000000180000000     kernel32:KERNEL32.dll
 0000:fff2c000       .debug$S                   0000000180000000     kernel32:KERNEL32.dll
 0000:fff2c000       .debug$S                   0000000180000000     kernel32:KERNEL32.dll
 0000:fff2c000       .debug$S                   0000000180000000     kernel32:KERNEL32.dll
 0000:fff2c000       .debug$S                   0000000180000000     kernel32:KERNEL32.dll
 0000:fff2c000       .debug$S                   0000000180000000     kernel32:KERNEL32.dll
 0000:fff2c000       .debug$S                   0000000180000000     kernel32:KERNEL32.dll
 0000:fff2c000       .debug$S                   0000000180000000     kernel32:KERNEL32.dll
 0000:fff2c000       .debug$S                   0000000180000000     kernel32:KERNEL32.dll
 0000:fff2c000       .debug$S                   0000000180000000     kernel32:KERNEL32.dll
 0000:fff2c000       .debug$S                   0000000180000000     kernel32:KERNEL32.dll
 0000:fff2c000       .debug$S                   0000000180000000     kernel32:KERNEL32.dll
 0000:fff2c000       .debug$S                   0000000180000000     kernel32:KERNEL32.dll
 0000:fff2c000       .debug$S                   0000000180000000     kernel32:KERNEL32.dll
 0000:fff2c000       .debug$S                   0000000180000000     kernel32:KERNEL32.dll
 0000:fff2c000       .debug$S                   0000000180000000     kernel32:KERNEL32.dll
 0000:fff2c000       .debug$S                   0000000180000000     kernel32:KERNEL32.dll
 0000:fff2c000       .debug$S                   0000000180000000     kernel32:KERNEL32.dll
 0000:fff2c000       .debug$S                   0000000180000000     kernel32:KERNEL32.dll
 0000:fff2c000       .debug$S                   0000000180000000     kernel32:KERNEL32.dll
 0000:fff2c000       .debug$S                   0000000180000000     kernel32:KERNEL32.dll
 0000:fff2c000       .debug$S                   0000000180000000     kernel32:KERNEL32.dll
 0000:fff2c000       .debug$S                   0000000180000000     kernel32:KERNEL32.dll
 0000:fff2c000       .debug$S                   0000000180000000     kernel32:KERNEL32.dll
 0000:fff2c000       .debug$S                   0000000180000000     kernel32:KERNEL32.dll
 0000:fff2c000       .debug$S                   0000000180000000     kernel32:KERNEL32.dll
 0000:fff2c000       .debug$S                   0000000180000000     kernel32:KERNEL32.dll
 0000:fff2c000       .debug$S                   0000000180000000     kernel32:KERNEL32.dll
 0000:fff2c000       .debug$S                   0000000180000000     kernel32:KERNEL32.dll
 0000:fff2c000       .debug$S                   0000000180000000     kernel32:KERNEL32.dll
 0000:fff2c000       .debug$S                   0000000180000000     kernel32:KERNEL32.dll
 0000:fff2c000       .debug$S                   0000000180000000     kernel32:KERNEL32.dll
 0000:fff2c000       .debug$S                   0000000180000000     kernel32:KERNEL32.dll
 0000:fff2c000       .debug$S                   0000000180000000     kernel32:KERNEL32.dll
 0000:fff2c000       .debug$S                   0000000180000000     kernel32:KERNEL32.dll
 0000:fff2c000       .debug$S                   0000000180000000     kernel32:KERNEL32.dll
 0000:fff2c000       .debug$S                   0000000180000000     kernel32:KERNEL32.dll
 0000:fff2c000       .debug$S                   0000000180000000     kernel32:KERNEL32.dll
 0000:fff2c000       .debug$S                   0000000180000000     kernel32:KERNEL32.dll
 0000:fff2c000       .debug$S                   0000000180000000     kernel32:KERNEL32.dll
 0000:fff2c000       .debug$S                   0000000180000000     kernel32:KERNEL32.dll
 0000:fff2c000       .debug$S                   0000000180000000     kernel32:KERNEL32.dll
 0000:fff2c000       .debug$S                   0000000180000000     kernel32:KERNEL32.dll
 0000:fff2c000       .debug$S                   0000000180000000     kernel32:KERNEL32.dll
 0000:fff2c000       .debug$S                   0000000180000000     kernel32:KERNEL32.dll
 0000:fff2c000       .debug$S                   0000000180000000     kernel32:KERNEL32.dll
 0000:fff2c000       .debug$S                   0000000180000000     kernel32:KERNEL32.dll
 0000:fff2c000       .debug$S                   0000000180000000     kernel32:KERNEL32.dll
 0000:fff2c000       .debug$S                   0000000180000000     kernel32:KERNEL32.dll
 0000:fff2c000       .debug$S                   0000000180000000     kernel32:KERNEL32.dll
 0000:fff2c000       .debug$S                   0000000180000000     kernel32:KERNEL32.dll
 0000:fff2c000       .debug$S                   0000000180000000     kernel32:KERNEL32.dll
 0000:fff2c000       .debug$S                   0000000180000000     kernel32:KERNEL32.dll
 0000:fff2c000       .debug$S                   0000000180000000     kernel32:KERNEL32.dll
 0000:fff2c000       .debug$S                   0000000180000000     kernel32:KERNEL32.dll
 0000:fff2c000       .debug$S                   0000000180000000     kernel32:KERNEL32.dll
 0000:fff2c000       .debug$S                   0000000180000000     kernel32:KERNEL32.dll
 0000:fff2c000       .debug$S                   0000000180000000     kernel32:KERNEL32.dll
 0000:fff2c000       .debug$S                   0000000180000000     kernel32:KERNEL32.dll
 0000:fff2c000       .debug$S                   0000000180000000     kernel32:KERNEL32.dll
 0000:fff2c000       .debug$S                   0000000180000000     kernel32:KERNEL32.dll
 0000:fff2c000       .debug$S                   0000000180000000     kernel32:KERNEL32.dll
 0000:fff2c000       .debug$S                   0000000180000000     kernel32:KERNEL32.dll
 0000:fff2c000       .debug$S                   0000000180000000     kernel32:KERNEL32.dll
 0000:fff2c000       .debug$S                   0000000180000000     kernel32:KERNEL32.dll
 0000:fff2c000       .debug$S                   0000000180000000     kernel32:KERNEL32.dll
 0000:fff2c000       .debug$S                   0000000180000000     kernel32:KERNEL32.dll
 0000:fff2c000       .debug$S                   0000000180000000     kernel32:KERNEL32.dll
 0000:fff2c000       .debug$S                   0000000180000000     kernel32:KERNEL32.dll
 0000:fff2c000       .debug$S                   0000000180000000     kernel32:KERNEL32.dll
 0000:fff2c000       .debug$S                   0000000180000000     kernel32:KERNEL32.dll
 0000:fff2c000       .debug$S                   0000000180000000     kernel32:KERNEL32.dll
 0000:fff2c000       .debug$S                   0000000180000000     kernel32:KERNEL32.dll
 0000:fff2c000       .debug$S                   0000000180000000     kernel32:KERNEL32.dll
 0000:fff2c000       .debug$S                   0000000180000000     kernel32:KERNEL32.dll
 0000:fff2c000       .debug$S                   0000000180000000     kernel32:KERNEL32.dll
 0000:fff2c000       .debug$S                   0000000180000000     kernel32:KERNEL32.dll
 0000:fff2c000       .debug$S                   0000000180000000     kernel32:KERNEL32.dll
 0000:fff2c000       .debug$S                   0000000180000000     kernel32:KERNEL32.dll
 0000:fff2c000       .debug$S                   0000000180000000     kernel32:KERNEL32.dll
 0000:fff2c000       .debug$S                   0000000180000000     kernel32:KERNEL32.dll
 0000:fff2c000       .debug$S                   0000000180000000     kernel32:KERNEL32.dll
 0000:fff2c000       .debug$S                   0000000180000000     kernel32:KERNEL32.dll
 0000:fff2c000       .debug$S                   0000000180000000     kernel32:KERNEL32.dll
 0000:fff2c000       .debug$S                   0000000180000000     kernel32:KERNEL32.dll
 0000:fff2c000       .debug$S                   0000000180000000     kernel32:KERNEL32.dll
 0000:fff2c000       .debug$S                   0000000180000000     kernel32:KERNEL32.dll
 0000:fff2c000       .debug$S                   0000000180000000     kernel32:KERNEL32.dll
 0000:fff2c000       .debug$S                   0000000180000000     kernel32:KERNEL32.dll
 0000:fff2c000       .debug$S                   0000000180000000     kernel32:KERNEL32.dll
 0000:fff2c000       .debug$S                   0000000180000000     kernel32:KERNEL32.dll
 0000:fff2c000       .debug$S                   0000000180000000     kernel32:KERNEL32.dll
 0000:fff2c000       .debug$S                   0000000180000000     kernel32:KERNEL32.dll
 0000:fff2c000       .debug$S                   0000000180000000     kernel32:KERNEL32.dll
 0000:fff2c000       .debug$S                   0000000180000000     kernel32:KERNEL32.dll
 0000:fff2c000       .debug$S                   0000000180000000     kernel32:KERNEL32.dll
 0000:fff2c000       .debug$S                   0000000180000000     kernel32:KERNEL32.dll
 0000:fff2c000       .debug$S                   0000000180000000     kernel32:KERNEL32.dll
 0000:fff2c000       .debug$S                   0000000180000000     kernel32:KERNEL32.dll
 0000:fff2c000       .debug$S                   0000000180000000     kernel32:KERNEL32.dll
 0000:fff2c000       .debug$S                   0000000180000000     kernel32:KERNEL32.dll
 0000:fff2c000       .debug$S                   0000000180000000     kernel32:KERNEL32.dll
 0000:fff2c000       .debug$S                   0000000180000000     kernel32:KERNEL32.dll
 0000:fff2c000       .debug$S                   0000000180000000     kernel32:KERNEL32.dll
 0000:fff2c000       .debug$S                   0000000180000000     kernel32:KERNEL32.dll
 0000:fff2c000       .debug$S                   0000000180000000     kernel32:KERNEL32.dll
 0000:fff2c000       .debug$S                   0000000180000000     kernel32:KERNEL32.dll
 0000:fff2c000       .debug$S                   0000000180000000     user32:USER32.dll
 0000:fff2c000       .debug$S                   0000000180000000     user32:USER32.dll
 0000:fff2c000       .debug$S                   0000000180000000     user32:USER32.dll
 0000:fff2c000       .debug$S                   0000000180000000     user32:USER32.dll
 0000:fff2c000       .debug$S                   0000000180000000     user32:USER32.dll
 0000:fff2c000       .debug$S                   0000000180000000     user32:USER32.dll
 0000:fff2c000       .debug$S                   0000000180000000     user32:USER32.dll
 0000:fff2c000       .debug$S                   0000000180000000     user32:USER32.dll
 0000:fff2c000       .debug$S                   0000000180000000     user32:USER32.dll
 0000:fff2c000       .debug$S                   0000000180000000     user32:USER32.dll
 0000:fff2c000       .debug$S                   0000000180000000     user32:USER32.dll
 0000:fff2c000       .debug$S                   0000000180000000     user32:USER32.dll
 0000:fff2c000       .debug$S                   0000000180000000     user32:USER32.dll
 0000:fff2c000       .debug$S                   0000000180000000     user32:USER32.dll
 0000:fff2c000       .debug$S                   0000000180000000     user32:USER32.dll
 0000:fff2c000       .debug$S                   0000000180000000     user32:USER32.dll
 0000:fff2c000       .debug$S                   0000000180000000     user32:USER32.dll
 0000:fff2c000       .debug$S                   0000000180000000     user32:USER32.dll
 0000:fff2c000       .debug$S                   0000000180000000     user32:USER32.dll
 0000:fff2c000       .debug$S                   0000000180000000     user32:USER32.dll
 0000:fff2c000       .debug$S                   0000000180000000     user32:USER32.dll
 0000:fff2c000       .debug$S                   0000000180000000     user32:USER32.dll
 0000:fff2c000       .debug$S                   0000000180000000     user32:USER32.dll
 0001:000001a0       ?detour_is_imported@@YA_NPEAE0@Z 00000001800011a0 f   detours:detours.obj
 0001:000002f0       ?detour_writable_trampoline_regions@@YAXXZ 00000001800012f0 f   detours:detours.obj
 0001:00000480       ?detour_runnable_trampoline_regions@@YAXXZ 0000000180001480 f   detours:detours.obj
 0001:000004f0       ?detour_free_trampoline@@YAXPEAU_DETOUR_TRAMPOLINE@@@Z 00000001800014f0 f   detours:detours.obj
 0001:00000b60       ?detour_free_unused_trampoline_regions@@YAXXZ 0000000180001b60 f   detours:detours.obj
 0001:00000bf0       ?detour_is_region_empty@@YAHPEAUDETOUR_REGION@@@Z 0000000180001bf0 f   detours:detours.obj
 0001:00000cb0       ?detour_align_from_trampoline@@YAEPEAU_DETOUR_TRAMPOLINE@@E@Z 0000000180001cb0 f   detours:detours.obj
 0001:00000d20       ?detour_align_from_target@@YAJPEAU_DETOUR_TRAMPOLINE@@J@Z 0000000180001d20 f   detours:detours.obj
 0001:000015e0       ?detour_alloc_trampoline@@YAPEAU_DETOUR_TRAMPOLINE@@PEAE@Z 00000001800025e0 f   detours:detours.obj
 0001:000019a0       ?detour_alloc_region_from_lo@@YAPEAXPEAE0@Z 00000001800029a0 f   detours:detours.obj
 0001:00001aa0       ?detour_alloc_round_up_to_region@@YAPEAEPEAE@Z 0000000180002aa0 f   detours:detours.obj
 0001:00001af0       ?detour_alloc_region_from_hi@@YAPEAXPEAE0@Z 0000000180002af0 f   detours:detours.obj
 0001:00001c00       ?detour_alloc_round_down_to_region@@YAPEAEPEAE@Z 0000000180002c00 f   detours:detours.obj
 0001:00002890       ??__EEntityList@@YAXXZ     0000000180003890 f   Aimbot.obj
 0001:00002ab0       ??__EViewMatrix@@YAXXZ     0000000180003ab0 f   Aimbot.obj
 0001:00002cc0       ??__ELocalPlayerController@@YAXXZ 0000000180003cc0 f   Aimbot.obj
 0001:00002ed0       ??__ELocalPlayerPawn@@YAXXZ 0000000180003ed0 f   Aimbot.obj
 0001:000030e0       ??__EGameRules@@YAXXZ      00000001800040e0 f   Aimbot.obj
 0001:000032a0       ??__EpClippingWeapon@@YAXXZ 00000001800042a0 f   Aimbot.obj
 0001:000034b0       ??__EvOldOrigin@@YAXXZ     00000001800044b0 f   Aimbot.obj
 0001:00003740       ??__EiTeamNum@@YAXXZ       0000000180004740 f   Aimbot.obj
 0001:00003900       ??__EpArmorValue@@YAXXZ    0000000180004900 f   Aimbot.obj
 0001:00003b90       ??__EpGameSceneNode@@YAXXZ 0000000180004b90 f   Aimbot.obj
 0001:00003d50       ??__EpBoneArray@@YAXXZ     0000000180004d50 f   Aimbot.obj
 0001:00003f60       ??__EbPawnIsAlive@@YAXXZ   0000000180004f60 f   Aimbot.obj
 0001:000042d0       ??__EiHealth@@YAXXZ        00000001800052d0 f   Aimbot.obj
 0001:00004560       ??__EEntityIndex@@YAXXZ    0000000180005560 f   Aimbot.obj
 0001:00004770       ??__EManager@@YAXXZ        0000000180005770 f   Aimbot.obj
 0001:000047c0       ??__EOffsets@@YAXXZ        00000001800057c0 f   Aimbot.obj
 0001:000047e0       ??__ETrunk@BoneJointList@@YAXXZ 00000001800057e0 f   Aimbot.obj
 0001:00004860       ??__ELeftArm@BoneJointList@@YAXXZ 0000000180005860 f   Aimbot.obj
 0001:000048f0       ??__ERightArm@BoneJointList@@YAXXZ 00000001800058f0 f   Aimbot.obj
 0001:00004980       ??__ELeftLeg@BoneJointList@@YAXXZ 0000000180005980 f   Aimbot.obj
 0001:00004a10       ??__ERightLeg@BoneJointList@@YAXXZ 0000000180005a10 f   Aimbot.obj
 0001:00004aa0       ??__EList@BoneJointList@@YAXXZ 0000000180005aa0 f   Aimbot.obj
 0001:00004c00       ??__EEntity@@YAXXZ         0000000180005c00 f   Aimbot.obj
 0001:00004c30       ??__EWeapon@@YAXXZ         0000000180005c30 f   Aimbot.obj
 0001:0000b0d0       ?MallocWrapper@@YAPEAX_KPEAX@Z 000000018000c0d0 f   imgui.obj
 0001:0000b0e0       ?FreeWrapper@@YAXPEAX0@Z   000000018000c0e0 f   imgui.obj
 0001:0000c670       $LN15                      000000018000d670     imgui.obj
 0001:0000e3d0       ?IsWindowContentHoverable@@YA_NPEAUImGuiWindow@@H@Z 000000018000f3d0 f   imgui.obj
 0001:0000ec30       ?UpdateMouseInputs@ImGui@@YAXXZ 000000018000fc30 f   imgui.obj
 0001:0000efa0       ?StartLockWheelingWindow@@YAXPEAUImGuiWindow@@@Z 000000018000ffa0 f   imgui.obj
 0001:0000efe0       ?UpdateMouseWheel@ImGui@@YAXXZ 000000018000ffe0 f   imgui.obj
 0001:00010530       ?ChildWindowComparer@@YAHPEBX0@Z 0000000180011530 f   imgui.obj
 0001:00010580       ?AddWindowToSortBuffer@@YAXPEAU?$ImVector@PEAUImGuiWindow@@@@PEAUImGuiWindow@@@Z 0000000180011580 f   imgui.obj
 0001:00010660       ?AddDrawListToDrawData@@YAXPEAU?$ImVector@PEAUImDrawList@@@@PEAUImDrawList@@@Z 0000000180011660 f   imgui.obj
 0001:000106f0       ?AddWindowToDrawData@@YAXPEAU?$ImVector@PEAUImDrawList@@@@PEAUImGuiWindow@@@Z 00000001800116f0 f   imgui.obj
 0001:00011260       ?BeginChildEx@ImGui@@YA_NPEBDIAEBUImVec2@@_NH@Z 0000000180012260 f   imgui.obj
 0001:00011a60       ?CreateNewWindow@@YAPEAUImGuiWindow@@PEBDUImVec2@@H@Z 0000000180012a60 f   imgui.obj
 0001:00011e90       ?CalcWindowSizeAfterConstraint@@YA?AUImVec2@@PEAUImGuiWindow@@U1@@Z 0000000180012e90 f   imgui.obj
 0001:000120a0       ?CalcWindowContentSize@@YA?AUImVec2@@PEAUImGuiWindow@@@Z 00000001800130a0 f   imgui.obj
 0001:00012160       ?CalcWindowAutoFitSize@@YA?AUImVec2@@PEAUImGuiWindow@@AEBU1@@Z 0000000180013160 f   imgui.obj
 0001:00012420       ?GetResizeBorderRect@@YA?AUImRect@@PEAUImGuiWindow@@HMM@Z 0000000180013420 f   imgui.obj
 0001:00012560       ?UpdateManualResize@ImGui@@YA_NPEAUImGuiWindow@@AEBUImVec2@@PEAHHQEAI@Z 0000000180013560 f   imgui.obj
 0001:00012ec0       ?RenderWindowOuterBorders@ImGui@@YAXPEAUImGuiWindow@@@Z 0000000180013ec0 f   imgui.obj
 0001:00013280       ?RenderWindowDecorations@ImGui@@YAXPEAUImGuiWindow@@AEBUImRect@@_NHQEBIM@Z 0000000180014280 f   imgui.obj
 0001:00013910       ?RenderWindowTitleBarContents@ImGui@@YAXPEAUImGuiWindow@@AEBUImRect@@PEBDPEA_N@Z 0000000180014910 f   imgui.obj
 0001:000177a0       ?CalcNextScrollFromScrollTargetAndClamp@@YA?AUImVec2@@PEAUImGuiWindow@@_N@Z 00000001800187a0 f   imgui.obj
 0001:00018fa0       ?NavScoreItem@ImGui@@YA_NPEAUImGuiNavMoveResult@@UImRect@@@Z 0000000180019fa0 f   imgui.obj
 0001:00019420       ?NavProcessItem@ImGui@@YAXPEAUImGuiWindow@@AEBUImRect@@I@Z 000000018001a420 f   imgui.obj
 0001:00019690       ?NavRestoreLayer@@YAXW4ImGuiNavLayer@@@Z 000000018001a690 f   imgui.obj
 0001:000197e0       ?NavCalcPreferredRefPos@ImGui@@YA?AUImVec2@@XZ 000000018001a7e0 f   imgui.obj
 0001:00019bf0       ?NavUpdate@ImGui@@YAXXZ    000000018001abf0 f   imgui.obj
 0001:0001af90       ?NavUpdateMoveResult@ImGui@@YAXXZ 000000018001bf90 f   imgui.obj
 0001:0001b200       ?NavUpdatePageUpPageDown@ImGui@@YAMXZ 000000018001c200 f   imgui.obj
 0001:0001b570       ?FindWindowNavFocusable@@YAPEAUImGuiWindow@@HHH@Z 000000018001c570 f   imgui.obj
 0001:0001b600       ?NavUpdateWindowingHighlightWindow@@YAXH@Z 000000018001c600 f   imgui.obj
 0001:0001b770       ?NavUpdateWindowing@ImGui@@YAXXZ 000000018001c770 f   imgui.obj
 0001:0001bdf0       ?NavUpdateWindowingOverlay@ImGui@@YAXXZ 000000018001cdf0 f   imgui.obj
 0001:0001cde0       ?WindowSettingsHandler_ReadOpen@@YAPEAXPEAUImGuiContext@@PEAUImGuiSettingsHandler@@PEBD@Z 000000018001dde0 f   imgui.obj
 0001:0001cea0       ?WindowSettingsHandler_ReadLine@@YAXPEAUImGuiContext@@PEAUImGuiSettingsHandler@@PEAXPEBD@Z 000000018001dea0 f   imgui.obj
 0001:0001cf70       ?WindowSettingsHandler_WriteAll@@YAXPEAUImGuiContext@@PEAUImGuiSettingsHandler@@PEAUImGuiTextBuffer@@@Z 000000018001df70 f   imgui.obj
 0001:0001d1f0       ?GetClipboardTextFn_DefaultImpl@@YAPEBDPEAX@Z 000000018001e1f0 f   imgui.obj
 0001:0001d440       ?SetClipboardTextFn_DefaultImpl@@YAXPEAXPEBD@Z 000000018001e440 f   imgui.obj
 0001:0001d4f0       ?ImeSetInputScreenPosFn_DefaultImpl@@YAXHH@Z 000000018001e4f0 f   imgui.obj
 0001:0001e1c0       stbrp_init_target          000000018001f1c0 f   imgui_draw.obj
 0001:0001e400       ?stbrp__skyline_find_min_y@@YAHPEAUstbrp_context@@PEAUstbrp_node@@HHPEAH@Z 000000018001f400 f   imgui_draw.obj
 0001:0001e4e0       ?stbrp__skyline_find_best_pos@@YA?AUstbrp__findresult@@PEAUstbrp_context@@HH@Z 000000018001f4e0 f   imgui_draw.obj
 0001:0001e7b0       ?rect_height_compare@@YAHPEBX0@Z 000000018001f7b0 f   imgui_draw.obj
 0001:0001e7e0       ?rect_original_order@@YAHPEBX0@Z 000000018001f7e0 f   imgui_draw.obj
 0001:0001e800       stbrp_pack_rects           000000018001f800 f   imgui_draw.obj
 0001:0001ea50       ?stbtt__cff_get_index@@YA?AUstbtt__buf@@PEAU1@@Z 000000018001fa50 f   imgui_draw.obj
 0001:0001eb70       ?stbtt__cff_int@@YAIPEAUstbtt__buf@@@Z 000000018001fb70 f   imgui_draw.obj
 0001:0001edb0       ?stbtt__dict_get@@YA?AUstbtt__buf@@PEAU1@H@Z 000000018001fdb0 f   imgui_draw.obj
 0001:0001ef10       ?stbtt__cff_index_get@@YA?AUstbtt__buf@@U1@H@Z 000000018001ff10 f   imgui_draw.obj
 0001:0001f060       ?stbtt__find_table@@YAIPEAEIPEBD@Z 0000000180020060 f   imgui_draw.obj
 0001:0001f110       ?stbtt_GetFontOffsetForIndex_internal@@YAHPEAEH@Z 0000000180020110 f   imgui_draw.obj
 0001:0001f250       ?stbtt__get_subrs@@YA?AUstbtt__buf@@U1@0@Z 0000000180020250 f   imgui_draw.obj
 0001:0001f3a0       ?stbtt_InitFont_internal@@YAHPEAUstbtt_fontinfo@@PEAEH@Z 00000001800203a0 f   imgui_draw.obj
 0001:0001f890       stbtt_FindGlyphIndex       0000000180020890 f   imgui_draw.obj
 0001:0001fbf0       ?stbtt__GetGlyfOffset@@YAHPEBUstbtt_fontinfo@@H@Z 0000000180020bf0 f   imgui_draw.obj
 0001:0001fcd0       ?stbtt__close_shape@@YAHPEAUstbtt_vertex@@HHHHHHHHH@Z 0000000180020cd0 f   imgui_draw.obj
 0001:0001fdc0       ?stbtt__GetGlyphShapeTT@@YAHPEBUstbtt_fontinfo@@HPEAPEAUstbtt_vertex@@@Z 0000000180020dc0 f   imgui_draw.obj
 0001:00020a90       ?stbtt__track_vertex@@YAXPEAUstbtt__csctx@@HH@Z 0000000180021a90 f   imgui_draw.obj
 0001:00020b00       ?stbtt__csctx_close_shape@@YAXPEAUstbtt__csctx@@@Z 0000000180021b00 f   imgui_draw.obj
 0001:00020b70       ?stbtt__csctx_rmove_to@@YAXPEAUstbtt__csctx@@MM@Z 0000000180021b70 f   imgui_draw.obj
 0001:00020bf0       ?stbtt__csctx_rccurve_to@@YAXPEAUstbtt__csctx@@MMMMMM@Z 0000000180021bf0 f   imgui_draw.obj
 0001:00020ce0       ?stbtt__cid_get_glyph_subrs@@YA?AUstbtt__buf@@PEBUstbtt_fontinfo@@H@Z 0000000180021ce0 f   imgui_draw.obj
 0001:00020eb0       ?stbtt__run_charstring@@YAHPEBUstbtt_fontinfo@@HPEAUstbtt__csctx@@@Z 0000000180021eb0 f   imgui_draw.obj
 0001:00021d0c       $LN281                     0000000180022d0c     imgui_draw.obj
 0001:00021d90       ?stbtt__GetGlyphShapeT2@@YAHPEBUstbtt_fontinfo@@HPEAPEAUstbtt_vertex@@@Z 0000000180022d90 f   imgui_draw.obj
 0001:00021e60       stbtt_GetGlyphShape        0000000180022e60 f   imgui_draw.obj
 0001:00021f50       ?stbtt__handle_clipped_edge@@YAXPEAMHPEAUstbtt__active_edge@@MMMM@Z 0000000180022f50 f   imgui_draw.obj
 0001:00022090       ?stbtt__fill_active_edges_new@@YAXPEAM0HPEAUstbtt__active_edge@@M@Z 0000000180023090 f   imgui_draw.obj
 0001:000226c0       ?stbtt__rasterize_sorted_edges@@YAXPEAUstbtt__bitmap@@PEAUstbtt__edge@@HHHHPEAX@Z 00000001800236c0 f   imgui_draw.obj
 0001:00022b90       ?stbtt__sort_edges_quicksort@@YAXPEAUstbtt__edge@@H@Z 0000000180023b90 f   imgui_draw.obj
 0001:00022d70       ?stbtt__rasterize@@YAXPEAUstbtt__bitmap@@PEAUstbtt__point@@PEAHHMMMMHHHPEAX@Z 0000000180023d70 f   imgui_draw.obj
 0001:000230d0       ?stbtt__tesselate_curve@@YAHPEAUstbtt__point@@PEAHMMMMMMMH@Z 00000001800240d0 f   imgui_draw.obj
 0001:000232c0       ?stbtt__tesselate_cubic@@YAXPEAUstbtt__point@@PEAHMMMMMMMMMH@Z 00000001800242c0 f   imgui_draw.obj
 0001:00023760       ?stbtt_FlattenCurves@@YAPEAUstbtt__point@@PEAUstbtt_vertex@@HMPEAPEAHPEAHPEAX@Z 0000000180024760 f   imgui_draw.obj
 0001:00023b50       stbtt_MakeGlyphBitmapSubpixel 0000000180024b50 f   imgui_draw.obj
 0001:00023e40       ?stbtt__h_prefilter@@YAXPEAEHHHI@Z 0000000180024e40 f   imgui_draw.obj
 0001:000240f0       ?stbtt__v_prefilter@@YAXPEAEHHHI@Z 00000001800250f0 f   imgui_draw.obj
 0001:00024390       stbtt_PackFontRangesRenderIntoRects 0000000180025390 f   imgui_draw.obj
 0001:0002a4a0       ?ImFontAtlasBuildRenderDefaultTexData@@YAXPEAUImFontAtlas@@@Z 000000018002b4a0 f   imgui_draw.obj
 0001:0002bc00       ?stb__match@@YAXPEBEI@Z    000000018002cc00 f   imgui_draw.obj
 0001:0002bc60       ?stb__lit@@YAXPEBEI@Z      000000018002cc60 f   imgui_draw.obj
 0001:0002bcc0       ?stb_decompress_token@@YAPEBEPEBE@Z 000000018002ccc0 f   imgui_draw.obj
 0001:0002c200       ?ImGui_ImplDX11_SetupRenderState@@YAXPEAUImDrawData@@PEAUID3D11DeviceContext@@@Z 000000018002d200 f   imgui_impl_dx11.obj
 0001:0002d818       $LN37                      000000018002e818     imgui_impl_win32.obj
 0001:0002dab0       $LN81                      000000018002eab0     imgui_impl_win32.obj
 0001:0002dac8       $LN80                      000000018002eac8     imgui_impl_win32.obj
 0001:00030910       ?CalcMaxPopupHeightFromItemCount@@YAMH@Z 0000000180031910 f   imgui_widgets.obj
 0001:000311a0       ?Items_ArrayGetter@@YA_NPEAXHPEAPEBD@Z 00000001800321a0 f   imgui_widgets.obj
 0001:000312f0       ?PatchFormatStringFloatToInt@@YAPEBDPEBD@Z 00000001800322f0 f   imgui_widgets.obj
 0001:00032428       $LN230                     0000000180033428     imgui_widgets.obj
 0001:00032f60       ?STB_TEXTEDIT_LAYOUTROW@ImStb@@YAXPEAUStbTexteditRow@1@PEAUImGuiInputTextState@@H@Z 0000000180033f60 f   imgui_widgets.obj
 0001:00033040       ?STB_TEXTEDIT_MOVEWORDLEFT_IMPL@ImStb@@YAHPEAUImGuiInputTextState@@H@Z 0000000180034040 f   imgui_widgets.obj
 0001:000330f0       ?STB_TEXTEDIT_MOVEWORDRIGHT_IMPL@ImStb@@YAHPEAUImGuiInputTextState@@H@Z 00000001800340f0 f   imgui_widgets.obj
 0001:000331c0       ?STB_TEXTEDIT_DELETECHARS@ImStb@@YAXPEAUImGuiInputTextState@@HH@Z 00000001800341c0 f   imgui_widgets.obj
 0001:000332c0       ?STB_TEXTEDIT_INSERTCHARS@ImStb@@YA_NPEAUImGuiInputTextState@@HPEBGH@Z 00000001800342c0 f   imgui_widgets.obj
 0001:00033470       ?stb_text_locate_coord@ImStb@@YAHPEAUImGuiInputTextState@@MM@Z 0000000180034470 f   imgui_widgets.obj
 0001:00033610       ?stb_textedit_find_charpos@ImStb@@YAXPEAUStbFindState@1@PEAUImGuiInputTextState@@HH@Z 0000000180034610 f   imgui_widgets.obj
 0001:000337e0       ?stb_textedit_delete@ImStb@@YAXPEAUImGuiInputTextState@@PEAUSTB_TexteditState@1@HH@Z 00000001800347e0 f   imgui_widgets.obj
 0001:000338c0       ?stb_textedit_delete_selection@ImStb@@YAXPEAUImGuiInputTextState@@PEAUSTB_TexteditState@1@@Z 00000001800348c0 f   imgui_widgets.obj
 0001:00033960       ?stb_textedit_key@ImStb@@YAXPEAUImGuiInputTextState@@PEAUSTB_TexteditState@1@H@Z 0000000180034960 f   imgui_widgets.obj
 0001:000345d8       $LN458                     00000001800355d8     imgui_widgets.obj
 0001:00034610       $LN457                     0000000180035610     imgui_widgets.obj
 0001:00034650       ?stb_textedit_discard_undo@ImStb@@YAXPEAUStbUndoState@1@@Z 0000000180035650 f   imgui_widgets.obj
 0001:00034700       ?stb_text_create_undo_record@ImStb@@YAPEAUStbUndoRecord@1@PEAUStbUndoState@1@H@Z 0000000180035700 f   imgui_widgets.obj
 0001:00034850       ?stb_text_undo@ImStb@@YAXPEAUImGuiInputTextState@@PEAUSTB_TexteditState@1@@Z 0000000180035850 f   imgui_widgets.obj
 0001:00034ad0       ?InputTextFilterCharacter@@YA_NPEAIHP6AHPEAUImGuiInputTextCallbackData@@@ZPEAX@Z 0000000180035ad0 f   imgui_widgets.obj
 0001:00038f20       ?RenderArrowsForVerticalBar@@YAXPEAUImDrawList@@UImVec2@@1MM@Z 0000000180039f20 f   imgui_widgets.obj
 0001:0003f930       ??$ImAtoi@H@@YAPEBDPEBDPEAH@Z 0000000180040930 f   imgui_widgets.obj
 0001:00040040       ??$ImAtoi@_J@@YAPEBDPEBDPEA_J@Z 0000000180041040 f   imgui_widgets.obj
 0001:00042dbc       ?initialize_pointers@@YAHXZ 0000000180043dbc f   libcpmt:winapisupp.obj
 0001:00042e20       $$000000                   0000000180043e20     LIBCMT:amdsecgs.obj
 0001:00043610       capture_current_context    0000000180044610 f   LIBCMT:gs_report.obj
 0001:00043680       capture_previous_context   0000000180044680 f   LIBCMT:gs_report.obj
 0001:000436f4       ?dllmain_crt_dispatch@@YAHQEAUHINSTANCE__@@KQEAX@Z 00000001800446f4 f   LIBCMT:dll_dllmain.obj
 0001:00043744       ?dllmain_crt_process_attach@@YAHQEAUHINSTANCE__@@QEAX@Z 0000000180044744 f   LIBCMT:dll_dllmain.obj
 0001:0004385c       ?dllmain_crt_process_detach@@YAH_N@Z 000000018004485c f   LIBCMT:dll_dllmain.obj
 0001:000438dc       ?dllmain_dispatch@@YAHQEAUHINSTANCE__@@KQEAX@Z 00000001800448dc f   LIBCMT:dll_dllmain.obj
 0001:00045888       ??$BuildCatchObjectHelperInternal@V__FrameHandler3@@@@YAHPEAUEHExceptionRecord@@PEAXPEBU_s_HandlerType@@PEBU_s_CatchableType@@@Z 0000000180046888 f   libvcruntime:frame.obj
 0001:00045a88       ??$BuildCatchObjectHelperInternal@V__FrameHandler4@@@@YAHPEAUEHExceptionRecord@@PEAXPEAUHandlerType4@FH4@@PEBU_s_CatchableType@@@Z 0000000180046a88 f   libvcruntime:frame.obj
 0001:00045c8c       ??$BuildCatchObjectInternal@V__FrameHandler3@@@@YAXPEAUEHExceptionRecord@@PEAXPEBU_s_HandlerType@@PEBU_s_CatchableType@@@Z 0000000180046c8c f   libvcruntime:frame.obj
 0001:00045d4c       ??$BuildCatchObjectInternal@V__FrameHandler4@@@@YAXPEAUEHExceptionRecord@@PEAXPEAUHandlerType4@FH4@@PEBU_s_CatchableType@@@Z 0000000180046d4c f   libvcruntime:frame.obj
 0001:00045e10       ??$CatchIt@V__FrameHandler3@@@@YAXPEAUEHExceptionRecord@@PEA_KPEAU_CONTEXT@@PEAU_xDISPATCHER_CONTEXT@@PEBU_s_FuncInfo@@PEBU_s_HandlerType@@PEBU_s_CatchableType@@PEBU_s_TryBlockMapEntry@@H1EE@Z 0000000180046e10 f   libvcruntime:frame.obj
 0001:00045ee4       ??$CatchIt@V__FrameHandler4@@@@YAXPEAUEHExceptionRecord@@PEA_KPEAU_CONTEXT@@PEAU_xDISPATCHER_CONTEXT@@PEAUFuncInfo4@FH4@@PEAUHandlerType4@4@PEBU_s_CatchableType@@PEAUTryBlockMapEntry4@4@H1EE@Z 0000000180046ee4 f   libvcruntime:frame.obj
 0001:00045fb8       ??$FindHandler@V__FrameHandler3@@@@YAXPEAUEHExceptionRecord@@PEA_KPEAU_CONTEXT@@PEAU_xDISPATCHER_CONTEXT@@PEBU_s_FuncInfo@@EH1@Z 0000000180046fb8 f   libvcruntime:frame.obj
 0001:00046488       ??$FindHandler@V__FrameHandler4@@@@YAXPEAUEHExceptionRecord@@PEA_KPEAU_CONTEXT@@PEAU_xDISPATCHER_CONTEXT@@PEAUFuncInfo4@FH4@@EH1@Z 0000000180047488 f   libvcruntime:frame.obj
 0001:0004698c       ??$FindHandlerForForeignException@V__FrameHandler3@@@@YAXPEAUEHExceptionRecord@@PEA_KPEAU_CONTEXT@@PEAU_xDISPATCHER_CONTEXT@@PEBU_s_FuncInfo@@HH1@Z 000000018004798c f   libvcruntime:frame.obj
 0001:00046bfc       ??$FindHandlerForForeignException@V__FrameHandler4@@@@YAXPEAUEHExceptionRecord@@PEA_KPEAU_CONTEXT@@PEAU_xDISPATCHER_CONTEXT@@PEAUFuncInfo4@FH4@@HH1@Z 0000000180047bfc f   libvcruntime:frame.obj
 0001:00047e30       ?ExFilterRethrow@@YAHPEAU_EXCEPTION_POINTERS@@PEAUEHExceptionRecord@@PEAH@Z 0000000180048e30 f   libvcruntime:frame.obj
 0001:00047eb4       ?ExFilterRethrowFH4@@YAHPEAU_EXCEPTION_POINTERS@@PEAUEHExceptionRecord@@HPEAH@Z 0000000180048eb4 f   libvcruntime:frame.obj
 0001:00048410       ?IsInExceptionSpec@@YAEPEAUEHExceptionRecord@@PEBU_s_ESTypeList@@@Z 0000000180049410 f   libvcruntime:frame.obj
 0001:00048500       ?Is_bad_exception_allowed@@YAEPEBU_s_ESTypeList@@@Z 0000000180049500 f   libvcruntime:frame.obj
 0001:000487f0       $$000000                   00000001800497f0     libvcruntime:notify.obj
 0001:00048810       $$000000                   0000000180049810     libvcruntime:notify.obj
 0001:00048820       $$000000                   0000000180049820     libvcruntime:notify.obj
 0001:000488dc       ?try_get_function@@YAPEAXW4function_id@?A0x14174aea@@QEBDQEBW4module_id@2@2@Z 00000001800498dc f   libvcruntime:winapi_downlevel.obj
 0001:00048c00       $$000000                   0000000180049c00     libvcruntime:handlers.obj
 0001:00048c40       $$000000                   0000000180049c40     libvcruntime:handlers.obj
 0001:00048c70       $$000000                   0000000180049c70     libvcruntime:handlers.obj
 0001:00048ca0       $$000000                   0000000180049ca0     libvcruntime:handlers.obj
 0001:00049368       ??$common_ftell@J@@YAJV__crt_stdio_stream@@AEAV__crt_cached_ptd_host@@@Z 000000018004a368 f   libucrt:ftell.obj
 0001:000493f8       ??$common_ftell_nolock@_J@@YA_JV__crt_stdio_stream@@AEAV__crt_cached_ptd_host@@@Z 000000018004a3f8 f   libucrt:ftell.obj
 0001:00049548       ?common_ftell_read_mode_nolock@@YA_JV__crt_stdio_stream@@_J1AEAV__crt_cached_ptd_host@@@Z 000000018004a548 f   libucrt:ftell.obj
 0001:000496a4       ?common_ftell_translated_utf8_nolock@@YA_JV__crt_stdio_stream@@_JAEAV__crt_cached_ptd_host@@@Z 000000018004a6a4 f   libucrt:ftell.obj
 0001:00049828       ?count_newline_bytes@@YA_JQEBD0W4__crt_lowio_text_mode@@@Z 000000018004a828 f   libucrt:ftell.obj
 0001:00049ac8       ??$?RV<lambda_842d9ff0dc9ef11c61343bbaebe7f885>@@AEAV<lambda_c5860995281e5c4ce005b3de8f5874ee>@@V<lambda_d90129c13df834fdcbf8d2b88dafcf2d>@@@?$__crt_seh_guarded_call@X@@QEAAX$$QEAV<lambda_842d9ff0dc9ef11c61343bbaebe7f885>@@AEAV<lambda_c5860995281e5c4ce005b3de8f5874ee>@@$$QEAV<lambda_d90129c13df834fdcbf8d2b88dafcf2d>@@@Z 000000018004aac8 f   libucrt:fflush.obj
 0001:00049b64       ??$?RV<lambda_886d6c58226a84441f68b9f2b8217b83>@@AEAV<lambda_ab61a845afdef5b7c387490eaf3616ee>@@V<lambda_f7f22ab5edc0698d5f6905b0d3f44752>@@@?$__crt_seh_guarded_call@X@@QEAAX$$QEAV<lambda_886d6c58226a84441f68b9f2b8217b83>@@AEAV<lambda_ab61a845afdef5b7c387490eaf3616ee>@@$$QEAV<lambda_f7f22ab5edc0698d5f6905b0d3f44752>@@@Z 000000018004ab64 f   libucrt:fflush.obj
 0001:00049c48       ??$?RV<lambda_c376a267cfb53b6959b3b692ec76b120>@@AEAV<lambda_9a32fed5bf61b6b509b2d3f6003082a1>@@V<lambda_572fbb9fa0ab338edf41edfd4b5fcc8d>@@@?$__crt_seh_guarded_call@H@@QEAAH$$QEAV<lambda_c376a267cfb53b6959b3b692ec76b120>@@AEAV<lambda_9a32fed5bf61b6b509b2d3f6003082a1>@@$$QEAV<lambda_572fbb9fa0ab338edf41edfd4b5fcc8d>@@@Z 000000018004ac48 f   libucrt:fflush.obj
 0001:00049c88       ?common_flush_all@@YAH_N@Z 000000018004ac88 f   libucrt:fflush.obj
 0001:00049eb8       ?_fclose_internal@@YAHQEAU_iobuf@@AEAV__crt_cached_ptd_host@@@Z 000000018004aeb8 f   libucrt:fclose.obj
 0001:00049f34       ?_fclose_nolock_internal@@YAHQEAU_iobuf@@AEAV__crt_cached_ptd_host@@@Z 000000018004af34 f   libucrt:fclose.obj
 0001:0004a10c       ?common_fseek@@YAHV__crt_stdio_stream@@_JHAEAV__crt_cached_ptd_host@@@Z 000000018004b10c f   libucrt:fseek.obj
 0001:0004a1a8       ?common_fseek_binary_mode_read_only_fast_track_nolock@@YA_NV__crt_stdio_stream@@_JH@Z 000000018004b1a8 f   libucrt:fseek.obj
 0001:0004a290       ?common_fseek_nolock@@YAHV__crt_stdio_stream@@_JHAEAV__crt_cached_ptd_host@@@Z 000000018004b290 f   libucrt:fseek.obj
 0001:0004a830       $$000000                   000000018004b830     libucrt:strncpy.obj
 0001:0004a9a4       ??$?RV<lambda_a2589f19c515cac03caf6db9c38355e9>@@AEAV<lambda_26974eb511f701c600fccfa2a97a8e1b>@@V<lambda_ad9ce2f38261e34e8a422b9cc35dfe8d>@@@?$__crt_seh_guarded_call@_K@@QEAA_K$$QEAV<lambda_a2589f19c515cac03caf6db9c38355e9>@@AEAV<lambda_26974eb511f701c600fccfa2a97a8e1b>@@$$QEAV<lambda_ad9ce2f38261e34e8a422b9cc35dfe8d>@@@Z 000000018004b9a4 f   libucrt:fwrite.obj
 0001:0004a9e4       ??R<lambda_26974eb511f701c600fccfa2a97a8e1b>@@QEBA_KXZ 000000018004b9e4 f   libucrt:fwrite.obj
 0001:0004adb8       ??$common_fsopen@_W@@YAPEAU_iobuf@@QEB_W0H@Z 000000018004bdb8 f   libucrt:fopen.obj
 0001:00052608       memcpy_s                   0000000180053608 f   libucrt:cfout.obj
 0001:00052608       memcpy_s                   0000000180053608 f   libucrt:input.obj
 0001:000526a0       $$000000                   00000001800536a0     libucrt:strncmp.obj
 0001:00052730       ??$common_atof_l@D@@YANQEBDQEAU__crt_locale_pointers@@@Z 0000000180053730 f   libucrt:atof.obj
 0001:000530b4       ??$common_freopen@D@@YAHQEAPEAU_iobuf@@QEBD1V__crt_stdio_stream@@H@Z 00000001800540b4 f   libucrt:freopen.obj
 0001:00053b3c       ??$?RV<lambda_d80eeec6fff315bfe5c115232f3240e3>@@AEAV<lambda_6e4b09c48022b2350581041d5f6b0c4c>@@V<lambda_2358e3775559c9db80273638284d5e45>@@@?$__crt_seh_guarded_call@X@@QEAAX$$QEAV<lambda_d80eeec6fff315bfe5c115232f3240e3>@@AEAV<lambda_6e4b09c48022b2350581041d5f6b0c4c>@@$$QEAV<lambda_2358e3775559c9db80273638284d5e45>@@@Z 0000000180054b3c f   libucrt:exit.obj
 0001:00053b74       ??R<lambda_6e4b09c48022b2350581041d5f6b0c4c>@@QEBA@XZ 0000000180054b74 f   libucrt:exit.obj
 0001:00053c40       ?common_exit@@YAXHW4_crt_exit_cleanup_mode@@W4_crt_exit_return_mode@@@Z 0000000180054c40 f   libucrt:exit.obj
 0001:00053d08       ?exit_or_terminate_process@@YAXI@Z 0000000180054d08 f   libucrt:exit.obj
 0001:00053d3c       ?should_call_terminate_process@@YA_NXZ 0000000180054d3c f   libucrt:exit.obj
 0001:00053d60       ?try_cor_exit_process@@YAXI@Z 0000000180054d60 f   libucrt:exit.obj
 0001:00053dfc       ??$parse_command_line@D@@YAXPEADPEAPEAD0PEA_K2@Z 0000000180054dfc f   libucrt:argv_parsing.obj
 0001:000541ac       ??$common_initialize_environment_nolock@D@@YAHXZ 00000001800551ac f   libucrt:environment_initialization.obj
 0001:00054220       ??$create_environment@D@@YAQEAPEADQEAD@Z 0000000180055220 f   libucrt:environment_initialization.obj
 0001:00054330       ??$free_environment@D@@YAXQEAPEAD@Z 0000000180055330 f   libucrt:environment_initialization.obj
 0001:00054330       ??$free_environment@_W@@YAXQEAPEA_W@Z 0000000180055330 f   libucrt:environment_initialization.obj
 0001:00054374       ??$uninitialize_environment_internal@D@@YAXAEAPEAPEAD@Z 0000000180055374 f   libucrt:environment_initialization.obj
 0001:00054390       ??$uninitialize_environment_internal@_W@@YAXAEAPEAPEA_W@Z 0000000180055390 f   libucrt:environment_initialization.obj
 0001:000543f8       ??$?RV<lambda_638799b9deba96c50f710eeac98168cd>@@AEAV<lambda_22ebabd17bc4fa466a2aca6d8deb888d>@@V<lambda_a6f7d7db0129f75315ebf26d50c089f1>@@@?$__crt_seh_guarded_call@H@@QEAAH$$QEAV<lambda_638799b9deba96c50f710eeac98168cd>@@AEAV<lambda_22ebabd17bc4fa466a2aca6d8deb888d>@@$$QEAV<lambda_a6f7d7db0129f75315ebf26d50c089f1>@@@Z 00000001800553f8 f   libucrt:onexit.obj
 0001:00054434       ??$?RV<lambda_7777bce6b2f8c936911f934f8298dc43>@@AEAV<lambda_f03950bc5685219e0bcd2087efbe011e>@@V<lambda_3883c3dff614d5e0c5f61bb1ac94921c>@@@?$__crt_seh_guarded_call@H@@QEAAH$$QEAV<lambda_7777bce6b2f8c936911f934f8298dc43>@@AEAV<lambda_f03950bc5685219e0bcd2087efbe011e>@@$$QEAV<lambda_3883c3dff614d5e0c5f61bb1ac94921c>@@@Z 0000000180055434 f   libucrt:onexit.obj
 0001:00054470       ??R<lambda_22ebabd17bc4fa466a2aca6d8deb888d>@@QEBA@XZ 0000000180055470 f   libucrt:onexit.obj
 0001:00054620       ??R<lambda_f03950bc5685219e0bcd2087efbe011e>@@QEBA@XZ 0000000180055620 f   libucrt:onexit.obj
 0001:00054804       initialize_global_variables 0000000180055804 f   libucrt:initialization.obj
 0001:00054818       initialize_c               0000000180055818 f   libucrt:initialization.obj
 0001:0005483c       initialize_environment     000000018005583c f   libucrt:initialization.obj
 0001:0005483c       initialize_global_state_isolation 000000018005583c f   libucrt:initialization.obj
 0001:0005483c       report_memory_leaks        000000018005583c f   libucrt:initialization.obj
 0001:0005483c       uninitialize_c             000000018005583c f   libucrt:initialization.obj
 0001:0005483c       uninitialize_global_state_isolation 000000018005583c f   libucrt:initialization.obj
 0001:00054840       uninitialize_environment   0000000180055840 f   libucrt:initialization.obj
 0001:00054850       initialize_pointers        0000000180055850 f   libucrt:initialization.obj
 0001:00054890       uninitialize_vcruntime     0000000180055890 f   libucrt:initialization.obj
 0001:00054898       uninitialize_allocated_memory 0000000180055898 f   libucrt:initialization.obj
 0001:000548d8       uninitialize_allocated_io_buffers 00000001800558d8 f   libucrt:initialization.obj
 0001:00054b2c       ??$?RV<lambda_0ae27a3a962d80f24befdcbee591983d>@@AEAV<lambda_8d0ee55de4b1038c4002e0adecdf1839>@@V<lambda_dc504788e8f1664fe9b84e20bfb512f2>@@@?$__crt_seh_guarded_call@X@@QEAAX$$QEAV<lambda_0ae27a3a962d80f24befdcbee591983d>@@AEAV<lambda_8d0ee55de4b1038c4002e0adecdf1839>@@$$QEAV<lambda_dc504788e8f1664fe9b84e20bfb512f2>@@@Z 0000000180055b2c f   libucrt:per_thread_data.obj
 0001:00054b6c       ??$?RV<lambda_2d41944a1d46af3157314b8a01080d33>@@AEAV<lambda_8f455de75cd7d7f24b4096f044d8b9e6>@@V<lambda_aa500f224e6afead328df44964fe2772>@@@?$__crt_seh_guarded_call@X@@QEAAX$$QEAV<lambda_2d41944a1d46af3157314b8a01080d33>@@AEAV<lambda_8f455de75cd7d7f24b4096f044d8b9e6>@@$$QEAV<lambda_aa500f224e6afead328df44964fe2772>@@@Z 0000000180055b6c f   libucrt:per_thread_data.obj
 0001:00054bac       ??$?RV<lambda_aa87e3671a710a21b5dc78c0bdf72e11>@@AEAV<lambda_92619d2358a28f41a33ba319515a20b9>@@V<lambda_6992ecaafeb10aed2b74cb1fae11a551>@@@?$__crt_seh_guarded_call@X@@QEAAX$$QEAV<lambda_aa87e3671a710a21b5dc78c0bdf72e11>@@AEAV<lambda_92619d2358a28f41a33ba319515a20b9>@@$$QEAV<lambda_6992ecaafeb10aed2b74cb1fae11a551>@@@Z 0000000180055bac f   libucrt:per_thread_data.obj
 0001:00054bf4       ??$?RV<lambda_f2e299630e499de9f9a165e60fcd3db5>@@AEAV<lambda_2ae9d31cdba2644fcbeaf08da7c24588>@@V<lambda_40d01ff24d0e7b3814fdbdcee8eab3c7>@@@?$__crt_seh_guarded_call@X@@QEAAX$$QEAV<lambda_f2e299630e499de9f9a165e60fcd3db5>@@AEAV<lambda_2ae9d31cdba2644fcbeaf08da7c24588>@@$$QEAV<lambda_40d01ff24d0e7b3814fdbdcee8eab3c7>@@@Z 0000000180055bf4 f   libucrt:per_thread_data.obj
 0001:00054c54       ?construct_ptd_array@@YAXQEAU__acrt_ptd@@@Z 0000000180055c54 f   libucrt:per_thread_data.obj
 0001:00054d24       ?destroy_fls@@YAXPEAX@Z    0000000180055d24 f   libucrt:per_thread_data.obj
 0001:00054d44       ?destroy_ptd_array@@YAXQEAU__acrt_ptd@@@Z 0000000180055d44 f   libucrt:per_thread_data.obj
 0001:00054e3c       ?replace_current_thread_locale_nolock@@YAXQEAU__acrt_ptd@@QEAU__crt_locale_data@@@Z 0000000180055e3c f   libucrt:per_thread_data.obj
 0001:00055248       ??$?RV<lambda_410d79af7f07d98d83a3f525b3859a53>@@AEAV<lambda_3e16ef9562a7dcce91392c22ab16ea36>@@V<lambda_38119f0e861e05405d8a144b9b982f0a>@@@?$__crt_seh_guarded_call@X@@QEAAX$$QEAV<lambda_410d79af7f07d98d83a3f525b3859a53>@@AEAV<lambda_3e16ef9562a7dcce91392c22ab16ea36>@@$$QEAV<lambda_38119f0e861e05405d8a144b9b982f0a>@@@Z 0000000180056248 f   libucrt:wsetlocale.obj
 0001:000553e8       ?__acrt_LCMapStringA_stat@@YAHPEAU__crt_locale_pointers@@PEB_WKPEBDHPEADHHH@Z 00000001800563e8 f   libucrt:lcmapstringa.obj
 0001:000558b4       ??$common_lseek@_J@@YA_JH_JHAEAV__crt_cached_ptd_host@@@Z 00000001800568b4 f   libucrt:lseek.obj
 0001:000559d4       ??$common_lseek_nolock@_J@@YA_JH_JHAEAV__crt_cached_ptd_host@@@Z 00000001800569d4 f   libucrt:lseek.obj
 0001:00055bc8       ??$translate_text_mode_nolock@_W@@YAHHQEA_W_K@Z 0000000180056bc8 f   libucrt:read.obj
 0001:00055d88       ?translate_ansi_or_utf8_nolock@@YAHHQEAD_KQEA_W1@Z 0000000180056d88 f   libucrt:read.obj
 0001:000565c0       ?initialize_inherited_file_handles_nolock@@YAXXZ 00000001800575c0 f   libucrt:ioinit.obj
 0001:000566b0       ?initialize_stdio_handles_nolock@@YAXXZ 00000001800576b0 f   libucrt:ioinit.obj
 0001:000568e8       ?try_get_function@@YAPEAXW4function_id@?A0x391cf84c@@QEBDQEBW4module_id@2@2@Z 00000001800578e8 f   libucrt:winapi_thunks.obj
 0001:00056f34       ??$?RV<lambda_a37b2b86f63e897a80ea819b0eb08c01>@@AEAV<lambda_38ce7e780aa69e748d6df282ebc68efe>@@V<lambda_99fb1378e971ab6e7edea83e3a7a83a2>@@@?$__crt_seh_guarded_call@H@@QEAAH$$QEAV<lambda_a37b2b86f63e897a80ea819b0eb08c01>@@AEAV<lambda_38ce7e780aa69e748d6df282ebc68efe>@@$$QEAV<lambda_99fb1378e971ab6e7edea83e3a7a83a2>@@@Z 0000000180057f34 f   libucrt:commit.obj
 0001:00057054       ?write_double_translated_ansi_nolock@@YA?AUwrite_result@?A0x17268360@@HQEBDIAEAV__crt_cached_ptd_host@@@Z 0000000180058054 f   libucrt:write.obj
 0001:000574cc       ?write_text_ansi_nolock@@YA?AUwrite_result@?A0x17268360@@HQEBDI@Z 00000001800584cc f   libucrt:write.obj
 0001:000575d0       ?write_text_utf16le_nolock@@YA?AUwrite_result@?A0x17268360@@HQEBDI@Z 00000001800585d0 f   libucrt:write.obj
 0001:000576ec       ?write_text_utf8_nolock@@YA?AUwrite_result@?A0x17268360@@HQEBDI@Z 00000001800586ec f   libucrt:write.obj
 0001:00057d1c       ??$?RV<lambda_ad8af0d99a0adf03d037d7dffe354bb5>@@AEAV<lambda_c9ba49e555ba839a7b07aa3fbecb7617>@@V<lambda_2f1ebd5d68526518146ae959c9e734c8>@@@?$__crt_seh_guarded_call@H@@QEAAH$$QEAV<lambda_ad8af0d99a0adf03d037d7dffe354bb5>@@AEAV<lambda_c9ba49e555ba839a7b07aa3fbecb7617>@@$$QEAV<lambda_2f1ebd5d68526518146ae959c9e734c8>@@@Z 0000000180058d1c f   libucrt:close.obj
 0001:00058034       ?find_or_allocate_unused_stream_nolock@@YA?AV__crt_stdio_stream@@XZ 0000000180059034 f   libucrt:stream.obj
 0001:00058120       ??$write_buffer_nolock@D@@YA_NDV__crt_stdio_stream@@AEAV__crt_cached_ptd_host@@@Z 0000000180059120 f   libucrt:_flsbuf.obj
 0001:00058218       ?stream_is_at_end_of_file_nolock@@YA_NV__crt_stdio_stream@@@Z 0000000180059218 f   libucrt:_flsbuf.obj
 0001:00058f3c       ?fp_format_a@@YAHQEBNPEAD_KQEAD2H_NIW4__acrt_rounding_mode@@AEAV__crt_cached_ptd_host@@@Z 0000000180059f3c f   libucrt:cvt.obj
 0001:000592d4       ?fp_format_e@@YAHQEBNQEAD_K12H_NIW4__acrt_rounding_mode@@AEAV__crt_cached_ptd_host@@@Z 000000018005a2d4 f   libucrt:cvt.obj
 0001:000593d0       ?fp_format_e_internal@@YAHQEAD_KH_NIQEAU_strflt@@2AEAV__crt_cached_ptd_host@@@Z 000000018005a3d0 f   libucrt:cvt.obj
 0001:000595b4       ?fp_format_f@@YAHQEBNQEAD_K12HW4__acrt_rounding_mode@@AEAV__crt_cached_ptd_host@@@Z 000000018005a5b4 f   libucrt:cvt.obj
 0001:0005968c       ?fp_format_f_internal@@YAHQEAD_KHQEAU_strflt@@_NAEAV__crt_cached_ptd_host@@@Z 000000018005a68c f   libucrt:cvt.obj
 0001:000597e4       ?fp_format_g@@YAHQEBNQEAD_K12H_NIW4__acrt_rounding_mode@@AEAV__crt_cached_ptd_host@@@Z 000000018005a7e4 f   libucrt:cvt.obj
 0001:00059938       ?should_round_up@@YA_NQEBN_KFW4__acrt_rounding_mode@@@Z 000000018005a938 f   libucrt:cvt.obj
 0001:0005a4e0       ?<lambda_invoker_cdecl>@<lambda_a1ce4c8ae42411fd470c77163914f50e>@@CAHPEBX0@Z 000000018005b4e0 f   libucrt:argv_wildcards.obj
 0001:0005a7fc       ??$common_expand_argv_wildcards@D@@YAHQEAPEADQEAPEAPEAD@Z 000000018005b7fc f   libucrt:argv_wildcards.obj
 0001:0005aa40       ??$copy_and_add_argument_to_buffer@D@@YAHQEBD0_KAEAV?$argument_list@D@?A0x5f5c8891@@@Z 000000018005ba40 f   libucrt:argv_wildcards.obj
 0001:0005abc4       ??$expand_argument_wildcards@D@@YAHQEAD0AEAV?$argument_list@D@?A0x5f5c8891@@@Z 000000018005bbc4 f   libucrt:argv_wildcards.obj
 0001:0005b15c       ??$?RV<lambda_efdfa57d1f175319df784efa44bb7b81>@@AEAV<lambda_5f0a4c1567f8adc6734073e5d1e1b35c>@@V<lambda_2e8a7d3640ea6ccb4c2413664c2db6fd>@@@?$__crt_seh_guarded_call@X@@QEAAX$$QEAV<lambda_efdfa57d1f175319df784efa44bb7b81>@@AEAV<lambda_5f0a4c1567f8adc6734073e5d1e1b35c>@@$$QEAV<lambda_2e8a7d3640ea6ccb4c2413664c2db6fd>@@@Z 000000018005c15c f   libucrt:mbctype.obj
 0001:0005b32c       ?getSystemCP@@YAHH@Z       000000018005c32c f   libucrt:mbctype.obj
 0001:0005b3ac       ?setSBCS@@YAXPEAU__crt_multibyte_data@@@Z 000000018005c3ac f   libucrt:mbctype.obj
 0001:0005b444       ?setSBUpLow@@YAXPEAU__crt_multibyte_data@@@Z 000000018005c444 f   libucrt:mbctype.obj
 0001:0005b62c       ?setmbcp_internal@@YAHH_NQEAU__acrt_ptd@@QEAPEAU__crt_multibyte_data@@@Z 000000018005c62c f   libucrt:mbctype.obj
 0001:0005b89c       ?update_thread_multibyte_data_internal@@YAPEAU__crt_multibyte_data@@QEAU__acrt_ptd@@QEAPEAU1@@Z 000000018005c89c f   libucrt:mbctype.obj
 0001:0005bc90       ?x_ismbbtype_l@@YAHPEAU__crt_locale_pointers@@IHH@Z 000000018005cc90 f   libucrt:ismbbyte.obj
 0001:0005c15c       ??$?RV<lambda_450d765d439847d4c735a33c368b5fc0>@@AEAV<lambda_44731a7d0e6d81c3e6aa82d741081786>@@V<lambda_601a2a7da3b7a96e9554ac7215c4b07c>@@@?$__crt_seh_guarded_call@P6AXH@Z@@QEAAP6AXH@Z$$QEAV<lambda_450d765d439847d4c735a33c368b5fc0>@@AEAV<lambda_44731a7d0e6d81c3e6aa82d741081786>@@$$QEAV<lambda_601a2a7da3b7a96e9554ac7215c4b07c>@@@Z 000000018005d15c f   libucrt:signal.obj
 0001:0005ca58       ?free_crt_array_internal@@YAXQEAPEBX_K@Z 000000018005da58 f   libucrt:inittime.obj
 0001:0005d930       ??$common_sopen_dispatch@D@@YAHQEBDHHHQEAHH@Z 000000018005e930 f   libucrt:open.obj
 0001:0005d9f4       ??$common_sopen_dispatch@_W@@YAHQEB_WHHHQEAHH@Z 000000018005e9f4 f   libucrt:open.obj
 0001:0005dab8       ?configure_text_mode@@YAHHUfile_options@?A0xa9d50aae@@HAEAW4__crt_lowio_text_mode@@@Z 000000018005eab8 f   libucrt:open.obj
 0001:0005dd38       ?decode_options@@YA?AUfile_options@?A0xa9d50aae@@HHH@Z 000000018005ed38 f   libucrt:open.obj
 0001:0005df40       ?truncate_ctrl_z_if_present@@YAHH@Z 000000018005ef40 f   libucrt:open.obj
 0001:0005e578       ?should_round_up@@YA_NQEBD0HW4__acrt_has_trailing_digits@@W4__acrt_rounding_mode@@@Z 000000018005f578 f   libucrt:_fptostr.obj
 0001:0005fe70       fallbackMethod             0000000180060e70 f   libucrt:strpbrk.obj
 0001:0006021c       $LN79                      000000018006121c     libucrt:strpbrk.obj
 0001:00060258       $LN78                      0000000180061258     libucrt:strpbrk.obj
 0001:00060298       $LN77                      0000000180061298     libucrt:strpbrk.obj
 0001:00060374       ?initialize_multibyte@@YAHXZ 0000000180061374 f   libucrt:multibyte_initializer.obj
 0001:00060d80       $$000000                   0000000180061d80     libucrt:log10.obj
 0001:00061460       common_control87           0000000180062460 f   libucrt:ieee.obj
 0001:000616fc       _call_matherr              00000001800626fc f   libucrt:libm_error.obj
 0001:00061764       _exception_enabled         0000000180062764 f   libucrt:libm_error.obj
 0001:00061b40       _log_special_common        0000000180062b40 f   libucrt:log_special.obj
 0001:00061be0       $$000000                   0000000180062be0     libucrt:fpsr.obj
 0001:00062200       $$000000                   0000000180063200     LIBCMT:chkstk.obj
 0001:00062970       $$000000                   0000000180063970     libucrt:cosf.obj
 0001:00063140       $$000000                   0000000180064140     libucrt:pow.obj
 0001:000647e0       $$000000                   00000001800657e0     libucrt:powf.obj
 0001:000656b0       $$000000                   00000001800666b0     libucrt:sinf.obj
 0001:00065f20       $$000000                   0000000180066f20     libucrt:strcmp.obj
 0001:00065fa0       $$000000                   0000000180066fa0     libucrt:remainder_piby2f_forasm.obj
 0001:000660f0       $$000000                   00000001800670f0     libucrt:remainder_piby2_forfma3.obj
 0001:0006636c       _sincosf_special           000000018006736c f   libucrt:sincos_special.obj
 0001:000666c0       $$000000                   00000001800676c0     libucrt:remainder_piby2f_forc.obj
 0001:00066850       $$000000                   0000000180067850     LIBCMT:guard_dispatch.obj
 0001:00066870       $$000000                   0000000180067870     LIBCMT:guard_xfg_dispatch.obj
 0001:000668b0       $$000000                   00000001800678b0     libvcruntime:memset.obj
 0001:000668c0       $$000000                   00000001800678c0     libvcruntime:memset.obj
 0001:00066901       SetSmall15                 0000000180067901     libvcruntime:memset.obj
 0001:00066905       SetSmall7                  0000000180067905     libvcruntime:memset.obj
 0001:00066909       SetSmall3                  0000000180067909     libvcruntime:memset.obj
 0001:0006690e       SetSmall1                  000000018006790e     libvcruntime:memset.obj
 0001:00066912       SetSmall0                  0000000180067912     libvcruntime:memset.obj
 0001:00066913       SetSmall14                 0000000180067913     libvcruntime:memset.obj
 0001:00066917       SetSmall6                  0000000180067917     libvcruntime:memset.obj
 0001:0006691b       SetSmall2                  000000018006791b     libvcruntime:memset.obj
 0001:00066920       MoveSmall0                 0000000180067920     libvcruntime:memset.obj
 0001:00066930       SetSmall13                 0000000180067930     libvcruntime:memset.obj
 0001:00066934       SetSmall5                  0000000180067934     libvcruntime:memset.obj
 0001:00066940       SetSmall12                 0000000180067940     libvcruntime:memset.obj
 0001:00066944       SetSmall4                  0000000180067944     libvcruntime:memset.obj
 0001:00066949       SetSmall11                 0000000180067949     libvcruntime:memset.obj
 0001:00066957       SetSmall9                  0000000180067957     libvcruntime:memset.obj
 0001:00066960       SetSmall10                 0000000180067960     libvcruntime:memset.obj
 0001:0006696a       SetSmall8                  000000018006796a     libvcruntime:memset.obj
 0001:00066970       SetAbove15                 0000000180067970     libvcruntime:memset.obj
 0001:00066986       SetAbove32                 0000000180067986     libvcruntime:memset.obj
 0001:000669b2       SetWithYMM                 00000001800679b2     libvcruntime:memset.obj
 0001:000669f0       YmmLoop                    00000001800679f0     libvcruntime:memset.obj
 0001:00066a3a       SetUpTo256WithYMM          0000000180067a3a     libvcruntime:memset.obj
 0001:00066a57       Set8YmmBlocks              0000000180067a57     libvcruntime:memset.obj
 0001:00066a61       Set7YmmBlocks              0000000180067a61     libvcruntime:memset.obj
 0001:00066a6b       Set6YmmBlocks              0000000180067a6b     libvcruntime:memset.obj
 0001:00066a75       Set5YmmBlocks              0000000180067a75     libvcruntime:memset.obj
 0001:00066a7f       Set4YmmBlocks              0000000180067a7f     libvcruntime:memset.obj
 0001:00066a86       Set3YmmBlocks              0000000180067a86     libvcruntime:memset.obj
 0001:00066a8d       Set2YmmBlocks              0000000180067a8d     libvcruntime:memset.obj
 0001:00066a94       Set1YmmBlocks              0000000180067a94     libvcruntime:memset.obj
 0001:00066a9b       Set0YmmBlocks              0000000180067a9b     libvcruntime:memset.obj
 0001:00066aa3       SetWithYMMNT               0000000180067aa3     libvcruntime:memset.obj
 0001:00066ab0       YmmLoopNT                  0000000180067ab0     libvcruntime:memset.obj
 0001:00066b17       Set8YmmBlocksNT            0000000180067b17     libvcruntime:memset.obj
 0001:00066b21       Set7YmmBlocksNT            0000000180067b21     libvcruntime:memset.obj
 0001:00066b2b       Set6YmmBlocksNT            0000000180067b2b     libvcruntime:memset.obj
 0001:00066b35       Set5YmmBlocksNT            0000000180067b35     libvcruntime:memset.obj
 0001:00066b3f       Set4YmmBlocksNT            0000000180067b3f     libvcruntime:memset.obj
 0001:00066b46       Set3YmmBlocksNT            0000000180067b46     libvcruntime:memset.obj
 0001:00066b4d       Set2YmmBlocksNT            0000000180067b4d     libvcruntime:memset.obj
 0001:00066b54       Set1YmmBlocksNT            0000000180067b54     libvcruntime:memset.obj
 0001:00066b5b       Set0YmmBlocksNT            0000000180067b5b     libvcruntime:memset.obj
 0001:00066b70       NoAVX                      0000000180067b70     libvcruntime:memset.obj
 0001:00066b86       SetWithXMM                 0000000180067b86     libvcruntime:memset.obj
 0001:00066bb0       XmmLoop                    0000000180067bb0     libvcruntime:memset.obj
 0001:00066bee       SetUpTo128WithXMM          0000000180067bee     libvcruntime:memset.obj
 0001:00066c0b       Set8XmmBlocks              0000000180067c0b     libvcruntime:memset.obj
 0001:00066c12       Set7XmmBlocks              0000000180067c12     libvcruntime:memset.obj
 0001:00066c19       Set6XmmBlocks              0000000180067c19     libvcruntime:memset.obj
 0001:00066c20       Set5XmmBlocks              0000000180067c20     libvcruntime:memset.obj
 0001:00066c27       Set4XmmBlocks              0000000180067c27     libvcruntime:memset.obj
 0001:00066c2e       Set3XmmBlocks              0000000180067c2e     libvcruntime:memset.obj
 0001:00066c35       Set2XmmBlocks              0000000180067c35     libvcruntime:memset.obj
 0001:00066c3c       Set1XmmBlocks              0000000180067c3c     libvcruntime:memset.obj
 0001:00066c43       Set0XmmBlocks              0000000180067c43     libvcruntime:memset.obj
 0001:00066c70       $$000000                   0000000180067c70     libvcruntime:memcpy.obj
 0001:00066c80       $$000000                   0000000180067c80     libvcruntime:memcpy.obj
 0001:00066cae       MoveSmall0                 0000000180067cae     libvcruntime:memcpy.obj
 0001:00066cb0       MoveSmall15                0000000180067cb0     libvcruntime:memcpy.obj
 0001:00066cd0       MoveSmall11                0000000180067cd0     libvcruntime:memcpy.obj
 0001:00066ce8       MoveSmall2                 0000000180067ce8     libvcruntime:memcpy.obj
 0001:00066cf0       MoveSmall7                 0000000180067cf0     libvcruntime:memcpy.obj
 0001:00066d08       MoveSmall14                0000000180067d08     libvcruntime:memcpy.obj
 0001:00066d1f       MoveSmall3                 0000000180067d1f     libvcruntime:memcpy.obj
 0001:00066d30       MoveSmall13                0000000180067d30     libvcruntime:memcpy.obj
 0001:00066d46       MoveSmall10                0000000180067d46     libvcruntime:memcpy.obj
 0001:00066d55       MoveSmall9                 0000000180067d55     libvcruntime:memcpy.obj
 0001:00066d63       MoveSmall12                0000000180067d63     libvcruntime:memcpy.obj
 0001:00066d70       MoveSmall6                 0000000180067d70     libvcruntime:memcpy.obj
 0001:00066d7f       MoveSmall5                 0000000180067d7f     libvcruntime:memcpy.obj
 0001:00066d8d       MoveSmall8                 0000000180067d8d     libvcruntime:memcpy.obj
 0001:00066d94       MoveSmall1                 0000000180067d94     libvcruntime:memcpy.obj
 0001:00066d9a       MoveSmall4                 0000000180067d9a     libvcruntime:memcpy.obj
 0001:00066da0       MoveAbove15                0000000180067da0     libvcruntime:memcpy.obj
 0001:00066dbd       MoveAbove32                0000000180067dbd     libvcruntime:memcpy.obj
 0001:00066dfd       MoveWithYMM                0000000180067dfd     libvcruntime:memcpy.obj
 0001:00066e50       YmmLoop                    0000000180067e50     libvcruntime:memcpy.obj
 0001:00066ed8       MovUpTo256WithYMM          0000000180067ed8     libvcruntime:memcpy.obj
 0001:00066ef5       Mov8YmmBlocks              0000000180067ef5     libvcruntime:memcpy.obj
 0001:00066f09       Mov7YmmBlocks              0000000180067f09     libvcruntime:memcpy.obj
 0001:00066f1d       Mov6YmmBlocks              0000000180067f1d     libvcruntime:memcpy.obj
 0001:00066f31       Mov5YmmBlocks              0000000180067f31     libvcruntime:memcpy.obj
 0001:00066f45       Mov4YmmBlocks              0000000180067f45     libvcruntime:memcpy.obj
 0001:00066f53       Mov3YmmBlocks              0000000180067f53     libvcruntime:memcpy.obj
 0001:00066f61       Mov2YmmBlocks              0000000180067f61     libvcruntime:memcpy.obj
 0001:00066f6f       Mov1YmmBlocks              0000000180067f6f     libvcruntime:memcpy.obj
 0001:00066f76       Mov0YmmBlocks              0000000180067f76     libvcruntime:memcpy.obj
 0001:00066f80       YmmLoopNT                  0000000180067f80     libvcruntime:memcpy.obj
 0001:00067025       Mov8YmmBlocksNT            0000000180068025     libvcruntime:memcpy.obj
 0001:00067039       Mov7YmmBlocksNT            0000000180068039     libvcruntime:memcpy.obj
 0001:0006704d       Mov6YmmBlocksNT            000000018006804d     libvcruntime:memcpy.obj
 0001:00067061       Mov5YmmBlocksNT            0000000180068061     libvcruntime:memcpy.obj
 0001:00067075       Mov4YmmBlocksNT            0000000180068075     libvcruntime:memcpy.obj
 0001:00067083       Mov3YmmBlocksNT            0000000180068083     libvcruntime:memcpy.obj
 0001:00067091       Mov2YmmBlocksNT            0000000180068091     libvcruntime:memcpy.obj
 0001:0006709f       Mov1YmmBlocksNT            000000018006809f     libvcruntime:memcpy.obj
 0001:000670a6       Mov0YmmBlocksNT            00000001800680a6     libvcruntime:memcpy.obj
 0001:000670c0       NoAVX                      00000001800680c0     libvcruntime:memcpy.obj
 0001:000670d6       MoveWithXMM                00000001800680d6     libvcruntime:memcpy.obj
 0001:00067110       XmmLoop                    0000000180068110     libvcruntime:memcpy.obj
 0001:0006717c       MovUpTo128WithXMM          000000018006817c     libvcruntime:memcpy.obj
 0001:00067199       Mov8XmmBlocks              0000000180068199     libvcruntime:memcpy.obj
 0001:000671a7       Mov7XmmBlocks              00000001800681a7     libvcruntime:memcpy.obj
 0001:000671b5       Mov6XmmBlocks              00000001800681b5     libvcruntime:memcpy.obj
 0001:000671c3       Mov5XmmBlocks              00000001800681c3     libvcruntime:memcpy.obj
 0001:000671d1       Mov4XmmBlocks              00000001800681d1     libvcruntime:memcpy.obj
 0001:000671df       Mov3XmmBlocks              00000001800681df     libvcruntime:memcpy.obj
 0001:000671ed       Mov2XmmBlocks              00000001800681ed     libvcruntime:memcpy.obj
 0001:000671fb       Mov1XmmBlocks              00000001800681fb     libvcruntime:memcpy.obj
 0001:00067202       Mov0XmmBlocks              0000000180068202     libvcruntime:memcpy.obj
 0001:00067210       CopyDown                   0000000180068210     libvcruntime:memcpy.obj
 0001:0006722b       XmmMovAlign                000000018006822b     libvcruntime:memcpy.obj
 0001:00067243       XmmMovLargeTest            0000000180068243     libvcruntime:memcpy.obj
 0001:00067260       XmmMovLargeOuter           0000000180068260     libvcruntime:memcpy.obj
 0001:00067267       XmmMovLargeInner           0000000180068267     libvcruntime:memcpy.obj
 0001:000672bd       XmmMovSmallTest            00000001800682bd     libvcruntime:memcpy.obj
 0001:000672d0       XmmMovSmallLoop            00000001800682d0     libvcruntime:memcpy.obj
 0001:000672e0       XmmMovTrailing             00000001800682e0     libvcruntime:memcpy.obj
 0001:000672e9       XmmMovReturn               00000001800682e9     libvcruntime:memcpy.obj
 0001:00067300       $$000000                   0000000180068300     libvcruntime:memcmp.obj
 0001:00067310       mcmp10                     0000000180068310     libvcruntime:memcmp.obj
 0001:00067322       mcmp20                     0000000180068322     libvcruntime:memcmp.obj
 0001:0006732b       mcmp30                     000000018006832b     libvcruntime:memcmp.obj
 0001:00067330       mcmp40                     0000000180068330     libvcruntime:memcmp.obj
 0001:0006733f       mcmp_equal                 000000018006833f     libvcruntime:memcmp.obj
 0001:00067343       mcmp_not_equal             0000000180068343     libvcruntime:memcmp.obj
 0001:0006734a       mcmp50                     000000018006834a     libvcruntime:memcmp.obj
 0001:00067350       mcmp60                     0000000180068350     libvcruntime:memcmp.obj
 0001:00067387       mcmp70                     0000000180068387     libvcruntime:memcmp.obj
 0001:00067390       mcmp80                     0000000180068390     libvcruntime:memcmp.obj
 0001:000673a8       mcmp_adjust24              00000001800683a8     libvcruntime:memcmp.obj
 0001:000673ac       mcmp_adjust16              00000001800683ac     libvcruntime:memcmp.obj
 0001:000673b0       mcmp_adjust8               00000001800683b0     libvcruntime:memcmp.obj
 0001:000673b4       mcmp_adjust0               00000001800683b4     libvcruntime:memcmp.obj
 0001:000673e0       $$000000                   00000001800683e0     libvcruntime:memchr.obj
 0001:00067410       head_loop                  0000000180068410     libvcruntime:memchr.obj
 0001:00067420       main_loop                  0000000180068420     libvcruntime:memchr.obj
 0001:00067459       tail_loop_start            0000000180068459     libvcruntime:memchr.obj
 0001:0006745e       tail_loop                  000000018006845e     libvcruntime:memchr.obj
 0001:0006746b       not_found                  000000018006846b     libvcruntime:memchr.obj
 0001:0006746c       found                      000000018006846c     libvcruntime:memchr.obj
 0001:00067470       ?dtor$0@?0???__EList@BoneJointList@@YAXXZ@4HA 0000000180068470 f   Aimbot.obj
 0001:00067480       ?dtor$1@?0???__EList@BoneJointList@@YAXXZ@4HA 0000000180068480 f   Aimbot.obj
 0001:00067490       ?dtor$2@?0???__EList@BoneJointList@@YAXXZ@4HA 0000000180068490 f   Aimbot.obj
 0001:000674a0       ?dtor$3@?0???__EList@BoneJointList@@YAXXZ@4HA 00000001800684a0 f   Aimbot.obj
 0001:000674b0       ?dtor$5@?0???__EList@BoneJointList@@YAXXZ@4HA 00000001800684b0 f   Aimbot.obj
 0001:000674e0       ?dtor$6@?0???__EList@BoneJointList@@YAXXZ@4HA 00000001800684e0 f   Aimbot.obj
 0001:000674f0       ?dtor$7@?0???__EList@BoneJointList@@YAXXZ@4HA 00000001800684f0 f   Aimbot.obj
 0001:00067500       ?dtor$0@?0???0?$list@KV?$allocator@K@std@@@std@@QEAA@AEBV01@@Z@4HA 0000000180068500 f   Aimbot.obj
 0001:00067500       ?dtor$0@?0???0?$list@KV?$allocator@K@std@@@std@@QEAA@V?$initializer_list@K@1@@Z@4HA 0000000180068500 f   Aimbot.obj
 0001:00067510       ?dtor$1@?0???0?$list@KV?$allocator@K@std@@@std@@QEAA@AEBV01@@Z@4HA 0000000180068510 f   Aimbot.obj
 0001:00067510       ?dtor$1@?0???0?$list@KV?$allocator@K@std@@@std@@QEAA@V?$initializer_list@K@1@@Z@4HA 0000000180068510 f   Aimbot.obj
 0001:00067510       ?dtor$2@?0???0?$list@KV?$allocator@K@std@@@std@@QEAA@AEBV01@@Z@4HA 0000000180068510 f   Aimbot.obj
 0001:00067510       ?dtor$2@?0???0?$list@KV?$allocator@K@std@@@std@@QEAA@V?$initializer_list@K@1@@Z@4HA 0000000180068510 f   Aimbot.obj
 0001:00067520       ?dtor$0@?0??RenderESP@@YAHAEAVCEntity@@@Z@4HA 0000000180068520 f   ESP.obj
 0001:00067530       ?dtor$1@?0??RenderESP@@YAHAEAVCEntity@@@Z@4HA 0000000180068530 f   ESP.obj
 0001:00067540       ?dtor$0@?0??InitiateImGui@@YAXXZ@4HA 0000000180068540 f   d3d.obj
 0001:00067570       ?dtor$0@?0??InitializeOffsets@@YAHXZ@4HA 0000000180068570 f   Hooks.obj
 0001:00067570       ?dtor$1@?0??InitializeOffsets@@YAHXZ@4HA 0000000180068570 f   Hooks.obj
 0001:00067570       ?dtor$2@?0??InitializeOffsets@@YAHXZ@4HA 0000000180068570 f   Hooks.obj
 0001:00067570       ?dtor$3@?0??InitializeOffsets@@YAHXZ@4HA 0000000180068570 f   Hooks.obj
 0001:00067570       ?dtor$4@?0??InitializeOffsets@@YAHXZ@4HA 0000000180068570 f   Hooks.obj
 0001:00067570       ?dtor$5@?0??InitializeOffsets@@YAHXZ@4HA 0000000180068570 f   Hooks.obj
 0001:00067570       ?dtor$6@?0??InitializeOffsets@@YAHXZ@4HA 0000000180068570 f   Hooks.obj
 0001:00067580       ?dtor$0@?0??InitializeRender@@YAHXZ@4HA 0000000180068580 f   Hooks.obj
 0001:000675b0       ?dtor$3@?0??InitializeRender@@YAHXZ@4HA 00000001800685b0 f   Hooks.obj
 0001:000675e0       ?dtor$0@?0???0ImDrawList@@QEAA@PEBUImDrawListSharedData@@@Z@4HA 00000001800685e0 f   imgui.obj
 0001:000675f0       ?dtor$1@?0???0ImDrawList@@QEAA@PEBUImDrawListSharedData@@@Z@4HA 00000001800685f0 f   imgui.obj
 0001:00067600       ?dtor$2@?0???0ImDrawList@@QEAA@PEBUImDrawListSharedData@@@Z@4HA 0000000180068600 f   imgui.obj
 0001:00067610       ?dtor$3@?0???0ImDrawList@@QEAA@PEBUImDrawListSharedData@@@Z@4HA 0000000180068610 f   imgui.obj
 0001:00067620       ?dtor$4@?0???0ImDrawList@@QEAA@PEBUImDrawListSharedData@@@Z@4HA 0000000180068620 f   imgui.obj
 0001:00067630       ?dtor$5@?0???0ImDrawList@@QEAA@PEBUImDrawListSharedData@@@Z@4HA 0000000180068630 f   imgui.obj
 0001:00067650       ?dtor$6@?0???0ImDrawList@@QEAA@PEBUImDrawListSharedData@@@Z@4HA 0000000180068650 f   imgui.obj
 0001:00067670       ?dtor$0@?0???0ImGuiContext@@QEAA@PEAUImFontAtlas@@@Z@4HA 0000000180068670 f   imgui.obj
 0001:00067680       ?dtor$1@?0???0ImGuiContext@@QEAA@PEAUImFontAtlas@@@Z@4HA 0000000180068680 f   imgui.obj
 0001:000676a0       ?dtor$2@?0???0ImGuiContext@@QEAA@PEAUImFontAtlas@@@Z@4HA 00000001800686a0 f   imgui.obj
 0001:000676c0       ?dtor$3@?0???0ImGuiContext@@QEAA@PEAUImFontAtlas@@@Z@4HA 00000001800686c0 f   imgui.obj
 0001:000676e0       ?dtor$4@?0???0ImGuiContext@@QEAA@PEAUImFontAtlas@@@Z@4HA 00000001800686e0 f   imgui.obj
 0001:00067700       ?dtor$5@?0???0ImGuiContext@@QEAA@PEAUImFontAtlas@@@Z@4HA 0000000180068700 f   imgui.obj
 0001:00067720       ?dtor$6@?0???0ImGuiContext@@QEAA@PEAUImFontAtlas@@@Z@4HA 0000000180068720 f   imgui.obj
 0001:00067740       ?dtor$7@?0???0ImGuiContext@@QEAA@PEAUImFontAtlas@@@Z@4HA 0000000180068740 f   imgui.obj
 0001:00067760       ?dtor$8@?0???0ImGuiContext@@QEAA@PEAUImFontAtlas@@@Z@4HA 0000000180068760 f   imgui.obj
 0001:00067780       ?dtor$9@?0???0ImGuiContext@@QEAA@PEAUImFontAtlas@@@Z@4HA 0000000180068780 f   imgui.obj
 0001:000677a0       ?dtor$10@?0???0ImGuiContext@@QEAA@PEAUImFontAtlas@@@Z@4HA 00000001800687a0 f   imgui.obj
 0001:000677c0       ?dtor$11@?0???0ImGuiContext@@QEAA@PEAUImFontAtlas@@@Z@4HA 00000001800687c0 f   imgui.obj
 0001:000677e0       ?dtor$12@?0???0ImGuiContext@@QEAA@PEAUImFontAtlas@@@Z@4HA 00000001800687e0 f   imgui.obj
 0001:00067800       ?dtor$13@?0???0ImGuiContext@@QEAA@PEAUImFontAtlas@@@Z@4HA 0000000180068800 f   imgui.obj
 0001:00067820       ?dtor$14@?0???0ImGuiContext@@QEAA@PEAUImFontAtlas@@@Z@4HA 0000000180068820 f   imgui.obj
 0001:00067840       ?dtor$15@?0???0ImGuiContext@@QEAA@PEAUImFontAtlas@@@Z@4HA 0000000180068840 f   imgui.obj
 0001:00067860       ?dtor$16@?0???0ImGuiContext@@QEAA@PEAUImFontAtlas@@@Z@4HA 0000000180068860 f   imgui.obj
 0001:00067880       ?dtor$17@?0???0ImGuiContext@@QEAA@PEAUImFontAtlas@@@Z@4HA 0000000180068880 f   imgui.obj
 0001:000678a0       ?dtor$18@?0???0ImGuiContext@@QEAA@PEAUImFontAtlas@@@Z@4HA 00000001800688a0 f   imgui.obj
 0001:000678c0       ?dtor$19@?0???0ImGuiContext@@QEAA@PEAUImFontAtlas@@@Z@4HA 00000001800688c0 f   imgui.obj
 0001:000678e0       ?dtor$20@?0???0ImGuiContext@@QEAA@PEAUImFontAtlas@@@Z@4HA 00000001800688e0 f   imgui.obj
 0001:00067900       ?dtor$21@?0???0ImGuiContext@@QEAA@PEAUImFontAtlas@@@Z@4HA 0000000180068900 f   imgui.obj
 0001:00067920       ?dtor$22@?0???0ImGuiContext@@QEAA@PEAUImFontAtlas@@@Z@4HA 0000000180068920 f   imgui.obj
 0001:00067940       ?dtor$23@?0???0ImGuiContext@@QEAA@PEAUImFontAtlas@@@Z@4HA 0000000180068940 f   imgui.obj
 0001:00067960       ?dtor$24@?0???0ImGuiContext@@QEAA@PEAUImFontAtlas@@@Z@4HA 0000000180068960 f   imgui.obj
 0001:00067980       ?dtor$25@?0???0ImGuiContext@@QEAA@PEAUImFontAtlas@@@Z@4HA 0000000180068980 f   imgui.obj
 0001:000679a0       ?dtor$0@?0??ImFileOpen@@YAPEAU_iobuf@@PEBD0@Z@4HA 00000001800689a0 f   imgui.obj
 0001:000679b0       ?dtor$0@?0???0ImGuiWindow@@QEAA@PEAUImGuiContext@@PEBD@Z@4HA 00000001800689b0 f   imgui.obj
 0001:000679d0       ?dtor$1@?0???0ImGuiWindow@@QEAA@PEAUImGuiContext@@PEBD@Z@4HA 00000001800689d0 f   imgui.obj
 0001:000679f0       ?dtor$2@?0???0ImGuiWindow@@QEAA@PEAUImGuiContext@@PEBD@Z@4HA 00000001800689f0 f   imgui.obj
 0001:00067a10       ?dtor$3@?0???0ImGuiWindow@@QEAA@PEAUImGuiContext@@PEBD@Z@4HA 0000000180068a10 f   imgui.obj
 0001:00067a30       ?dtor$4@?0???0ImGuiWindow@@QEAA@PEAUImGuiContext@@PEBD@Z@4HA 0000000180068a30 f   imgui.obj
 0001:00067a50       ?dtor$0@?0??CreateNewWindow@@YAPEAUImGuiWindow@@PEBDUImVec2@@H@Z@4HA 0000000180068a50 f   imgui.obj
 0001:00067a80       ?dtor$0@?0??ImFontAtlasBuildWithStbTruetype@@YA_NPEAUImFontAtlas@@@Z@4HA 0000000180068a80 f   imgui_draw.obj
 0001:00067a90       ?dtor$1@?0??ImFontAtlasBuildWithStbTruetype@@YA_NPEAUImFontAtlas@@@Z@4HA 0000000180068a90 f   imgui_draw.obj
 0001:00067aa0       ?dtor$2@?0??ImFontAtlasBuildWithStbTruetype@@YA_NPEAUImFontAtlas@@@Z@4HA 0000000180068aa0 f   imgui_draw.obj
 0001:00067ab0       ?dtor$3@?0??ImFontAtlasBuildWithStbTruetype@@YA_NPEAUImFontAtlas@@@Z@4HA 0000000180068ab0 f   imgui_draw.obj
 0001:00067ac0       ?dtor$0@?0??ImFontAtlasBuildPackCustomRects@@YAXPEAUImFontAtlas@@PEAX@Z@4HA 0000000180068ac0 f   imgui_draw.obj
 0001:00067ad0       ?dtor$0@?0??ConvertHexToByteArray@@YAHAEBV?$basic_string@DU?$char_traits@D@std@@V?$allocator@D@2@@std@@AEAV?$vector@EV?$allocator@E@std@@@2@@Z@4HA 0000000180068ad0 f   Memory.obj
 0001:00067ae0       ?dtor$0@?0??PatternScan@@YA_K_K0AEBV?$basic_string@DU?$char_traits@D@std@@V?$allocator@D@2@@std@@_N2H@Z@4HA 0000000180068ae0 f   Memory.obj
 0001:00067af0       ?dtor$0@?0??PlayerWeapon@CEntity@@QEAAXXZ@4HA 0000000180068af0 f   Entity.obj
 0001:00067b00       ?dtor$0@?0??EnableCheats@@YAXXZ@4HA 0000000180068b00 f   Entity.obj
 0001:00067b10       ?dtor$1@?0??EnableCheats@@YAXXZ@4HA 0000000180068b10 f   Entity.obj
 0001:00067b20       ?filt$0@?0??detour_is_imported@@YA_NPEAE0@Z@4HA 0000000180068b20 f   detours:detours.obj
 0001:00067b35       ?fin$0@?0???_M@YAXPEAX_K1P6AX0@Z@Z@4HA 0000000180068b35 f   LIBCMT:ehvecdtr.obj
 0001:00067b61       ?filt$0@?0??__ArrayUnwind@@YAXPEAX_K1P6AX0@Z@Z@4HA 0000000180068b61 f   LIBCMT:ehvecdtr.obj
 0001:00067bc0       __scrt_is_nonwritable_in_current_image$filt$0 0000000180068bc0 f   LIBCMT:utility.obj
 0001:00067bd8       ?fin$0@?0???_L@YAXPEAX_K1P6AX0@Z2@Z@4HA 0000000180068bd8 f   LIBCMT:ehvecctr.obj
 0001:00067c04       ?fin$0@?0??dllmain_crt_process_attach@@YAHQEAUHINSTANCE__@@QEAX@Z@4HA 0000000180068c04 f   LIBCMT:dll_dllmain.obj
 0001:00067c1b       ?fin$0@?0??dllmain_crt_process_detach@@YAH_N@Z@4HA 0000000180068c1b f   LIBCMT:dll_dllmain.obj
 0001:00067c34       ?fin$1@?0??dllmain_crt_process_detach@@YAH_N@Z@4HA 0000000180068c34 f   LIBCMT:dll_dllmain.obj
 0001:00067c48       ?filt$0@?0??dllmain_dispatch@@YAHQEAUHINSTANCE__@@KQEAX@Z@4HA 0000000180068c48 f   LIBCMT:dll_dllmain.obj
 0001:00067c7e       ?filt$0@?0???$_CallSETranslator@V__FrameHandler3@@@@YAHPEAUEHExceptionRecord@@PEA_KPEAU_CONTEXT@@PEAU_xDISPATCHER_CONTEXT@@PEBU_s_FuncInfo@@K1H@Z@4HA 0000000180068c7e f   libvcruntime:risctrnsctrl.obj
 0001:00067d26       ?filt$0@?0???$_CallSETranslator@V__FrameHandler4@@@@YAHPEAUEHExceptionRecord@@PEA_KPEAU_CONTEXT@@PEAU_xDISPATCHER_CONTEXT@@PEAUFuncInfo4@FH4@@K1H@Z@4HA 0000000180068d26 f   libvcruntime:risctrnsctrl.obj
 0001:00067ddc       __DestructExceptionObject$filt$0 0000000180068ddc f   libvcruntime:ehhelpers.obj
 0001:00067e72       ?fin$0@?0???$__InternalCxxFrameHandlerWrapper@V__FrameHandler4@@@@YA?AW4_EXCEPTION_DISPOSITION@@PEAUEHExceptionRecord@@PEA_KPEAU_CONTEXT@@PEAU_xDISPATCHER_CONTEXT@@PEAUFuncInfo4@FH4@@H1E@Z@4HA 0000000180068e72 f   libvcruntime:frame.obj
 0001:00067e8e       ?filt$0@?0??CxxCallCatchBlock@__FrameHandler3@@SAPEAXPEAU_EXCEPTION_RECORD@@@Z@4HA 0000000180068e8e f   libvcruntime:frame.obj
 0001:00067eb3       ?fin$1@?0??CxxCallCatchBlock@__FrameHandler3@@SAPEAXPEAU_EXCEPTION_RECORD@@@Z@4HA 0000000180068eb3 f   libvcruntime:frame.obj
 0001:00067f39       ?filt$0@?0??CxxCallCatchBlock@__FrameHandler4@@SAPEAXPEAU_EXCEPTION_RECORD@@@Z@4HA 0000000180068f39 f   libvcruntime:frame.obj
 0001:00067f68       ?fin$1@?0??CxxCallCatchBlock@__FrameHandler4@@SAPEAXPEAU_EXCEPTION_RECORD@@@Z@4HA 0000000180068f68 f   libvcruntime:frame.obj
 0001:00067ff9       ?filt$0@?0??FrameUnwindToState@__FrameHandler3@@SAXPEA_KPEAU_xDISPATCHER_CONTEXT@@PEBU_s_FuncInfo@@H@Z@4HA 0000000180068ff9 f   libvcruntime:frame.obj
 0001:0006800f       ?fin$1@?0??FrameUnwindToState@__FrameHandler3@@SAXPEA_KPEAU_xDISPATCHER_CONTEXT@@PEBU_s_FuncInfo@@H@Z@4HA 000000018006900f f   libvcruntime:frame.obj
 0001:00068032       ?filt$0@?0??FrameUnwindToState@__FrameHandler4@@SAXPEA_KPEAU_xDISPATCHER_CONTEXT@@PEAUFuncInfo4@FH4@@H@Z@4HA 0000000180069032 f   libvcruntime:frame.obj
 0001:00068048       ?fin$1@?0??FrameUnwindToState@__FrameHandler4@@SAXPEA_KPEAU_xDISPATCHER_CONTEXT@@PEAUFuncInfo4@FH4@@H@Z@4HA 0000000180069048 f   libvcruntime:frame.obj
 0001:0006806b       ?fin$0@?0??_fclose_internal@@YAHQEAU_iobuf@@AEAV__crt_cached_ptd_host@@@Z@4HA 000000018006906b f   libucrt:fclose.obj
 0001:0006806b       ?fin$0@?0??common_fseek@@YAHV__crt_stdio_stream@@_JHAEAV__crt_cached_ptd_host@@@Z@4HA 000000018006906b f   libucrt:fseek.obj
 0001:0006806b       ?fin$0@?0???$common_ftell@J@@YAJV__crt_stdio_stream@@AEAV__crt_cached_ptd_host@@@Z@4HA 000000018006906b f   libucrt:ftell.obj
 0001:00068083       ?fin$0@?0???$?RV<lambda_842d9ff0dc9ef11c61343bbaebe7f885>@@AEAV<lambda_c5860995281e5c4ce005b3de8f5874ee>@@V<lambda_d90129c13df834fdcbf8d2b88dafcf2d>@@@?$__crt_seh_guarded_call@X@@QEAAX$$QEAV<lambda_842d9ff0dc9ef11c61343bbaebe7f885>@@AEAV<lambda_c5860995281e5c4ce005b3de8f5874ee>@@$$QEAV<lambda_d90129c13df834fdcbf8d2b88dafcf2d>@@@Z@4HA 0000000180069083 f   libucrt:fflush.obj
 0001:00068083       ?fin$0@?0???$?RV<lambda_c376a267cfb53b6959b3b692ec76b120>@@AEAV<lambda_9a32fed5bf61b6b509b2d3f6003082a1>@@V<lambda_572fbb9fa0ab338edf41edfd4b5fcc8d>@@@?$__crt_seh_guarded_call@H@@QEAAH$$QEAV<lambda_c376a267cfb53b6959b3b692ec76b120>@@AEAV<lambda_9a32fed5bf61b6b509b2d3f6003082a1>@@$$QEAV<lambda_572fbb9fa0ab338edf41edfd4b5fcc8d>@@@Z@4HA 0000000180069083 f   libucrt:fflush.obj
 0001:00068083       ?fin$0@?0???$?RV<lambda_a2589f19c515cac03caf6db9c38355e9>@@AEAV<lambda_26974eb511f701c600fccfa2a97a8e1b>@@V<lambda_ad9ce2f38261e34e8a422b9cc35dfe8d>@@@?$__crt_seh_guarded_call@_K@@QEAA_K$$QEAV<lambda_a2589f19c515cac03caf6db9c38355e9>@@AEAV<lambda_26974eb511f701c600fccfa2a97a8e1b>@@$$QEAV<lambda_ad9ce2f38261e34e8a422b9cc35dfe8d>@@@Z@4HA 0000000180069083 f   libucrt:fwrite.obj
 0001:0006809e       ?fin$0@?0???$?RV<lambda_886d6c58226a84441f68b9f2b8217b83>@@AEAV<lambda_ab61a845afdef5b7c387490eaf3616ee>@@V<lambda_f7f22ab5edc0698d5f6905b0d3f44752>@@@?$__crt_seh_guarded_call@X@@QEAAX$$QEAV<lambda_886d6c58226a84441f68b9f2b8217b83>@@AEAV<lambda_ab61a845afdef5b7c387490eaf3616ee>@@$$QEAV<lambda_f7f22ab5edc0698d5f6905b0d3f44752>@@@Z@4HA 000000018006909e f   libucrt:fflush.obj
 0001:000680bb       ?fin$0@?0???$common_fsopen@_W@@YAPEAU_iobuf@@QEB_W0H@Z@4HA 00000001800690bb f   libucrt:fopen.obj
 0001:000680e6       fread_s$fin$0              00000001800690e6 f   libucrt:fread.obj
 0001:000680fe       ?fin$0@?0???$common_freopen@D@@YAHQEAPEAU_iobuf@@QEBD1V__crt_stdio_stream@@H@Z@4HA 00000001800690fe f   libucrt:freopen.obj
 0001:00068116       _query_new_handler$fin$0   0000000180069116 f   libucrt:new_handler.obj
 0001:0006812c       ?fin$0@?0???$?RV<lambda_0ae27a3a962d80f24befdcbee591983d>@@AEAV<lambda_8d0ee55de4b1038c4002e0adecdf1839>@@V<lambda_dc504788e8f1664fe9b84e20bfb512f2>@@@?$__crt_seh_guarded_call@X@@QEAAX$$QEAV<lambda_0ae27a3a962d80f24befdcbee591983d>@@AEAV<lambda_8d0ee55de4b1038c4002e0adecdf1839>@@$$QEAV<lambda_dc504788e8f1664fe9b84e20bfb512f2>@@@Z@4HA 000000018006912c f   libucrt:per_thread_data.obj
 0001:0006812c       ?fin$0@?0???$?RV<lambda_2d41944a1d46af3157314b8a01080d33>@@AEAV<lambda_8f455de75cd7d7f24b4096f044d8b9e6>@@V<lambda_aa500f224e6afead328df44964fe2772>@@@?$__crt_seh_guarded_call@X@@QEAAX$$QEAV<lambda_2d41944a1d46af3157314b8a01080d33>@@AEAV<lambda_8f455de75cd7d7f24b4096f044d8b9e6>@@$$QEAV<lambda_aa500f224e6afead328df44964fe2772>@@@Z@4HA 000000018006912c f   libucrt:per_thread_data.obj
 0001:0006812c       ?fin$0@?0???$?RV<lambda_aa87e3671a710a21b5dc78c0bdf72e11>@@AEAV<lambda_92619d2358a28f41a33ba319515a20b9>@@V<lambda_6992ecaafeb10aed2b74cb1fae11a551>@@@?$__crt_seh_guarded_call@X@@QEAAX$$QEAV<lambda_aa87e3671a710a21b5dc78c0bdf72e11>@@AEAV<lambda_92619d2358a28f41a33ba319515a20b9>@@$$QEAV<lambda_6992ecaafeb10aed2b74cb1fae11a551>@@@Z@4HA 000000018006912c f   libucrt:per_thread_data.obj
 0001:0006812c       ?fin$0@?0???$?RV<lambda_f2e299630e499de9f9a165e60fcd3db5>@@AEAV<lambda_2ae9d31cdba2644fcbeaf08da7c24588>@@V<lambda_40d01ff24d0e7b3814fdbdcee8eab3c7>@@@?$__crt_seh_guarded_call@X@@QEAAX$$QEAV<lambda_f2e299630e499de9f9a165e60fcd3db5>@@AEAV<lambda_2ae9d31cdba2644fcbeaf08da7c24588>@@$$QEAV<lambda_40d01ff24d0e7b3814fdbdcee8eab3c7>@@@Z@4HA 000000018006912c f   libucrt:per_thread_data.obj
 0001:0006812c       ?fin$0@?0???$?RV<lambda_450d765d439847d4c735a33c368b5fc0>@@AEAV<lambda_44731a7d0e6d81c3e6aa82d741081786>@@V<lambda_601a2a7da3b7a96e9554ac7215c4b07c>@@@?$__crt_seh_guarded_call@P6AXH@Z@@QEAAP6AXH@Z$$QEAV<lambda_450d765d439847d4c735a33c368b5fc0>@@AEAV<lambda_44731a7d0e6d81c3e6aa82d741081786>@@$$QEAV<lambda_601a2a7da3b7a96e9554ac7215c4b07c>@@@Z@4HA 000000018006912c f   libucrt:signal.obj
 0001:0006812c       ?fin$0@?0???$?RV<lambda_d80eeec6fff315bfe5c115232f3240e3>@@AEAV<lambda_6e4b09c48022b2350581041d5f6b0c4c>@@V<lambda_2358e3775559c9db80273638284d5e45>@@@?$__crt_seh_guarded_call@X@@QEAAX$$QEAV<lambda_d80eeec6fff315bfe5c115232f3240e3>@@AEAV<lambda_6e4b09c48022b2350581041d5f6b0c4c>@@$$QEAV<lambda_2358e3775559c9db80273638284d5e45>@@@Z@4HA 000000018006912c f   libucrt:exit.obj
 0001:0006812c       ?fin$0@?0???$?RV<lambda_638799b9deba96c50f710eeac98168cd>@@AEAV<lambda_22ebabd17bc4fa466a2aca6d8deb888d>@@V<lambda_a6f7d7db0129f75315ebf26d50c089f1>@@@?$__crt_seh_guarded_call@H@@QEAAH$$QEAV<lambda_638799b9deba96c50f710eeac98168cd>@@AEAV<lambda_22ebabd17bc4fa466a2aca6d8deb888d>@@$$QEAV<lambda_a6f7d7db0129f75315ebf26d50c089f1>@@@Z@4HA 000000018006912c f   libucrt:onexit.obj
 0001:0006812c       ?fin$0@?0???$?RV<lambda_7777bce6b2f8c936911f934f8298dc43>@@AEAV<lambda_f03950bc5685219e0bcd2087efbe011e>@@V<lambda_3883c3dff614d5e0c5f61bb1ac94921c>@@@?$__crt_seh_guarded_call@H@@QEAAH$$QEAV<lambda_7777bce6b2f8c936911f934f8298dc43>@@AEAV<lambda_f03950bc5685219e0bcd2087efbe011e>@@$$QEAV<lambda_3883c3dff614d5e0c5f61bb1ac94921c>@@@Z@4HA 000000018006912c f   libucrt:onexit.obj
 0001:00068146       ?filt$0@?0???R<lambda_6e4b09c48022b2350581041d5f6b0c4c>@@QEBA@XZ@4HA 0000000180069146 f   libucrt:exit.obj
 0001:00068173       ?fin$0@?0???$?RV<lambda_410d79af7f07d98d83a3f525b3859a53>@@AEAV<lambda_3e16ef9562a7dcce91392c22ab16ea36>@@V<lambda_38119f0e861e05405d8a144b9b982f0a>@@@?$__crt_seh_guarded_call@X@@QEAAX$$QEAV<lambda_410d79af7f07d98d83a3f525b3859a53>@@AEAV<lambda_3e16ef9562a7dcce91392c22ab16ea36>@@$$QEAV<lambda_38119f0e861e05405d8a144b9b982f0a>@@@Z@4HA 0000000180069173 f   libucrt:wsetlocale.obj
 0001:0006818d       ?fin$0@?0???$common_lseek@_J@@YA_JH_JHAEAV__crt_cached_ptd_host@@@Z@4HA 000000018006918d f   libucrt:lseek.obj
 0001:0006818d       _write_internal$fin$0      000000018006918d f   libucrt:write.obj
 0001:000681a4       _read$fin$0                00000001800691a4 f   libucrt:read.obj
 0001:000681bb       __acrt_initialize_lowio$fin$0 00000001800691bb f   libucrt:ioinit.obj
 0001:000681bb       __acrt_lowio_ensure_fh_exists$fin$0 00000001800691bb f   libucrt:osfinfo.obj
 0001:000681bb       _alloc_osfhnd$fin$0        00000001800691bb f   libucrt:osfinfo.obj
 0001:000681d4       _fcloseall$fin$0           00000001800691d4 f   libucrt:closeall.obj
 0001:000681d4       ?fin$0@?0??__acrt_stdio_allocate_stream@@YA?AV__crt_stdio_stream@@XZ@4HA 00000001800691d4 f   libucrt:stream.obj
 0001:000681ed       ?fin$0@?0???$?RV<lambda_ad8af0d99a0adf03d037d7dffe354bb5>@@AEAV<lambda_c9ba49e555ba839a7b07aa3fbecb7617>@@V<lambda_2f1ebd5d68526518146ae959c9e734c8>@@@?$__crt_seh_guarded_call@H@@QEAAH$$QEAV<lambda_ad8af0d99a0adf03d037d7dffe354bb5>@@AEAV<lambda_c9ba49e555ba839a7b07aa3fbecb7617>@@$$QEAV<lambda_2f1ebd5d68526518146ae959c9e734c8>@@@Z@4HA 00000001800691ed f   libucrt:close.obj
 0001:000681ed       ?fin$0@?0???$?RV<lambda_a37b2b86f63e897a80ea819b0eb08c01>@@AEAV<lambda_38ce7e780aa69e748d6df282ebc68efe>@@V<lambda_99fb1378e971ab6e7edea83e3a7a83a2>@@@?$__crt_seh_guarded_call@H@@QEAAH$$QEAV<lambda_a37b2b86f63e897a80ea819b0eb08c01>@@AEAV<lambda_38ce7e780aa69e748d6df282ebc68efe>@@$$QEAV<lambda_99fb1378e971ab6e7edea83e3a7a83a2>@@@Z@4HA 00000001800691ed f   libucrt:commit.obj
 0001:00068207       ?fin$0@?0???$?RV<lambda_efdfa57d1f175319df784efa44bb7b81>@@AEAV<lambda_5f0a4c1567f8adc6734073e5d1e1b35c>@@V<lambda_2e8a7d3640ea6ccb4c2413664c2db6fd>@@@?$__crt_seh_guarded_call@X@@QEAAX$$QEAV<lambda_efdfa57d1f175319df784efa44bb7b81>@@AEAV<lambda_5f0a4c1567f8adc6734073e5d1e1b35c>@@$$QEAV<lambda_2e8a7d3640ea6ccb4c2413664c2db6fd>@@@Z@4HA 0000000180069207 f   libucrt:mbctype.obj
 0001:00068221       ?fin$0@?0??update_thread_multibyte_data_internal@@YAPEAU__crt_multibyte_data@@QEAU__acrt_ptd@@QEAPEAU1@@Z@4HA 0000000180069221 f   libucrt:mbctype.obj
 0001:0006823a       raise$fin$0                000000018006923a f   libucrt:signal.obj
 0001:0006825b       __acrt_update_thread_locale_data$fin$0 000000018006925b f   libucrt:locale_refcounting.obj
 0001:00068274       ?fin$0@?0???$common_sopen_dispatch@D@@YAHQEBDHHHQEAHH@Z@4HA 0000000180069274 f   libucrt:open.obj
 0001:00068274       ?fin$0@?0???$common_sopen_dispatch@_W@@YAHQEB_WHHHQEAHH@Z@4HA 0000000180069274 f   libucrt:open.obj
 0001:000682ec       _ctrlfp$filt$0             00000001800692ec f   libucrt:fpctrl.obj
 0001:000682ec       common_control87$filt$0    00000001800692ec f   libucrt:ieee.obj
 0001:00068320       _IsNonwritableInCurrentImage$filt$0 0000000180069320 f   LIBCMT:pesect.obj
 0001:00068340       ??__FEntityList@@YAXXZ     0000000180069340 f   Aimbot.obj
 0001:000683b0       ??__FViewMatrix@@YAXXZ     00000001800693b0 f   Aimbot.obj
 0001:00068420       ??__FLocalPlayerController@@YAXXZ 0000000180069420 f   Aimbot.obj
 0001:00068490       ??__FLocalPlayerPawn@@YAXXZ 0000000180069490 f   Aimbot.obj
 0001:00068500       ??__FGameRules@@YAXXZ      0000000180069500 f   Aimbot.obj
 0001:00068570       ??__FpClippingWeapon@@YAXXZ 0000000180069570 f   Aimbot.obj
 0001:000685e0       ??__FvOldOrigin@@YAXXZ     00000001800695e0 f   Aimbot.obj
 0001:00068650       ??__FiTeamNum@@YAXXZ       0000000180069650 f   Aimbot.obj
 0001:000686c0       ??__FpArmorValue@@YAXXZ    00000001800696c0 f   Aimbot.obj
 0001:00068730       ??__FpGameSceneNode@@YAXXZ 0000000180069730 f   Aimbot.obj
 0001:000687a0       ??__FpBoneArray@@YAXXZ     00000001800697a0 f   Aimbot.obj
 0001:00068810       ??__FbPawnIsAlive@@YAXXZ   0000000180069810 f   Aimbot.obj
 0001:00068880       ??__FiHealth@@YAXXZ        0000000180069880 f   Aimbot.obj
 0001:000688f0       ??__FEntityIndex@@YAXXZ    00000001800698f0 f   Aimbot.obj
 0001:00068960       ??__FTrunk@BoneJointList@@YAXXZ 0000000180069960 f   Aimbot.obj
 0001:000689c0       ??__FLeftArm@BoneJointList@@YAXXZ 00000001800699c0 f   Aimbot.obj
 0001:00068a20       ??__FRightArm@BoneJointList@@YAXXZ 0000000180069a20 f   Aimbot.obj
 0001:00068a80       ??__FLeftLeg@BoneJointList@@YAXXZ 0000000180069a80 f   Aimbot.obj
 0001:00068ae0       ??__FRightLeg@BoneJointList@@YAXXZ 0000000180069ae0 f   Aimbot.obj
 0001:00068b40       ??__FList@BoneJointList@@YAXXZ 0000000180069b40 f   Aimbot.obj
 0001:00068bc0       ??__Fbuf_local@?1??GetClipboardTextFn_DefaultImpl@@YAPEBDPEAX@Z@YAXXZ 0000000180069bc0 f   imgui.obj
 0002:00000440       ?EntityList$initializer$@@3P6AXXZEA 000000018006a440     Aimbot.obj
 0002:00000448       ?ViewMatrix$initializer$@@3P6AXXZEA 000000018006a448     Aimbot.obj
 0002:00000450       ?LocalPlayerController$initializer$@@3P6AXXZEA 000000018006a450     Aimbot.obj
 0002:00000458       ?LocalPlayerPawn$initializer$@@3P6AXXZEA 000000018006a458     Aimbot.obj
 0002:00000460       ?GameRules$initializer$@@3P6AXXZEA 000000018006a460     Aimbot.obj
 0002:00000468       ?pClippingWeapon$initializer$@@3P6AXXZEA 000000018006a468     Aimbot.obj
 0002:00000470       ?vOldOrigin$initializer$@@3P6AXXZEA 000000018006a470     Aimbot.obj
 0002:00000478       ?iTeamNum$initializer$@@3P6AXXZEA 000000018006a478     Aimbot.obj
 0002:00000480       ?pArmorValue$initializer$@@3P6AXXZEA 000000018006a480     Aimbot.obj
 0002:00000488       ?pGameSceneNode$initializer$@@3P6AXXZEA 000000018006a488     Aimbot.obj
 0002:00000490       ?pBoneArray$initializer$@@3P6AXXZEA 000000018006a490     Aimbot.obj
 0002:00000498       ?bPawnIsAlive$initializer$@@3P6AXXZEA 000000018006a498     Aimbot.obj
 0002:000004a0       ?iHealth$initializer$@@3P6AXXZEA 000000018006a4a0     Aimbot.obj
 0002:000004a8       ?EntityIndex$initializer$@@3P6AXXZEA 000000018006a4a8     Aimbot.obj
 0002:000004b0       ?Manager$initializer$@@3P6AXXZEA 000000018006a4b0     Aimbot.obj
 0002:000004b8       ?Offsets$initializer$@@3P6AXXZEA 000000018006a4b8     Aimbot.obj
 0002:000004c0       ?Trunk$initializer$@BoneJointList@@3P6AXXZEA 000000018006a4c0     Aimbot.obj
 0002:000004c8       ?LeftArm$initializer$@BoneJointList@@3P6AXXZEA 000000018006a4c8     Aimbot.obj
 0002:000004d0       ?RightArm$initializer$@BoneJointList@@3P6AXXZEA 000000018006a4d0     Aimbot.obj
 0002:000004d8       ?LeftLeg$initializer$@BoneJointList@@3P6AXXZEA 000000018006a4d8     Aimbot.obj
 0002:000004e0       ?RightLeg$initializer$@BoneJointList@@3P6AXXZEA 000000018006a4e0     Aimbot.obj
 0002:000004e8       ?List$initializer$@BoneJointList@@3P6AXXZEA 000000018006a4e8     Aimbot.obj
 0002:000004f0       ?Entity$initializer$@@3P6AXXZEA 000000018006a4f0     Aimbot.obj
 0002:000004f8       ?Weapon$initializer$@@3P6AXXZEA 000000018006a4f8     Aimbot.obj
 0002:00000510       ?pinit@@3P6AHXZEA          000000018006a510     libcpmt:winapisupp.obj
 0002:000027c0       GS_ExceptionPointers       000000018006c7c0     LIBCMT:gs_report.obj
 0002:00002810       ?ExceptionTemplate@?1??UnwindNestedFrames@__FrameHandler4@@SAXPEA_KPEAUEHExceptionRecord@@PEAU_CONTEXT@@0PEAXPEAUFuncInfo4@FH4@@HHPEAUHandlerType4@6@PEAU_xDISPATCHER_CONTEXT@@E@Z@4U_EXCEPTION_RECORD@@B 000000018006c810     libvcruntime:risctrnsctrl.obj
 0002:000028b0       ?ExceptionTemplate@?1??UnwindNestedFrames@__FrameHandler3@@SAXPEA_KPEAUEHExceptionRecord@@PEAU_CONTEXT@@0PEAXPEBU_s_FuncInfo@@HHPEBU_s_HandlerType@@PEAU_xDISPATCHER_CONTEXT@@E@Z@4U_EXCEPTION_RECORD@@B 000000018006c8b0     libvcruntime:risctrnsctrl.obj
 0002:00002980       ?tokenTable@@3QBUStringLiteral@@B 000000018006c980     libvcruntime:undname.obj
 0002:00002a90       ?nameTable@@3QBUStringLiteral@@B 000000018006ca90     libvcruntime:undname.obj
 0002:00002fc0       ?rttiTable@@3QBUStringLiteral@@B 000000018006cfc0     libvcruntime:undname.obj
 0002:00003010       ?IndirectionName@@3QBUStringLiteral@@B 000000018006d010     libvcruntime:undname.obj
 0002:00003070       ?PrefixName@@3QBUStringLiteral@@B 000000018006d070     libvcruntime:undname.obj
 0002:00003740       ?module_names@?A0x14174aea@@3QBQEB_WB 000000018006d740     libvcruntime:winapi_downlevel.obj
 0002:00003800       ?candidate_modules@?1??try_get_FlsAlloc@@YAP6AKP6AXPEAX@Z@ZXZ@4QBW4module_id@?A0x14174aea@@B 000000018006d800     libvcruntime:winapi_downlevel.obj
 0002:00003818       ?candidate_modules@?1??try_get_FlsFree@@YAP6AHK@ZXZ@4QBW4module_id@?A0x14174aea@@B 000000018006d818     libvcruntime:winapi_downlevel.obj
 0002:00003828       ?candidate_modules@?1??try_get_FlsGetValue@@YAP6APEAXK@ZXZ@4QBW4module_id@?A0x14174aea@@B 000000018006d828     libvcruntime:winapi_downlevel.obj
 0002:00003840       ?candidate_modules@?1??try_get_FlsSetValue@@YAP6AHKPEAX@ZXZ@4QBW4module_id@?A0x14174aea@@B 000000018006d840     libvcruntime:winapi_downlevel.obj
 0002:00003858       ?candidate_modules@?1??try_get_InitializeCriticalSectionEx@@YAP6AHPEAU_RTL_CRITICAL_SECTION@@KK@ZXZ@4QBW4module_id@?A0x14174aea@@B 000000018006d858     libvcruntime:winapi_downlevel.obj
 0002:000046a8       $cppxdata$?try_cor_exit_process@@YAXI@Z 000000018006e6a8     libucrt:exit.obj
 0002:000046d0       $cppxdata$?common_exit@@YAXHW4_crt_exit_cleanup_mode@@W4_crt_exit_return_mode@@@Z 000000018006e6d0     libucrt:exit.obj
 0002:00004720       $cppxdata$__dcrt_uninitialize_environments_nolock 000000018006e720     libucrt:environment_initialization.obj
 0002:00004748       $cppxdata$_execute_onexit_table 000000018006e748     libucrt:onexit.obj
 0002:00004770       __acrt_initializers        000000018006e770     libucrt:initialization.obj
 0002:00004ef0       ?errtable@@3QBUerrentry@?A0x31fdb9ec@@B 000000018006eef0     libucrt:errno.obj
 0002:00005060       ?module_names@?A0x391cf84c@@3QBQEB_WB 000000018006f060     libucrt:winapi_thunks.obj
 0002:000055b8       ?candidate_modules@?1??try_get_AreFileApisANSI@@YAP6AHXZXZ@4QBW4module_id@?A0x391cf84c@@B 000000018006f5b8     libucrt:winapi_thunks.obj
 0002:000055d0       ?candidate_modules@?1??try_get_InitializeCriticalSectionEx@@YAP6AHPEAU_RTL_CRITICAL_SECTION@@KK@ZXZ@4QBW4module_id@?A0x391cf84c@@B 000000018006f5d0     libucrt:winapi_thunks.obj
 0002:000055d8       ?candidate_modules@?1??try_get_LCMapStringEx@@YAP6AHPEB_WK0HPEA_WHPEAU_nlsversioninfo@@PEAX_J@ZXZ@4QBW4module_id@?A0x391cf84c@@B 000000018006f5d8     libucrt:winapi_thunks.obj
 0002:000055f0       ?candidate_modules@?1??try_get_LocaleNameToLCID@@YAP6AKPEB_WK@ZXZ@4QBW4module_id@?A0x391cf84c@@B 000000018006f5f0     libucrt:winapi_thunks.obj
 0002:0000560c       ?candidate_modules@?1??try_get_AppPolicyGetProcessTerminationMethod@@YAP6AJPEAXPEAW4AppPolicyProcessTerminationMethod@@@ZXZ@4QBW4module_id@?A0x391cf84c@@B 000000018006f60c     libucrt:winapi_thunks.obj
 0002:00005638       $cppxdata$?write_double_translated_ansi_nolock@@YA?AUwrite_result@?A0x17268360@@HQEBDIAEAV__crt_cached_ptd_host@@@Z 000000018006f638     libucrt:write.obj
 0002:000056c0       ?strings@?1??fp_format_nan_or_infinity@@YAHW4__acrt_fp_class@@_NPEAD_K1@Z@4QAY03QEBDA 000000018006f6c0     libucrt:cvt.obj
 0002:00005fa8       ?_mb_locale_names@@3QBQEB_WB 000000018006ffa8     libucrt:mbctype.obj
 0002:00006010       ?LcidToLocaleNameTable@?A0x881e4c05@@3QBULcidToLocaleName@1@B 0000000180070010     libucrt:lcidtoname_downlevel.obj
 0002:00007a70       ?LocaleNameToIndexTable@?A0x881e4c05@@3QBULocaleNameIndex@1@B 0000000180071a70     libucrt:lcidtoname_downlevel.obj
 0002:00009340       __real_ninf                0000000180073340     libucrt:log10.obj
 0002:00009350       __real_inf                 0000000180073350     libucrt:log10.obj
 0002:00009360       __real_neg_qnan            0000000180073360     libucrt:log10.obj
 0002:00009370       __real_qnanbit             0000000180073370     libucrt:log10.obj
 0002:00009380       __int_1023                 0000000180073380     libucrt:log10.obj
 0002:00009390       __mask_001                 0000000180073390     libucrt:log10.obj
 0002:000093a0       __mask_mant                00000001800733a0     libucrt:log10.obj
 0002:000093b0       __mask_mant_top8           00000001800733b0     libucrt:log10.obj
 0002:000093c0       __mask_mant9               00000001800733c0     libucrt:log10.obj
 0002:000093d0       __real_log10_e             00000001800733d0     libucrt:log10.obj
 0002:000093e0       __real_log10_e_lead        00000001800733e0     libucrt:log10.obj
 0002:000093f0       __real_log10_e_tail        00000001800733f0     libucrt:log10.obj
 0002:00009400       __real_log10_2_lead        0000000180073400     libucrt:log10.obj
 0002:00009410       __real_log10_2_tail        0000000180073410     libucrt:log10.obj
 0002:00009420       __real_two                 0000000180073420     libucrt:log10.obj
 0002:00009430       __real_one                 0000000180073430     libucrt:log10.obj
 0002:00009440       __real_half                0000000180073440     libucrt:log10.obj
 0002:00009450       __mask_100                 0000000180073450     libucrt:log10.obj
 0002:00009460       __real_1_over_512          0000000180073460     libucrt:log10.obj
 0002:00009470       __real_1_over_2            0000000180073470     libucrt:log10.obj
 0002:00009480       __real_1_over_3            0000000180073480     libucrt:log10.obj
 0002:00009490       __real_1_over_4            0000000180073490     libucrt:log10.obj
 0002:000094a0       __real_1_over_5            00000001800734a0     libucrt:log10.obj
 0002:000094b0       __real_1_over_6            00000001800734b0     libucrt:log10.obj
 0002:000094c0       __real_neg_1023            00000001800734c0     libucrt:log10.obj
 0002:000094d0       __mask_2045                00000001800734d0     libucrt:log10.obj
 0002:000094e0       __real_threshold           00000001800734e0     libucrt:log10.obj
 0002:000094f0       __real_near_one_lt         00000001800734f0     libucrt:log10.obj
 0002:00009500       __real_near_one_gt         0000000180073500     libucrt:log10.obj
 0002:00009510       __real_min_norm            0000000180073510     libucrt:log10.obj
 0002:00009520       __real_notsign             0000000180073520     libucrt:log10.obj
 0002:00009530       __real_ca1                 0000000180073530     libucrt:log10.obj
 0002:00009540       __real_ca2                 0000000180073540     libucrt:log10.obj
 0002:00009550       __real_ca3                 0000000180073550     libucrt:log10.obj
 0002:00009560       __real_ca4                 0000000180073560     libucrt:log10.obj
 0002:00009570       __mask_lower               0000000180073570     libucrt:log10.obj
 0002:00009580       __flag_x_zero              0000000180073580     libucrt:log10.obj
 0002:00009584       __flag_x_neg               0000000180073584     libucrt:log10.obj
 0002:00009588       __flag_x_nan               0000000180073588     libucrt:log10.obj
 0002:0000add0       __real@433fffffffffffff    0000000180074dd0     libucrt:fpsr.obj
 0002:0000add8       __real@c33fffffffffffff    0000000180074dd8     libucrt:fpsr.obj
 0002:0000b230       ?GStyleVarInfo@@3QBUImGuiStyleVarInfo@@B 0000000180075230     imgui.obj
 0002:0000b344       ?STB_TEXTEDIT_NEWLINE@ImStb@@3GA 0000000180075344     imgui_widgets.obj
 0002:0000b348       ?GImAllocatorFreeFunc@@3P6AXPEAX0@ZEA 0000000180075348     imgui.obj
 0002:0000b350       ?GCrc32LookupTable@@3QBIB  0000000180075350     imgui.obj
 0002:0000b750       ?GImAllocatorAllocFunc@@3P6APEAX_KPEAX@ZEA 0000000180075750     imgui.obj
 0002:0000b760       ?proggy_clean_ttf_compressed_data_base85@@3QBDB 0000000180075760     imgui_draw.obj
 0002:0000e630       ?FONT_ATLAS_DEFAULT_TEX_DATA_PIXELS@@3QBDB 0000000180078630     imgui_draw.obj
 0002:0000f1a0       ?GDataTypeInfo@@3QBUImGuiDataTypeInfo@@B 00000001800791a0     imgui_widgets.obj
 0002:0000f290       ?FONT_ATLAS_DEFAULT_TEX_CURSOR_DATA@@3QAY02$$CBUImVec2@@A 0000000180079290     imgui_draw.obj
 0002:0000f430       ?ranges@?1??GetGlyphRangesDefault@ImFontAtlas@@QEAAPEBGXZ@4QBGB 0000000180079430     imgui_draw.obj
 0002:0000fce0       ?ids@?BL@??ColorEdit4@ImGui@@YA_NPEBDQEAMH@Z@4PAPEBDA 0000000180079ce0     imgui_widgets.obj
 0002:0000fd00       ?fmt_table_int@?BL@??ColorEdit4@ImGui@@YA_NPEBDQEAMH@Z@4PAY03PEBDA 0000000180079d00     imgui_widgets.obj
 0002:0000fd60       ?fmt_table_float@?BL@??ColorEdit4@ImGui@@YA_NPEBDQEAMH@Z@4PAY03PEBDA 0000000180079d60     imgui_widgets.obj
 0002:0000fdc0       ?min_steps@?1??GetMinimumStepAtDecimalPrecision@@YAMH@Z@4QBMB 0000000180079dc0     imgui_widgets.obj
 0002:00010390       ?atan_jby256@?1??atan2f@@9@9 000000018007a390     libucrt:atan2f.obj
 0002:00010b90       L_real_one                 000000018007ab90     libucrt:cosf.obj
 0002:00010ba0       L_one_half                 000000018007aba0     libucrt:cosf.obj
 0002:00010bb0       L_2bypi                    000000018007abb0     libucrt:cosf.obj
 0002:00010bc0       L_one_sixth                000000018007abc0     libucrt:cosf.obj
 0002:00010bd0       L_piby2                    000000018007abd0     libucrt:cosf.obj
 0002:00010be0       L_piby2_1                  000000018007abe0     libucrt:cosf.obj
 0002:00010bf0       L_piby2_1tail              000000018007abf0     libucrt:cosf.obj
 0002:00010c00       L_piby2_2                  000000018007ac00     libucrt:cosf.obj
 0002:00010c10       L_piby2_2tail              000000018007ac10     libucrt:cosf.obj
 0002:00010c20       L_large_x_sse2             000000018007ac20     libucrt:cosf.obj
 0002:00010c30       L_large_x_fma3             000000018007ac30     libucrt:cosf.obj
 0002:00010c40       L_sign_mask                000000018007ac40     libucrt:cosf.obj
 0002:00010c50       L__int_three               000000018007ac50     libucrt:cosf.obj
 0002:00010c60       L__min_norm_double         000000018007ac60     libucrt:cosf.obj
 0002:00010c70       L_two_to_neg_7             000000018007ac70     libucrt:cosf.obj
 0002:00010c80       L_two_to_neg_13            000000018007ac80     libucrt:cosf.obj
 0002:00010c90       L_two_to_32_float          000000018007ac90     libucrt:cosf.obj
 0002:00010c98       L_one_float                000000018007ac98     libucrt:cosf.obj
 0002:00010ca0       L_inf_mask_32              000000018007aca0     libucrt:cosf.obj
 0002:00010cc0       __flag_x_one_y_snan        000000018007acc0     libucrt:pow.obj
 0002:00010cc4       __flag_x_zero_z_inf        000000018007acc4     libucrt:pow.obj
 0002:00010cc8       __flag_x_nan               000000018007acc8     libucrt:pow.obj
 0002:00010ccc       __flag_y_nan               000000018007accc     libucrt:pow.obj
 0002:00010cd0       __flag_x_nan_y_nan         000000018007acd0     libucrt:pow.obj
 0002:00010cd4       __flag_x_neg_y_notint      000000018007acd4     libucrt:pow.obj
 0002:00010cd8       __flag_z_zero              000000018007acd8     libucrt:pow.obj
 0002:00010cdc       __flag_z_denormal          000000018007acdc     libucrt:pow.obj
 0002:00010ce0       __flag_z_inf               000000018007ace0     libucrt:pow.obj
 0002:00010cf0       __ay_max_bound             000000018007acf0     libucrt:pow.obj
 0002:00010cf8       __ay_min_bound             000000018007acf8     libucrt:pow.obj
 0002:00010d00       __sign_mask                000000018007ad00     libucrt:pow.obj
 0002:00010d08       __sign_and_exp_mask        000000018007ad08     libucrt:pow.obj
 0002:00010d10       __exp_mask                 000000018007ad10     libucrt:pow.obj
 0002:00010d18       __neg_inf                  000000018007ad18     libucrt:pow.obj
 0002:00010d20       __pos_inf                  000000018007ad20     libucrt:pow.obj
 0002:00010d28       __pos_one                  000000018007ad28     libucrt:pow.obj
 0002:00010d30       __pos_zero                 000000018007ad30     libucrt:pow.obj
 0002:00010d38       __exp_mant_mask            000000018007ad38     libucrt:pow.obj
 0002:00010d40       __mant_mask                000000018007ad40     libucrt:pow.obj
 0002:00010d48       __ind_pattern              000000018007ad48     libucrt:pow.obj
 0002:00010d50       __neg_qnan                 000000018007ad50     libucrt:pow.obj
 0002:00010d58       __qnan                     000000018007ad58     libucrt:pow.obj
 0002:00010d60       __qnan_set                 000000018007ad60     libucrt:pow.obj
 0002:00010d68       __neg_one                  000000018007ad68     libucrt:pow.obj
 0002:00010d70       __neg_zero                 000000018007ad70     libucrt:pow.obj
 0002:00010d78       __exp_shift                000000018007ad78     libucrt:pow.obj
 0002:00010d80       __exp_bias                 000000018007ad80     libucrt:pow.obj
 0002:00010d88       __exp_bias_m1              000000018007ad88     libucrt:pow.obj
 0002:00010d90       __yexp_53                  000000018007ad90     libucrt:pow.obj
 0002:00010d98       __mant_full                000000018007ad98     libucrt:pow.obj
 0002:00010da0       __1_before_mant            000000018007ada0     libucrt:pow.obj
 0002:00010da8       __mask_mant_all8           000000018007ada8     libucrt:pow.obj
 0002:00010db0       __mask_mant9               000000018007adb0     libucrt:pow.obj
 0002:00010dc0       __real_fffffffff8000000    000000018007adc0     libucrt:pow.obj
 0002:00010dd0       __mask_8000000000000000    000000018007add0     libucrt:pow.obj
 0002:00010de0       __real_4090040000000000    000000018007ade0     libucrt:pow.obj
 0002:00010df0       __real_C090C80000000000    000000018007adf0     libucrt:pow.obj
 0002:00010e00       __real_ninf                000000018007ae00     libucrt:pow.obj
 0002:00010e10       __real_inf                 000000018007ae10     libucrt:pow.obj
 0002:00010e20       __real_nan                 000000018007ae20     libucrt:pow.obj
 0002:00010e30       __real_mant                000000018007ae30     libucrt:pow.obj
 0002:00010e40       __mask_1023                000000018007ae40     libucrt:pow.obj
 0002:00010e50       __mask_001                 000000018007ae50     libucrt:pow.obj
 0002:00010e60       __real_log2_lead           000000018007ae60     libucrt:pow.obj
 0002:00010e70       __real_log2_tail           000000018007ae70     libucrt:pow.obj
 0002:00010e80       __real_two                 000000018007ae80     libucrt:pow.obj
 0002:00010e90       __real_one                 000000018007ae90     libucrt:pow.obj
 0002:00010ea0       __real_half                000000018007aea0     libucrt:pow.obj
 0002:00010eb0       __mask_100                 000000018007aeb0     libucrt:pow.obj
 0002:00010ec0       __real_1_over_2            000000018007aec0     libucrt:pow.obj
 0002:00010ed0       __real_1_over_3            000000018007aed0     libucrt:pow.obj
 0002:00010ee0       __real_1_over_4            000000018007aee0     libucrt:pow.obj
 0002:00010ef0       __real_1_over_5            000000018007aef0     libucrt:pow.obj
 0002:00010f00       __real_1_over_6            000000018007af00     libucrt:pow.obj
 0002:00010f10       __real_1_over_7            000000018007af10     libucrt:pow.obj
 0002:00010f20       __mask_1023_f              000000018007af20     libucrt:pow.obj
 0002:00010f30       __mask_2045                000000018007af30     libucrt:pow.obj
 0002:00010f40       __real_threshold           000000018007af40     libucrt:pow.obj
 0002:00010f50       __real_notsign             000000018007af50     libucrt:pow.obj
 0002:00010f60       __log_F_inv_head           000000018007af60     libucrt:pow.obj
 0002:00011770       __log_F_inv_tail           000000018007b770     libucrt:pow.obj
 0002:00011f80       __denormal_threshold       000000018007bf80     libucrt:pow.obj
 0002:00011f90       __enable_almost_inf        000000018007bf90     libucrt:pow.obj
 0002:00011fa0       __real_zero                000000018007bfa0     libucrt:pow.obj
 0002:00011fb0       __real_smallest_denormal   000000018007bfb0     libucrt:pow.obj
 0002:00011fc0       __denormal_tiny_threshold  000000018007bfc0     libucrt:pow.obj
 0002:00011fd0       __real_p65536              000000018007bfd0     libucrt:pow.obj
 0002:00011fe0       __real_m68800              000000018007bfe0     libucrt:pow.obj
 0002:00011ff0       __real_64_by_log2          000000018007bff0     libucrt:pow.obj
 0002:00012000       __real_log2_by_64_head     000000018007c000     libucrt:pow.obj
 0002:00012010       __real_log2_by_64_tail     000000018007c010     libucrt:pow.obj
 0002:00012020       __real_1_by_720            000000018007c020     libucrt:pow.obj
 0002:00012030       __real_1_by_120            000000018007c030     libucrt:pow.obj
 0002:00012040       __real_1_by_24             000000018007c040     libucrt:pow.obj
 0002:00012050       __real_1_by_6              000000018007c050     libucrt:pow.obj
 0002:00012060       __real_1_by_2              000000018007c060     libucrt:pow.obj
 0002:00012070       __flag_x_one_y_snan        000000018007c070     libucrt:powf.obj
 0002:00012074       __flag_x_zero_z_inf        000000018007c074     libucrt:powf.obj
 0002:00012078       __flag_x_nan               000000018007c078     libucrt:powf.obj
 0002:0001207c       __flag_y_nan               000000018007c07c     libucrt:powf.obj
 0002:00012080       __flag_x_nan_y_nan         000000018007c080     libucrt:powf.obj
 0002:00012084       __flag_x_neg_y_notint      000000018007c084     libucrt:powf.obj
 0002:00012088       __flag_z_zero              000000018007c088     libucrt:powf.obj
 0002:0001208c       __flag_z_denormal          000000018007c08c     libucrt:powf.obj
 0002:00012090       __flag_z_inf               000000018007c090     libucrt:powf.obj
 0002:00012094       L__1_by_3                  000000018007c094     libucrt:powf.obj
 0002:0001209c       L__log2                    000000018007c09c     libucrt:powf.obj
 0002:000120a4       L__max_exp_arg             000000018007c0a4     libucrt:powf.obj
 0002:000120ac       L__min_exp_arg             000000018007c0ac     libucrt:powf.obj
 0002:000120b4       L__real_log2_by_64         000000018007c0b4     libucrt:powf.obj
 0002:000120bc       L__1_by_6                  000000018007c0bc     libucrt:powf.obj
 0002:000120c4       L__real_threshold          000000018007c0c4     libucrt:powf.obj
 0002:000120cc       L__real_one                000000018007c0cc     libucrt:powf.obj
 0002:000120d4       L__real_two                000000018007c0d4     libucrt:powf.obj
 0002:000120dc       L__neg_zero                000000018007c0dc     libucrt:powf.obj
 0002:000120f0       L__real_ca42               000000018007c0f0     libucrt:powf.obj
 0002:000120f8       L__real_ca4                000000018007c0f8     libucrt:powf.obj
 0002:00012100       L__real_ca31               000000018007c100     libucrt:powf.obj
 0002:00012108       L__real_ca3                000000018007c108     libucrt:powf.obj
 0002:00012110       L__clear_sign              000000018007c110     libucrt:powf.obj
 0002:00012120       L__real_64_by_log2         000000018007c120     libucrt:powf.obj
 0002:00012130       L__1_by_2                  000000018007c130     libucrt:powf.obj
 0002:00012140       L__1023                    000000018007c140     libucrt:powf.obj
 0002:00012150       L__xexp_bits_xmantissa_bits 000000018007c150     libucrt:powf.obj
 0002:00012970       L_signbit                  000000018007c970     libucrt:sinf.obj
 0002:00012980       L_sign_mask                000000018007c980     libucrt:sinf.obj
 0002:00012990       L_one                      000000018007c990     libucrt:sinf.obj
 0002:000129a0       L_int_three                000000018007c9a0     libucrt:sinf.obj
 0002:000129b0       L_one_half                 000000018007c9b0     libucrt:sinf.obj
 0002:000129c0       L_twobypi                  000000018007c9c0     libucrt:sinf.obj
 0002:000129d0       L_piby2_1                  000000018007c9d0     libucrt:sinf.obj
 0002:000129e0       L_one_sixth                000000018007c9e0     libucrt:sinf.obj
 0002:000129f0       L_piby2_1tail              000000018007c9f0     libucrt:sinf.obj
 0002:00012a00       L_piby2_2                  000000018007ca00     libucrt:sinf.obj
 0002:00012a10       L_piby2_2tail              000000018007ca10     libucrt:sinf.obj
 0002:00012a20       L_inf_mask_32              000000018007ca20     libucrt:sinf.obj
 0002:00012a30       L_int_two                  000000018007ca30     libucrt:sinf.obj
 0002:00012a40       L_piby2_lead               000000018007ca40     libucrt:sinf.obj
 0002:00012a50       L_piby4                    000000018007ca50     libucrt:sinf.obj
 0002:00012a60       L_mask_3f2                 000000018007ca60     libucrt:sinf.obj
 0002:00012a70       L_mask_3f8                 000000018007ca70     libucrt:sinf.obj
 0002:00012a80       L_large_x_fma3             000000018007ca80     libucrt:sinf.obj
 0002:00012a88       L_large_x_sse2             000000018007ca88     libucrt:sinf.obj
 0002:00012a90       L_near_one                 000000018007ca90     libucrt:sinf.obj
 0002:00012a98       L_two_to_32                000000018007ca98     libucrt:sinf.obj
 0002:00012ab0       L__piby2                   000000018007cab0     libucrt:remainder_piby2f_forasm.obj
 0002:00012ac0       L_piby2_lead               000000018007cac0     libucrt:remainder_piby2_forfma3.obj
 0002:00012ad0       L_fff800                   000000018007cad0     libucrt:remainder_piby2_forfma3.obj
 0002:00012ae0       L_piby2_part1              000000018007cae0     libucrt:remainder_piby2_forfma3.obj
 0002:00012af0       L_piby2_part2              000000018007caf0     libucrt:remainder_piby2_forfma3.obj
 0002:00012b00       L_piby2_part3              000000018007cb00     libucrt:remainder_piby2_forfma3.obj
 0002:00012b10       L_piby2_1                  000000018007cb10     libucrt:remainder_piby2_forfma3.obj
 0002:00012b20       L_piby2_2                  000000018007cb20     libucrt:remainder_piby2_forfma3.obj
 0002:00012b30       L_piby2_3                  000000018007cb30     libucrt:remainder_piby2_forfma3.obj
 0002:00012b40       L_piby2_1tail              000000018007cb40     libucrt:remainder_piby2_forfma3.obj
 0002:00012b50       L_piby2_2tail              000000018007cb50     libucrt:remainder_piby2_forfma3.obj
 0002:00012b60       L_piby2_3tail              000000018007cb60     libucrt:remainder_piby2_forfma3.obj
 0002:00012b70       L_sign_mask                000000018007cb70     libucrt:remainder_piby2_forfma3.obj
 0002:00012b80       L_twobypi                  000000018007cb80     libucrt:remainder_piby2_forfma3.obj
 0002:00012b90       L_point_five               000000018007cb90     libucrt:remainder_piby2_forfma3.obj
 0002:00012ba0       L_int_three                000000018007cba0     libucrt:remainder_piby2_forfma3.obj
 0002:00012bb0       L_inf_mask_64              000000018007cbb0     libucrt:remainder_piby2_forfma3.obj
 0002:00012bc0       L_signbit                  000000018007cbc0     libucrt:remainder_piby2_forfma3.obj
 0002:00012bd0       L_r                        000000018007cbd0     libucrt:remainder_piby2_forfma3.obj
 0002:00012be0       L_xc1                      000000018007cbe0     libucrt:remainder_piby2_forfma3.obj
 0002:00012bf0       L_xc2                      000000018007cbf0     libucrt:remainder_piby2_forfma3.obj
 0002:00012c00       L_xc3                      000000018007cc00     libucrt:remainder_piby2_forfma3.obj
 0002:00012c10       L_sigma                    000000018007cc10     libucrt:remainder_piby2_forfma3.obj
 0002:00014350       L__piby2                   000000018007e350     libucrt:remainder_piby2f_forc.obj
 0002:00014360       L__2_by_pi_bits            000000018007e360     libucrt:remainder_piby2f_forc.obj
 0002:00014580       SetSmall                   000000018007e580     libvcruntime:memset.obj
 0002:000145c0       SetSmallYmm                000000018007e5c0     libvcruntime:memset.obj
 0002:000145e4       SetSmallYmmNT              000000018007e5e4     libvcruntime:memset.obj
 0002:00014608       SetSmallXmm                000000018007e608     libvcruntime:memset.obj
 0002:00014630       MoveSmall                  000000018007e630     libvcruntime:memcpy.obj
 0002:00014670       MoveSmallYmm               000000018007e670     libvcruntime:memcpy.obj
 0002:00014694       MoveSmallYmmNT             000000018007e694     libvcruntime:memcpy.obj
 0002:000146b8       MoveSmallXmm               000000018007e6b8     libvcruntime:memcpy.obj
 0002:000159f8       $unwind$??0bad_alloc@std@@QEAA@AEBV01@@Z 000000018007f9f8     Aimbot.obj
 0002:000159f8       $unwind$??0bad_array_new_length@std@@QEAA@AEBV01@@Z 000000018007f9f8     Aimbot.obj
 0002:000159f8       $unwind$??0exception@std@@QEAA@AEBV01@@Z 000000018007f9f8     Aimbot.obj
 0002:000159f8       $unwind$??1?$basic_string@DU?$char_traits@D@std@@V?$allocator@D@2@@std@@QEAA@XZ 000000018007f9f8     Aimbot.obj
 0002:000159f8       $unwind$??1?$vector@UBoneJointPos@@V?$allocator@UBoneJointPos@@@std@@@std@@QEAA@XZ 000000018007f9f8     Aimbot.obj
 0002:000159f8       $unwind$??1WeaponEntity@@QEAA@XZ 000000018007f9f8     Aimbot.obj
 0002:000159f8       $unwind$??__EManager@@YAXXZ 000000018007f9f8     Aimbot.obj
 0002:000159f8       $unwind$?_Tidy@?$vector@V?$list@KV?$allocator@K@std@@@std@@V?$allocator@V?$list@KV?$allocator@K@std@@@std@@@2@@std@@AEAAXXZ 000000018007f9f8     Aimbot.obj
 0002:000159f8       $unwind$??1?$vector@EV?$allocator@E@std@@@std@@QEAA@XZ 000000018007f9f8     Memory.obj
 0002:000159f8       $unwind$?BeginPopup@ImGui@@YA_NPEBDH@Z 000000018007f9f8     imgui.obj
 0002:000159f8       $unwind$?CloseCurrentPopup@ImGui@@YAXXZ 000000018007f9f8     imgui.obj
 0002:000159f8       $unwind$?EndDragDropSource@ImGui@@YAXXZ 000000018007f9f8     imgui.obj
 0002:000159f8       $unwind$?LogFinish@ImGui@@YAXXZ 000000018007f9f8     imgui.obj
 0002:000159f8       $unwind$?PopClipRect@ImGui@@YAXXZ 000000018007f9f8     imgui.obj
 0002:000159f8       $unwind$?PopFont@ImGui@@YAXXZ 000000018007f9f8     imgui.obj
 0002:000159f8       $unwind$?PushClipRect@ImGui@@YAXAEBUImVec2@@0_N@Z 000000018007f9f8     imgui.obj
 0002:000159f8       $unwind$?UpdateMouseMovingWindowEndFrame@ImGui@@YAXXZ 000000018007f9f8     imgui.obj
 0002:000159f8       $unwind$?stb__lit@@YAXPEBEI@Z 000000018007f9f8     imgui_draw.obj
 0002:000159f8       $unwind$?stb_decompress_token@@YAPEBEPEBE@Z 000000018007f9f8     imgui_draw.obj
 0002:000159f8       $unwind$?stbtt__csctx_rmove_to@@YAXPEAUstbtt__csctx@@MM@Z 000000018007f9f8     imgui_draw.obj
 0002:000159f8       $unwind$?stb_textedit_delete_selection@ImStb@@YAXPEAUImGuiInputTextState@@PEAUSTB_TexteditState@1@@Z 000000018007f9f8     imgui_widgets.obj
 0002:000159f8       $unwind$_calloc_base       000000018007f9f8     libucrt:calloc_base.obj
 0002:000159f8       $unwind$_malloc_base       000000018007f9f8     libucrt:malloc_base.obj
 0002:000159f8       $unwind$initialize_pointers 000000018007f9f8     libucrt:initialization.obj
 0002:000159f8       $unwind$uninitialize_allocated_memory 000000018007f9f8     libucrt:initialization.obj
 0002:000159f8       $unwind$__acrt_initialize_locks 000000018007f9f8     libucrt:locks.obj
 0002:000159f8       $unwind$__acrt_uninitialize_locks 000000018007f9f8     libucrt:locks.obj
 0002:000159f8       $unwind$__acrt_freeptd     000000018007f9f8     libucrt:per_thread_data.obj
 0002:000159f8       $unwind$__acrt_getptd_head 000000018007f9f8     libucrt:per_thread_data.obj
 0002:000159f8       $unwind$__acrt_get_process_end_policy 000000018007f9f8     libucrt:win_policies.obj
 0002:000159f8       $unwind$__acrt_AppPolicyGetProcessTerminationMethodInternal 000000018007f9f8     libucrt:winapi_thunks.obj
 0002:000159f8       $unwind$__acrt_uninitialize_winapi_thunks 000000018007f9f8     libucrt:winapi_thunks.obj
 0002:000159f8       $unwind$__acrt_update_locale_info 000000018007f9f8     libucrt:locale_update.obj
 0002:000159f8       $unwind$__acrt_update_locale_info_explicit 000000018007f9f8     libucrt:locale_update.obj
 0002:000159f8       $unwind$__acrt_update_multibyte_info 000000018007f9f8     libucrt:locale_update.obj
 0002:000159f8       $unwind$__acrt_update_multibyte_info_explicit 000000018007f9f8     libucrt:locale_update.obj
 0002:000159f8       $unwind$__acrt_errno_map_os_error 000000018007f9f8     libucrt:errno.obj
 0002:000159f8       $unwind$__acrt_errno_map_os_error_ptd 000000018007f9f8     libucrt:errno.obj
 0002:000159f8       $unwind$__acrt_allocate_buffer_for_argv 000000018007f9f8     libucrt:argv_parsing.obj
 0002:000159f8       $unwind$?exit_or_terminate_process@@YAXI@Z 000000018007f9f8     libucrt:exit.obj
 0002:000159f8       $unwind$__acrt_uninitialize_stdio 000000018007f9f8     libucrt:_file.obj
 0002:000159f8       $unwind$?stream_is_at_end_of_file_nolock@@YA_NV__crt_stdio_stream@@@Z 000000018007f9f8     libucrt:_flsbuf.obj
 0002:000159f8       $unwind$__acrt_stdio_free_buffer_nolock 000000018007f9f8     libucrt:_freebuf.obj
 0002:000159f8       $unwind$__acrt_should_use_temporary_buffer 000000018007f9f8     libucrt:_sftbuf.obj
 0002:000159f8       $unwind$?scan_optional_field_width@?$format_string_parser@D@__crt_stdio_input@@AEAA_NXZ 000000018007f9f8     libucrt:input.obj
 0002:000159f8       $unwind$?type_case_s@?$output_processor@DV?$string_output_adapter@D@__crt_stdio_output@@V?$standard_base@DV?$string_output_adapter@D@__crt_stdio_output@@@2@@__crt_stdio_output@@AEAA_NXZ 000000018007f9f8     libucrt:output.obj
 0002:000159f8       $unwind$strcpy_s           000000018007f9f8     libucrt:strcpy_s.obj
 0002:000159f8       $unwind$_clrfp             000000018007f9f8     libucrt:fpctrl.obj
 0002:000159f8       $unwind$_set_statfp        000000018007f9f8     libucrt:fpctrl.obj
 0002:000159f8       $unwind$_clearfp           000000018007f9f8     libucrt:ieee.obj
 0002:000159f8       $unwind$_controlfp_s       000000018007f9f8     libucrt:contrlfp.obj
 0002:000159f8       $unwind$fegetenv           000000018007f9f8     libucrt:fegetenv.obj
 0002:000159f8       $unwind$feholdexcept       000000018007f9f8     libucrt:feholdexcept.obj
 0002:000159f8       $unwind$__raise_securityfailure 000000018007f9f8     LIBCMT:gs_report.obj
 0002:000159f8       $unwind$??2@YAPEAX_K@Z     000000018007f9f8     LIBCMT:new_scalar.obj
 0002:000159f8       $unwind$??_Gtype_info@@UEAAPEAXI@Z 000000018007f9f8     LIBCMT:std_type_info_static.obj
 0002:000159f8       $unwind$_Init_thread_footer 000000018007f9f8     LIBCMT:thread_safe_statics.obj
 0002:000159f8       $unwind$_Init_thread_header 000000018007f9f8     LIBCMT:thread_safe_statics.obj
 0002:000159f8       $unwind$__scrt_initialize_onexit_tables 000000018007f9f8     LIBCMT:utility.obj
 0002:000159f8       $unwind$__scrt_release_startup_lock 000000018007f9f8     LIBCMT:utility.obj
 0002:000159f8       $unwind$__scrt_uninitialize_crt 000000018007f9f8     LIBCMT:utility.obj
 0002:000159f8       $unwind$_onexit            000000018007f9f8     LIBCMT:utility.obj
 0002:000159f8       $unwind$?initialize_pointers@@YAHXZ 000000018007f9f8     libcpmt:winapisupp.obj
 0002:000159f8       $unwind$??0length_error@std@@QEAA@AEBV01@@Z 000000018007f9f8     libcpmt:xthrow.obj
 0002:000159f8       $unwind$??0logic_error@std@@QEAA@AEBV01@@Z 000000018007f9f8     libcpmt:xthrow.obj
 0002:000159f8       $unwind$??0out_of_range@std@@QEAA@AEBV01@@Z 000000018007f9f8     libcpmt:xthrow.obj
 0002:000159f8       $unwind$_IsExceptionObjectToBeDestroyed 000000018007f9f8     libvcruntime:ehhelpers.obj
 0002:000159f8       $unwind$?GetUnwindTryBlock@__FrameHandler3@@SAHPEA_KPEAU_xDISPATCHER_CONTEXT@@PEBU_s_FuncInfo@@@Z 000000018007f9f8     libvcruntime:ehstate.obj
 0002:000159f8       $unwind$?StateFromIp@__FrameHandler3@@SAHPEBU_s_FuncInfo@@PEAU_xDISPATCHER_CONTEXT@@_K@Z 000000018007f9f8     libvcruntime:ehstate.obj
 0002:000159f8       $unwind$??0HandlerMap4@FH4@@QEAA@PEBUTryBlockMapEntry4@1@_KH@Z 000000018007f9f8     libvcruntime:frame.obj
 0002:000159f8       $unwind$??0bad_exception@std@@QEAA@AEBV01@@Z 000000018007f9f8     libvcruntime:frame.obj
 0002:000159f8       $unwind$?ExFilterRethrow@@YAHPEAU_EXCEPTION_POINTERS@@PEAUEHExceptionRecord@@PEAH@Z 000000018007f9f8     libvcruntime:frame.obj
 0002:000159f8       $unwind$__vcrt_initialize_locks 000000018007f9f8     libvcruntime:locks.obj
 0002:000159f8       $unwind$__vcrt_uninitialize_locks 000000018007f9f8     libvcruntime:locks.obj
 0002:000159f8       $unwind$__vcrt_freeptd_for_this_thread 000000018007f9f8     libvcruntime:per_thread_data.obj
 0002:000159f8       $unwind$?ExecutionInCatch@__FrameHandler3@@SA_NPEAU_xDISPATCHER_CONTEXT@@PEBU_s_FuncInfo@@@Z 000000018007f9f8     libvcruntime:risctrnsctrl.obj
 0002:000159f8       $unwind$_CreateFrameInfo   000000018007f9f8     libvcruntime:risctrnsctrl.obj
 0002:000159f8       $unwind$_SetImageBase      000000018007f9f8     libvcruntime:risctrnsctrl.obj
 0002:000159f8       $unwind$_SetThrowImageBase 000000018007f9f8     libvcruntime:risctrnsctrl.obj
 0002:000159f8       $unwind$__std_exception_destroy 000000018007f9f8     libvcruntime:std_exception.obj
 0002:000159f8       $unwind$__std_type_info_destroy_list 000000018007f9f8     libvcruntime:std_type_info.obj
 0002:000159f8       $unwind$__vcrt_FlsAlloc    000000018007f9f8     libvcruntime:winapi_downlevel.obj
 0002:000159f8       $unwind$__vcrt_FlsFree     000000018007f9f8     libvcruntime:winapi_downlevel.obj
 0002:000159f8       $unwind$__vcrt_FlsGetValue 000000018007f9f8     libvcruntime:winapi_downlevel.obj
 0002:00015a00       $unwind$??_Gbad_alloc@std@@UEAAPEAXI@Z 000000018007fa00     Aimbot.obj
 0002:00015a00       $unwind$??_Gbad_array_new_length@std@@UEAAPEAXI@Z 000000018007fa00     Aimbot.obj
 0002:00015a00       $unwind$??_Gexception@std@@UEAAPEAXI@Z 000000018007fa00     Aimbot.obj
 0002:00015a00       $unwind$??1CEntity@@QEAA@XZ 000000018007fa00     Entity.obj
 0002:00015a00       $unwind$??4?$basic_string@DU?$char_traits@D@std@@V?$allocator@D@2@@std@@QEAAAEAV01@$$QEAV01@@Z 000000018007fa00     Entity.obj
 0002:00015a00       $unwind$?now@steady_clock@chrono@std@@SA?AV?$time_point@Usteady_clock@chrono@std@@V?$duration@_JU?$ratio@$00$0DLJKMKAA@@std@@@23@@23@XZ 000000018007fa00     TriggerBot.obj
 0002:00015a00       $unwind$??0ImGuiIO@@QEAA@XZ 000000018007fa00     imgui.obj
 0002:00015a00       $unwind$?AddDrawListToDrawData@@YAXPEAU?$ImVector@PEAUImDrawList@@@@PEAUImDrawList@@@Z 000000018007fa00     imgui.obj
 0002:00015a00       $unwind$?BeginDragDropTarget@ImGui@@YA_NXZ 000000018007fa00     imgui.obj
 0002:00015a00       $unwind$?ClearDragDrop@ImGui@@YAXXZ 000000018007fa00     imgui.obj
 0002:00015a00       $unwind$?End@ImGui@@YAXXZ  000000018007fa00     imgui.obj
 0002:00015a00       $unwind$?FocusWindow@ImGui@@YAXPEAUImGuiWindow@@@Z 000000018007fa00     imgui.obj
 0002:00015a00       $unwind$?GcCompactTransientWindowBuffers@ImGui@@YAXPEAUImGuiWindow@@@Z 000000018007fa00     imgui.obj
 0002:00015a00       $unwind$?PushID@ImGui@@YAXH@Z 000000018007fa00     imgui.obj
 0002:00015a00       $unwind$?PushID@ImGui@@YAXPEBX@Z 000000018007fa00     imgui.obj
 0002:00015a00       $unwind$?PushItemFlag@ImGui@@YAXH_N@Z 000000018007fa00     imgui.obj
 0002:00015a00       $unwind$?StartMouseMovingWindow@ImGui@@YAXPEAUImGuiWindow@@@Z 000000018007fa00     imgui.obj
 0002:00015a00       $unwind$?push_back@?$ImVector@H@@QEAAXAEBH@Z 000000018007fa00     imgui.obj
 0002:00015a00       $unwind$?push_back@?$ImVector@UImGuiPopupData@@@@QEAAXAEBUImGuiPopupData@@@Z 000000018007fa00     imgui.obj
 0002:00015a00       $unwind$?resize@?$ImVector@D@@QEAAXH@Z 000000018007fa00     imgui.obj
 0002:00015a00       $unwind$?resize@?$ImVector@G@@QEAAXH@Z 000000018007fa00     imgui.obj
 0002:00015a00       $unwind$?ClearFreeMemory@ImDrawList@@QEAAXXZ 000000018007fa00     imgui_draw.obj
 0002:00015a00       $unwind$?ClearOutputData@ImFont@@QEAAXXZ 000000018007fa00     imgui_draw.obj
 0002:00015a00       $unwind$??$common_initialize_environment_nolock@D@@YAHXZ 000000018007fa00     libucrt:environment_initialization.obj
 0002:00015a00       $unwind$isspace            000000018007fa00     libucrt:_ctype.obj
 0002:00015a00       $unwind$_callnewh          000000018007fa00     libucrt:new_handler.obj
 0002:00015a00       $unwind$_realloc_base      000000018007fa00     libucrt:realloc_base.obj
 0002:00015a00       $unwind$?replace_current_thread_locale_nolock@@YAXQEAU__acrt_ptd@@QEAU__crt_locale_data@@@Z 000000018007fa00     libucrt:per_thread_data.obj
 0002:00015a00       $unwind$__acrt_execute_uninitializers 000000018007fa00     libucrt:shared_initialization.obj
 0002:00015a00       $unwind$__acrt_LocaleNameToLCID 000000018007fa00     libucrt:winapi_thunks.obj
 0002:00015a00       $unwind$?free_crt_array_internal@@YAXQEAPEBX_K@Z 000000018007fa00     libucrt:inittime.obj
 0002:00015a00       $unwind$_updatetlocinfoEx_nolock 000000018007fa00     libucrt:locale_refcounting.obj
 0002:00015a00       $unwind$__acrt_uninitialize_lowio 000000018007fa00     libucrt:ioinit.obj
 0002:00015a00       $unwind$?setSBCS@@YAXPEAU__crt_multibyte_data@@@Z 000000018007fa00     libucrt:mbctype.obj
 0002:00015a00       $unwind$_initterm_e        000000018007fa00     libucrt:initterm.obj
 0002:00015a00       $unwind$__acrt_stdio_allocate_buffer_nolock 000000018007fa00     libucrt:_getbuf.obj
 0002:00015a00       $unwind$__acrt_stdio_begin_temporary_buffering_nolock 000000018007fa00     libucrt:_sftbuf.obj
 0002:00015a00       $unwind$?common_fseek_binary_mode_read_only_fast_track_nolock@@YA_NV__crt_stdio_stream@@_JH@Z 000000018007fa00     libucrt:fseek.obj
 0002:00015a00       $unwind$?process_conversion_specifier@?$input_processor@DV?$string_input_adapter@D@__crt_stdio_input@@@__crt_stdio_input@@AEAA_NXZ 000000018007fa00     libucrt:input.obj
 0002:00015a00       $unwind$?process_floating_point_specifier@?$input_processor@DV?$string_input_adapter@D@__crt_stdio_input@@@__crt_stdio_input@@AEAA_NXZ 000000018007fa00     libucrt:input.obj
 0002:00015a00       $unwind$?process_literal_character_tchar@?$input_processor@DV?$string_input_adapter@D@__crt_stdio_input@@@__crt_stdio_input@@AEAA_ND@Z 000000018007fa00     libucrt:input.obj
 0002:00015a00       $unwind$?process_state@?$input_processor@DV?$string_input_adapter@D@__crt_stdio_input@@@__crt_stdio_input@@AEAA_NXZ 000000018007fa00     libucrt:input.obj
 0002:00015a00       $unwind$?write_integer@?$input_processor@DV?$string_input_adapter@D@__crt_stdio_input@@@__crt_stdio_input@@AEAA_N_K@Z 000000018007fa00     libucrt:input.obj
 0002:00015a00       $unwind$_RTC_Initialize    000000018007fa00     LIBCMT:initsect.obj
 0002:00015a00       $unwind$_RTC_Terminate     000000018007fa00     LIBCMT:initsect.obj
 0002:00015a00       $unwind$??_Glength_error@std@@UEAAPEAXI@Z 000000018007fa00     libcpmt:xthrow.obj
 0002:00015a00       $unwind$??_Glogic_error@std@@UEAAPEAXI@Z 000000018007fa00     libcpmt:xthrow.obj
 0002:00015a00       $unwind$??_Gout_of_range@std@@UEAAPEAXI@Z 000000018007fa00     libcpmt:xthrow.obj
 0002:00015a00       $unwind$__C_specific_handler_noexcept 000000018007fa00     libvcruntime:chandler_noexcept.obj
 0002:00015a00       $unwind$__FrameUnwindFilter 000000018007fa00     libvcruntime:ehhelpers.obj
 0002:00015a00       $unwind$?SetUnwindTryBlock@__FrameHandler3@@SAXPEA_KPEAU_xDISPATCHER_CONTEXT@@PEBU_s_FuncInfo@@H@Z 000000018007fa00     libvcruntime:ehstate.obj
 0002:00015a00       $unwind$??_Gbad_exception@std@@UEAAPEAXI@Z 000000018007fa00     libvcruntime:frame.obj
 0002:00015a00       $unwind$?ExFilterRethrowFH4@@YAHPEAU_EXCEPTION_POINTERS@@PEAUEHExceptionRecord@@HPEAH@Z 000000018007fa00     libvcruntime:frame.obj
 0002:00015a00       $unwind$_FindAndUnlinkFrame 000000018007fa00     libvcruntime:risctrnsctrl.obj
 0002:00015a00       $unwind$__vcrt_FlsSetValue 000000018007fa00     libvcruntime:winapi_downlevel.obj
 0002:00015a0c       $unwind$?_Throw_bad_array_new_length@std@@YAXXZ 000000018007fa0c     Aimbot.obj
 0002:00015a0c       $unwind$_raise_exc         000000018007fa0c     libucrt:fpexcept.obj
 0002:00015a0c       $unwind$_raise_excf        000000018007fa0c     libucrt:fpexcept.obj
 0002:00015a0c       $unwind$?__scrt_throw_std_bad_alloc@@YAXXZ 000000018007fa0c     LIBCMT:throw_bad_alloc.obj
 0002:00015a0c       $unwind$?__scrt_throw_std_bad_array_new_length@@YAXXZ 000000018007fa0c     LIBCMT:throw_bad_alloc.obj
 0002:00015a0c       $unwind$?_Xlength_error@std@@YAXPEBD@Z 000000018007fa0c     libcpmt:xthrow.obj
 0002:00015a0c       $unwind$?_Xout_of_range@std@@YAXPEBD@Z 000000018007fa0c     libcpmt:xthrow.obj
 0002:00015a0c       $unwind$?detour_runnable_trampoline_regions@@YAXXZ 000000018007fa0c     detours:detours.obj
 0002:00015a18       $unwind$??1?$_List_node_insert_op2@V?$allocator@U?$_List_node@KPEAX@std@@@std@@@std@@QEAA@XZ 000000018007fa18     Aimbot.obj
 0002:00015a18       $unwind$??__EEntity@@YAXXZ 000000018007fa18     Aimbot.obj
 0002:00015a18       $unwind$??__EOffsets@@YAXXZ 000000018007fa18     Aimbot.obj
 0002:00015a18       $unwind$??__EWeapon@@YAXXZ 000000018007fa18     Aimbot.obj
 0002:00015a18       $unwind$??__FEntityIndex@@YAXXZ 000000018007fa18     Aimbot.obj
 0002:00015a18       $unwind$??__FEntityList@@YAXXZ 000000018007fa18     Aimbot.obj
 0002:00015a18       $unwind$??__FGameRules@@YAXXZ 000000018007fa18     Aimbot.obj
 0002:00015a18       $unwind$??__FLeftArm@BoneJointList@@YAXXZ 000000018007fa18     Aimbot.obj
 0002:00015a18       $unwind$??__FLeftLeg@BoneJointList@@YAXXZ 000000018007fa18     Aimbot.obj
 0002:00015a18       $unwind$??__FList@BoneJointList@@YAXXZ 000000018007fa18     Aimbot.obj
 0002:00015a18       $unwind$??__FLocalPlayerController@@YAXXZ 000000018007fa18     Aimbot.obj
 0002:00015a18       $unwind$??__FLocalPlayerPawn@@YAXXZ 000000018007fa18     Aimbot.obj
 0002:00015a18       $unwind$??__FRightArm@BoneJointList@@YAXXZ 000000018007fa18     Aimbot.obj
 0002:00015a18       $unwind$??__FRightLeg@BoneJointList@@YAXXZ 000000018007fa18     Aimbot.obj
 0002:00015a18       $unwind$??__FTrunk@BoneJointList@@YAXXZ 000000018007fa18     Aimbot.obj
 0002:00015a18       $unwind$??__FViewMatrix@@YAXXZ 000000018007fa18     Aimbot.obj
 0002:00015a18       $unwind$??__FbPawnIsAlive@@YAXXZ 000000018007fa18     Aimbot.obj
 0002:00015a18       $unwind$??__FiHealth@@YAXXZ 000000018007fa18     Aimbot.obj
 0002:00015a18       $unwind$??__FiTeamNum@@YAXXZ 000000018007fa18     Aimbot.obj
 0002:00015a18       $unwind$??__FpArmorValue@@YAXXZ 000000018007fa18     Aimbot.obj
 0002:00015a18       $unwind$??__FpBoneArray@@YAXXZ 000000018007fa18     Aimbot.obj
 0002:00015a18       $unwind$??__FpClippingWeapon@@YAXXZ 000000018007fa18     Aimbot.obj
 0002:00015a18       $unwind$??__FpGameSceneNode@@YAXXZ 000000018007fa18     Aimbot.obj
 0002:00015a18       $unwind$??__FvOldOrigin@@YAXXZ 000000018007fa18     Aimbot.obj
 0002:00015a18       $unwind$?_Xlen_string@std@@YAXXZ 000000018007fa18     Aimbot.obj
 0002:00015a18       $unwind$?_Xlength@?$vector@UBoneJointPos@@V?$allocator@UBoneJointPos@@@std@@@std@@CAXXZ 000000018007fa18     Entity.obj
 0002:00015a18       $unwind$?_Xlength@?$vector@_KV?$allocator@_K@std@@@std@@CAXXZ 000000018007fa18     Entity.obj
 0002:00015a18       $unwind$DllMain            000000018007fa18     MainDLL.obj
 0002:00015a18       $unwind$?_Xlength@?$vector@EV?$allocator@E@std@@@std@@CAXXZ 000000018007fa18     Memory.obj
 0002:00015a18       $unwind$?_Xran@?$_String_val@U?$_Simple_types@D@std@@@std@@SAXXZ 000000018007fa18     Memory.obj
 0002:00015a18       $unwind$?FocusableItemRegister@ImGui@@YA_NPEAUImGuiWindow@@I@Z 000000018007fa18     imgui.obj
 0002:00015a18       $unwind$?GetID@ImGuiWindow@@QEAAIPEBD0@Z 000000018007fa18     imgui.obj
 0002:00015a18       $unwind$?GetNavInputAmount@ImGui@@YAMHW4ImGuiInputReadMode@@@Z 000000018007fa18     imgui.obj
 0002:00015a18       $unwind$?IsMouseClicked@ImGui@@YA_NH_N@Z 000000018007fa18     imgui.obj
 0002:00015a18       $unwind$?OpenPopupOnItemClick@ImGui@@YA_NPEBDH@Z 000000018007fa18     imgui.obj
 0002:00015a18       $unwind$?stbtt__csctx_close_shape@@YAXPEAUstbtt__csctx@@@Z 000000018007fa18     imgui_draw.obj
 0002:00015a18       $unwind$?ImGui_ImplDX11_InvalidateDeviceObjects@@YAXXZ 000000018007fa18     imgui_impl_dx11.obj
 0002:00015a18       $unwind$?PopColumnsBackground@ImGui@@YAXXZ 000000018007fa18     imgui_widgets.obj
 0002:00015a18       $unwind$?PushColumnsBackground@ImGui@@YAXXZ 000000018007fa18     imgui_widgets.obj
 0002:00015a18       $unwind$?Spacing@ImGui@@YAXXZ 000000018007fa18     imgui_widgets.obj
 0002:00015a18       $unwind$__dcrt_terminate_console_output 000000018007fa18     libucrt:initcon.obj
 0002:00015a18       $unwind$??$uninitialize_environment_internal@D@@YAXAEAPEAPEAD@Z 000000018007fa18     libucrt:environment_initialization.obj
 0002:00015a18       $unwind$??$uninitialize_environment_internal@_W@@YAXAEAPEAPEA_W@Z 000000018007fa18     libucrt:environment_initialization.obj
 0002:00015a18       $unwind$toupper            000000018007fa18     libucrt:tolower_toupper.obj
 0002:00015a18       $unwind$__acrt_initialize_heap 000000018007fa18     libucrt:heap_handle.obj
 0002:00015a18       $unwind$_msize_base        000000018007fa18     libucrt:msize.obj
 0002:00015a18       $unwind$?initialize_multibyte@@YAHXZ 000000018007fa18     libucrt:multibyte_initializer.obj
 0002:00015a18       $unwind$__acrt_thread_attach 000000018007fa18     libucrt:initialization.obj
 0002:00015a18       $unwind$__acrt_thread_detach 000000018007fa18     libucrt:initialization.obj
 0002:00015a18       $unwind$__acrt_uninitialize 000000018007fa18     libucrt:initialization.obj
 0002:00015a18       $unwind$__acrt_uninitialize_critical 000000018007fa18     libucrt:initialization.obj
 0002:00015a18       $unwind$initialize_c       000000018007fa18     libucrt:initialization.obj
 0002:00015a18       $unwind$uninitialize_allocated_io_buffers 000000018007fa18     libucrt:initialization.obj
 0002:00015a18       $unwind$uninitialize_environment 000000018007fa18     libucrt:initialization.obj
 0002:00015a18       $unwind$__acrt_initialize_ptd 000000018007fa18     libucrt:per_thread_data.obj
 0002:00015a18       $unwind$__acrt_uninitialize_ptd 000000018007fa18     libucrt:per_thread_data.obj
 0002:00015a18       $unwind$__acrt_AreFileApisANSI 000000018007fa18     libucrt:winapi_thunks.obj
 0002:00015a18       $unwind$__pctype_func      000000018007fa18     libucrt:ctype.obj
 0002:00015a18       $unwind$__acrt_release_locale_ref 000000018007fa18     libucrt:locale_refcounting.obj
 0002:00015a18       $unwind$_isatty            000000018007fa18     libucrt:isatty.obj
 0002:00015a18       $unwind$_get_osfhandle     000000018007fa18     libucrt:osfinfo.obj
 0002:00015a18       $unwind$_get_fmode         000000018007fa18     libucrt:setmode.obj
 0002:00015a18       $unwind$__acrt_initialize_multibyte 000000018007fa18     libucrt:mbctype.obj
 0002:00015a18       $unwind$__acrt_update_thread_multibyte_data 000000018007fa18     libucrt:mbctype.obj
 0002:00015a18       $unwind$__doserrno         000000018007fa18     libucrt:errno.obj
 0002:00015a18       $unwind$_errno             000000018007fa18     libucrt:errno.obj
 0002:00015a18       $unwind$_invoke_watson     000000018007fa18     libucrt:invalid_parameter.obj
 0002:00015a18       $unwind$abort              000000018007fa18     libucrt:abort.obj
 0002:00015a18       $unwind$__acrt_initialize_command_line 000000018007fa18     libucrt:argv_data.obj
 0002:00015a18       $unwind$?should_call_terminate_process@@YA_NXZ 000000018007fa18     libucrt:exit.obj
 0002:00015a18       $unwind$_fileno            000000018007fa18     libucrt:fileno.obj
 0002:00015a18       $unwind$_strnicmp          000000018007fa18     libucrt:strnicmp.obj
 0002:00015a18       $unwind$_wcsnicmp          000000018007fa18     libucrt:wcsnicmp.obj
 0002:00015a18       $unwind$_statfp            000000018007fa18     libucrt:fpctrl.obj
 0002:00015a18       $unwind$fegetround         000000018007fa18     libucrt:fegetround.obj
 0002:00015a18       $unwind$_set_errno_from_matherr 000000018007fa18     libucrt:fpexcept.obj
 0002:00015a18       $unwind$__scrt_initialize_default_local_stdio_options 000000018007fa18     LIBCMT:default_local_stdio_options.obj
 0002:00015a18       $unwind$?dllmain_crt_dispatch@@YAHQEAUHINSTANCE__@@KQEAX@Z 000000018007fa18     LIBCMT:dll_dllmain.obj
 0002:00015a18       $unwind$__report_rangecheckfailure 000000018007fa18     LIBCMT:gs_report.obj
 0002:00015a18       $unwind$__GSHandlerCheck   000000018007fa18     LIBCMT:gshandler.obj
 0002:00015a18       $unwind$__scrt_acquire_startup_lock 000000018007fa18     LIBCMT:utility.obj
 0002:00015a18       $unwind$__scrt_dllmain_after_initialize_c 000000018007fa18     LIBCMT:utility.obj
 0002:00015a18       $unwind$__scrt_dllmain_before_initialize_c 000000018007fa18     LIBCMT:utility.obj
 0002:00015a18       $unwind$__scrt_dllmain_crt_thread_attach 000000018007fa18     LIBCMT:utility.obj
 0002:00015a18       $unwind$__scrt_dllmain_crt_thread_detach 000000018007fa18     LIBCMT:utility.obj
 0002:00015a18       $unwind$__scrt_dllmain_uninitialize_c 000000018007fa18     LIBCMT:utility.obj
 0002:00015a18       $unwind$__scrt_dllmain_uninitialize_critical 000000018007fa18     LIBCMT:utility.obj
 0002:00015a18       $unwind$__scrt_initialize_crt 000000018007fa18     LIBCMT:utility.obj
 0002:00015a18       $unwind$atexit             000000018007fa18     LIBCMT:utility.obj
 0002:00015a18       $unwind$_Query_perf_counter 000000018007fa18     libcpmt:xtime.obj
 0002:00015a18       $unwind$_Query_perf_frequency 000000018007fa18     libcpmt:xtime.obj
 0002:00015a18       $unwind$__current_exception 000000018007fa18     libvcruntime:ehhelpers.obj
 0002:00015a18       $unwind$__current_exception_context 000000018007fa18     libvcruntime:ehhelpers.obj
 0002:00015a18       $unwind$__std_terminate    000000018007fa18     libvcruntime:ehhelpers.obj
 0002:00015a18       $unwind$?GetCurrentState@__FrameHandler3@@SAHPEA_KPEAU_xDISPATCHER_CONTEXT@@PEBU_s_FuncInfo@@@Z 000000018007fa18     libvcruntime:ehstate.obj
 0002:00015a18       $xdatasym$_CallSettingFrame 000000018007fa18     libvcruntime:handlers.obj
 0002:00015a18       $xdatasym$_CallSettingFrameEncoded 000000018007fa18     libvcruntime:handlers.obj
 0002:00015a18       $xdatasym$_CallSettingFrame_LookupContinuationIndex 000000018007fa18     libvcruntime:handlers.obj
 0002:00015a18       $xdatasym$_CallSettingFrame_NotifyContinuationAddr 000000018007fa18     libvcruntime:handlers.obj
 0002:00015a18       $unwind$__vcrt_initialize  000000018007fa18     libvcruntime:initialization.obj
 0002:00015a18       $unwind$__vcrt_thread_attach 000000018007fa18     libvcruntime:initialization.obj
 0002:00015a18       $unwind$__vcrt_thread_detach 000000018007fa18     libvcruntime:initialization.obj
 0002:00015a18       $unwind$__vcrt_uninitialize 000000018007fa18     libvcruntime:initialization.obj
 0002:00015a18       $unwind$__vcrt_uninitialize_critical 000000018007fa18     libvcruntime:initialization.obj
 0002:00015a18       $unwind$__vcrt_freefls     000000018007fa18     libvcruntime:per_thread_data.obj
 0002:00015a18       $unwind$__vcrt_getptd      000000018007fa18     libvcruntime:per_thread_data.obj
 0002:00015a18       $unwind$__vcrt_initialize_ptd 000000018007fa18     libvcruntime:per_thread_data.obj
 0002:00015a18       $unwind$__vcrt_uninitialize_ptd 000000018007fa18     libvcruntime:per_thread_data.obj
 0002:00015a18       $unwind$?FrameUnwindToEmptyState@__FrameHandler4@@SAXPEA_KPEAU_xDISPATCHER_CONTEXT@@PEAUFuncInfo4@FH4@@@Z 000000018007fa18     libvcruntime:risctrnsctrl.obj
 0002:00015a18       $unwind$_GetImageBase      000000018007fa18     libvcruntime:risctrnsctrl.obj
 0002:00015a18       $unwind$_GetThrowImageBase 000000018007fa18     libvcruntime:risctrnsctrl.obj
 0002:00015a18       $unwind$DetourTransactionCommit 000000018007fa18     detours:detours.obj
 0002:00015a20       $unwind$??__EEntityIndex@@YAXXZ 000000018007fa20     Aimbot.obj
 0002:00015a20       $unwind$??__EEntityList@@YAXXZ 000000018007fa20     Aimbot.obj
 0002:00015a20       $unwind$??__EGameRules@@YAXXZ 000000018007fa20     Aimbot.obj
 0002:00015a20       $unwind$??__ELocalPlayerController@@YAXXZ 000000018007fa20     Aimbot.obj
 0002:00015a20       $unwind$??__ELocalPlayerPawn@@YAXXZ 000000018007fa20     Aimbot.obj
 0002:00015a20       $unwind$??__EViewMatrix@@YAXXZ 000000018007fa20     Aimbot.obj
 0002:00015a20       $unwind$??__EiTeamNum@@YAXXZ 000000018007fa20     Aimbot.obj
 0002:00015a20       $unwind$??__EpBoneArray@@YAXXZ 000000018007fa20     Aimbot.obj
 0002:00015a20       $unwind$??__EpClippingWeapon@@YAXXZ 000000018007fa20     Aimbot.obj
 0002:00015a20       $unwind$??__EpGameSceneNode@@YAXXZ 000000018007fa20     Aimbot.obj
 0002:00015a3c       $unwind$??__EiHealth@@YAXXZ 000000018007fa3c     Aimbot.obj
 0002:00015a3c       $unwind$??__EpArmorValue@@YAXXZ 000000018007fa3c     Aimbot.obj
 0002:00015a3c       $unwind$??__EvOldOrigin@@YAXXZ 000000018007fa3c     Aimbot.obj
 0002:00015a58       $unwind$??__EbPawnIsAlive@@YAXXZ 000000018007fa58     Aimbot.obj
 0002:00015a74       $unwind$?InitializeModules@ModuleManager@@QEAAXXZ 000000018007fa74     Aimbot.obj
 0002:00015a9c       $unwind$??__ELeftArm@BoneJointList@@YAXXZ 000000018007fa9c     Aimbot.obj
 0002:00015a9c       $unwind$??__ELeftLeg@BoneJointList@@YAXXZ 000000018007fa9c     Aimbot.obj
 0002:00015a9c       $unwind$??__ERightArm@BoneJointList@@YAXXZ 000000018007fa9c     Aimbot.obj
 0002:00015a9c       $unwind$??__ERightLeg@BoneJointList@@YAXXZ 000000018007fa9c     Aimbot.obj
 0002:00015a9c       $unwind$??__ETrunk@BoneJointList@@YAXXZ 000000018007fa9c     Aimbot.obj
 0002:00015a9c       $unwind$fallbackMethod     000000018007fa9c     libucrt:strpbrk.obj
 0002:00015aac       $chain$0$??__FTrunk@BoneJointList@@YAXXZ 000000018007faac     Aimbot.obj
 0002:00015ac0       $chain$1$??__FTrunk@BoneJointList@@YAXXZ 000000018007fac0     Aimbot.obj
 0002:00015ad0       $chain$0$??__FLeftArm@BoneJointList@@YAXXZ 000000018007fad0     Aimbot.obj
 0002:00015ae4       $chain$1$??__FLeftArm@BoneJointList@@YAXXZ 000000018007fae4     Aimbot.obj
 0002:00015af4       $chain$0$??__FRightArm@BoneJointList@@YAXXZ 000000018007faf4     Aimbot.obj
 0002:00015b08       $chain$1$??__FRightArm@BoneJointList@@YAXXZ 000000018007fb08     Aimbot.obj
 0002:00015b18       $chain$0$??__FLeftLeg@BoneJointList@@YAXXZ 000000018007fb18     Aimbot.obj
 0002:00015b2c       $chain$1$??__FLeftLeg@BoneJointList@@YAXXZ 000000018007fb2c     Aimbot.obj
 0002:00015b3c       $chain$0$??__FRightLeg@BoneJointList@@YAXXZ 000000018007fb3c     Aimbot.obj
 0002:00015b50       $chain$1$??__FRightLeg@BoneJointList@@YAXXZ 000000018007fb50     Aimbot.obj
 0002:00015b60       $unwind$??__EList@BoneJointList@@YAXXZ 000000018007fb60     Aimbot.obj
 0002:00015b7c       $cppxdata$??__EList@BoneJointList@@YAXXZ 000000018007fb7c     Aimbot.obj
 0002:00015b85       $stateUnwindMap$??__EList@BoneJointList@@YAXXZ 000000018007fb85     Aimbot.obj
 0002:00015baf       $ip2state$??__EList@BoneJointList@@YAXXZ 000000018007fbaf     Aimbot.obj
 0002:00015bc0       $unwind$?dtor$5@?0???__EList@BoneJointList@@YAXXZ@4HA 000000018007fbc0     Aimbot.obj
 0002:00015bc0       $unwind$?dtor$0@?0??InitiateImGui@@YAXXZ@4HA 000000018007fbc0     d3d.obj
 0002:00015bc0       $unwind$?dtor$0@?0??CreateNewWindow@@YAPEAUImGuiWindow@@PEBDUImVec2@@H@Z@4HA 000000018007fbc0     imgui.obj
 0002:00015bc0       $unwind$_query_new_handler$fin$0 000000018007fbc0     libucrt:new_handler.obj
 0002:00015bc0       $unwind$?fin$0@?0???$?RV<lambda_0ae27a3a962d80f24befdcbee591983d>@@AEAV<lambda_8d0ee55de4b1038c4002e0adecdf1839>@@V<lambda_dc504788e8f1664fe9b84e20bfb512f2>@@@?$__crt_seh_guarded_call@X@@QEAAX$$QEAV<lambda_0ae27a3a962d80f24befdcbee591983d>@@AEAV<lambda_8d0ee55de4b1038c4002e0adecdf1839>@@$$QEAV<lambda_dc504788e8f1664fe9b84e20bfb512f2>@@@Z@4HA 000000018007fbc0     libucrt:per_thread_data.obj
 0002:00015bc0       $unwind$?fin$0@?0???$?RV<lambda_2d41944a1d46af3157314b8a01080d33>@@AEAV<lambda_8f455de75cd7d7f24b4096f044d8b9e6>@@V<lambda_aa500f224e6afead328df44964fe2772>@@@?$__crt_seh_guarded_call@X@@QEAAX$$QEAV<lambda_2d41944a1d46af3157314b8a01080d33>@@AEAV<lambda_8f455de75cd7d7f24b4096f044d8b9e6>@@$$QEAV<lambda_aa500f224e6afead328df44964fe2772>@@@Z@4HA 000000018007fbc0     libucrt:per_thread_data.obj
 0002:00015bc0       $unwind$?fin$0@?0???$?RV<lambda_aa87e3671a710a21b5dc78c0bdf72e11>@@AEAV<lambda_92619d2358a28f41a33ba319515a20b9>@@V<lambda_6992ecaafeb10aed2b74cb1fae11a551>@@@?$__crt_seh_guarded_call@X@@QEAAX$$QEAV<lambda_aa87e3671a710a21b5dc78c0bdf72e11>@@AEAV<lambda_92619d2358a28f41a33ba319515a20b9>@@$$QEAV<lambda_6992ecaafeb10aed2b74cb1fae11a551>@@@Z@4HA 000000018007fbc0     libucrt:per_thread_data.obj
 0002:00015bc0       $unwind$?fin$0@?0???$?RV<lambda_f2e299630e499de9f9a165e60fcd3db5>@@AEAV<lambda_2ae9d31cdba2644fcbeaf08da7c24588>@@V<lambda_40d01ff24d0e7b3814fdbdcee8eab3c7>@@@?$__crt_seh_guarded_call@X@@QEAAX$$QEAV<lambda_f2e299630e499de9f9a165e60fcd3db5>@@AEAV<lambda_2ae9d31cdba2644fcbeaf08da7c24588>@@$$QEAV<lambda_40d01ff24d0e7b3814fdbdcee8eab3c7>@@@Z@4HA 000000018007fbc0     libucrt:per_thread_data.obj
 0002:00015bc0       $unwind$__acrt_update_thread_locale_data$fin$0 000000018007fbc0     libucrt:locale_refcounting.obj
 0002:00015bc0       $unwind$?fin$0@?0???$?RV<lambda_410d79af7f07d98d83a3f525b3859a53>@@AEAV<lambda_3e16ef9562a7dcce91392c22ab16ea36>@@V<lambda_38119f0e861e05405d8a144b9b982f0a>@@@?$__crt_seh_guarded_call@X@@QEAAX$$QEAV<lambda_410d79af7f07d98d83a3f525b3859a53>@@AEAV<lambda_3e16ef9562a7dcce91392c22ab16ea36>@@$$QEAV<lambda_38119f0e861e05405d8a144b9b982f0a>@@@Z@4HA 000000018007fbc0     libucrt:wsetlocale.obj
 0002:00015bc0       $unwind$?fin$0@?0???$?RV<lambda_ad8af0d99a0adf03d037d7dffe354bb5>@@AEAV<lambda_c9ba49e555ba839a7b07aa3fbecb7617>@@V<lambda_2f1ebd5d68526518146ae959c9e734c8>@@@?$__crt_seh_guarded_call@H@@QEAAH$$QEAV<lambda_ad8af0d99a0adf03d037d7dffe354bb5>@@AEAV<lambda_c9ba49e555ba839a7b07aa3fbecb7617>@@$$QEAV<lambda_2f1ebd5d68526518146ae959c9e734c8>@@@Z@4HA 000000018007fbc0     libucrt:close.obj
 0002:00015bc0       $unwind$?fin$0@?0???$?RV<lambda_a37b2b86f63e897a80ea819b0eb08c01>@@AEAV<lambda_38ce7e780aa69e748d6df282ebc68efe>@@V<lambda_99fb1378e971ab6e7edea83e3a7a83a2>@@@?$__crt_seh_guarded_call@H@@QEAAH$$QEAV<lambda_a37b2b86f63e897a80ea819b0eb08c01>@@AEAV<lambda_38ce7e780aa69e748d6df282ebc68efe>@@$$QEAV<lambda_99fb1378e971ab6e7edea83e3a7a83a2>@@@Z@4HA 000000018007fbc0     libucrt:commit.obj
 0002:00015bc0       $unwind$__acrt_initialize_lowio$fin$0 000000018007fbc0     libucrt:ioinit.obj
 0002:00015bc0       $unwind$__acrt_lowio_ensure_fh_exists$fin$0 000000018007fbc0     libucrt:osfinfo.obj
 0002:00015bc0       $unwind$_alloc_osfhnd$fin$0 000000018007fbc0     libucrt:osfinfo.obj
 0002:00015bc0       $unwind$_read$fin$0        000000018007fbc0     libucrt:read.obj
 0002:00015bc0       $unwind$?fin$0@?0???$?RV<lambda_efdfa57d1f175319df784efa44bb7b81>@@AEAV<lambda_5f0a4c1567f8adc6734073e5d1e1b35c>@@V<lambda_2e8a7d3640ea6ccb4c2413664c2db6fd>@@@?$__crt_seh_guarded_call@X@@QEAAX$$QEAV<lambda_efdfa57d1f175319df784efa44bb7b81>@@AEAV<lambda_5f0a4c1567f8adc6734073e5d1e1b35c>@@$$QEAV<lambda_2e8a7d3640ea6ccb4c2413664c2db6fd>@@@Z@4HA 000000018007fbc0     libucrt:mbctype.obj
 0002:00015bc0       $unwind$?fin$0@?0??update_thread_multibyte_data_internal@@YAPEAU__crt_multibyte_data@@QEAU__acrt_ptd@@QEAPEAU1@@Z@4HA 000000018007fbc0     libucrt:mbctype.obj
 0002:00015bc0       $unwind$?fin$0@?0???$?RV<lambda_450d765d439847d4c735a33c368b5fc0>@@AEAV<lambda_44731a7d0e6d81c3e6aa82d741081786>@@V<lambda_601a2a7da3b7a96e9554ac7215c4b07c>@@@?$__crt_seh_guarded_call@P6AXH@Z@@QEAAP6AXH@Z$$QEAV<lambda_450d765d439847d4c735a33c368b5fc0>@@AEAV<lambda_44731a7d0e6d81c3e6aa82d741081786>@@$$QEAV<lambda_601a2a7da3b7a96e9554ac7215c4b07c>@@@Z@4HA 000000018007fbc0     libucrt:signal.obj
 0002:00015bc0       $unwind$raise$fin$0        000000018007fbc0     libucrt:signal.obj
 0002:00015bc0       $unwind$?filt$0@?0???R<lambda_6e4b09c48022b2350581041d5f6b0c4c>@@QEBA@XZ@4HA 000000018007fbc0     libucrt:exit.obj
 0002:00015bc0       $unwind$?fin$0@?0???$?RV<lambda_d80eeec6fff315bfe5c115232f3240e3>@@AEAV<lambda_6e4b09c48022b2350581041d5f6b0c4c>@@V<lambda_2358e3775559c9db80273638284d5e45>@@@?$__crt_seh_guarded_call@X@@QEAAX$$QEAV<lambda_d80eeec6fff315bfe5c115232f3240e3>@@AEAV<lambda_6e4b09c48022b2350581041d5f6b0c4c>@@$$QEAV<lambda_2358e3775559c9db80273638284d5e45>@@@Z@4HA 000000018007fbc0     libucrt:exit.obj
 0002:00015bc0       $unwind$?fin$0@?0???$?RV<lambda_638799b9deba96c50f710eeac98168cd>@@AEAV<lambda_22ebabd17bc4fa466a2aca6d8deb888d>@@V<lambda_a6f7d7db0129f75315ebf26d50c089f1>@@@?$__crt_seh_guarded_call@H@@QEAAH$$QEAV<lambda_638799b9deba96c50f710eeac98168cd>@@AEAV<lambda_22ebabd17bc4fa466a2aca6d8deb888d>@@$$QEAV<lambda_a6f7d7db0129f75315ebf26d50c089f1>@@@Z@4HA 000000018007fbc0     libucrt:onexit.obj
 0002:00015bc0       $unwind$?fin$0@?0???$?RV<lambda_7777bce6b2f8c936911f934f8298dc43>@@AEAV<lambda_f03950bc5685219e0bcd2087efbe011e>@@V<lambda_3883c3dff614d5e0c5f61bb1ac94921c>@@@?$__crt_seh_guarded_call@H@@QEAAH$$QEAV<lambda_7777bce6b2f8c936911f934f8298dc43>@@AEAV<lambda_f03950bc5685219e0bcd2087efbe011e>@@$$QEAV<lambda_3883c3dff614d5e0c5f61bb1ac94921c>@@@Z@4HA 000000018007fbc0     libucrt:onexit.obj
 0002:00015bc0       $unwind$_fcloseall$fin$0   000000018007fbc0     libucrt:closeall.obj
 0002:00015bc0       $unwind$?fin$0@?0???$?RV<lambda_842d9ff0dc9ef11c61343bbaebe7f885>@@AEAV<lambda_c5860995281e5c4ce005b3de8f5874ee>@@V<lambda_d90129c13df834fdcbf8d2b88dafcf2d>@@@?$__crt_seh_guarded_call@X@@QEAAX$$QEAV<lambda_842d9ff0dc9ef11c61343bbaebe7f885>@@AEAV<lambda_c5860995281e5c4ce005b3de8f5874ee>@@$$QEAV<lambda_d90129c13df834fdcbf8d2b88dafcf2d>@@@Z@4HA 000000018007fbc0     libucrt:fflush.obj
 0002:00015bc0       $unwind$?fin$0@?0???$?RV<lambda_886d6c58226a84441f68b9f2b8217b83>@@AEAV<lambda_ab61a845afdef5b7c387490eaf3616ee>@@V<lambda_f7f22ab5edc0698d5f6905b0d3f44752>@@@?$__crt_seh_guarded_call@X@@QEAAX$$QEAV<lambda_886d6c58226a84441f68b9f2b8217b83>@@AEAV<lambda_ab61a845afdef5b7c387490eaf3616ee>@@$$QEAV<lambda_f7f22ab5edc0698d5f6905b0d3f44752>@@@Z@4HA 000000018007fbc0     libucrt:fflush.obj
 0002:00015bc0       $unwind$?fin$0@?0???$?RV<lambda_c376a267cfb53b6959b3b692ec76b120>@@AEAV<lambda_9a32fed5bf61b6b509b2d3f6003082a1>@@V<lambda_572fbb9fa0ab338edf41edfd4b5fcc8d>@@@?$__crt_seh_guarded_call@H@@QEAAH$$QEAV<lambda_c376a267cfb53b6959b3b692ec76b120>@@AEAV<lambda_9a32fed5bf61b6b509b2d3f6003082a1>@@$$QEAV<lambda_572fbb9fa0ab338edf41edfd4b5fcc8d>@@@Z@4HA 000000018007fbc0     libucrt:fflush.obj
 0002:00015bc0       $unwind$?fin$0@?0???$common_fsopen@_W@@YAPEAU_iobuf@@QEB_W0H@Z@4HA 000000018007fbc0     libucrt:fopen.obj
 0002:00015bc0       $unwind$?fin$0@?0???$common_freopen@D@@YAHQEAPEAU_iobuf@@QEBD1V__crt_stdio_stream@@H@Z@4HA 000000018007fbc0     libucrt:freopen.obj
 0002:00015bc0       $unwind$?fin$0@?0???$?RV<lambda_a2589f19c515cac03caf6db9c38355e9>@@AEAV<lambda_26974eb511f701c600fccfa2a97a8e1b>@@V<lambda_ad9ce2f38261e34e8a422b9cc35dfe8d>@@@?$__crt_seh_guarded_call@_K@@QEAA_K$$QEAV<lambda_a2589f19c515cac03caf6db9c38355e9>@@AEAV<lambda_26974eb511f701c600fccfa2a97a8e1b>@@$$QEAV<lambda_ad9ce2f38261e34e8a422b9cc35dfe8d>@@@Z@4HA 000000018007fbc0     libucrt:fwrite.obj
 0002:00015bc0       $unwind$?fin$0@?0??__acrt_stdio_allocate_stream@@YA?AV__crt_stdio_stream@@XZ@4HA 000000018007fbc0     libucrt:stream.obj
 0002:00015bc0       $unwind$_ctrlfp$filt$0     000000018007fbc0     libucrt:fpctrl.obj
 0002:00015bc0       $unwind$common_control87$filt$0 000000018007fbc0     libucrt:ieee.obj
 0002:00015bc0       $unwind$?fin$0@?0??dllmain_crt_process_attach@@YAHQEAUHINSTANCE__@@QEAX@Z@4HA 000000018007fbc0     LIBCMT:dll_dllmain.obj
 0002:00015bc0       $unwind$?fin$0@?0??dllmain_crt_process_detach@@YAH_N@Z@4HA 000000018007fbc0     LIBCMT:dll_dllmain.obj
 0002:00015bc0       $unwind$?fin$1@?0??dllmain_crt_process_detach@@YAH_N@Z@4HA 000000018007fbc0     LIBCMT:dll_dllmain.obj
 0002:00015bc0       $unwind$?fin$0@?0???_L@YAXPEAX_K1P6AX0@Z2@Z@4HA 000000018007fbc0     LIBCMT:ehvecctr.obj
 0002:00015bc0       $unwind$?fin$0@?0???_M@YAXPEAX_K1P6AX0@Z@Z@4HA 000000018007fbc0     LIBCMT:ehvecdtr.obj
 0002:00015bc0       $unwind$_IsNonwritableInCurrentImage$filt$0 000000018007fbc0     LIBCMT:pesect.obj
 0002:00015bc0       $unwind$?filt$0@?0??CxxCallCatchBlock@__FrameHandler3@@SAPEAXPEAU_EXCEPTION_RECORD@@@Z@4HA 000000018007fbc0     libvcruntime:frame.obj
 0002:00015bc0       $unwind$?filt$0@?0??CxxCallCatchBlock@__FrameHandler4@@SAPEAXPEAU_EXCEPTION_RECORD@@@Z@4HA 000000018007fbc0     libvcruntime:frame.obj
 0002:00015bc0       $unwind$?filt$0@?0??FrameUnwindToState@__FrameHandler3@@SAXPEA_KPEAU_xDISPATCHER_CONTEXT@@PEBU_s_FuncInfo@@H@Z@4HA 000000018007fbc0     libvcruntime:frame.obj
 0002:00015bc0       $unwind$?fin$1@?0??FrameUnwindToState@__FrameHandler3@@SAXPEA_KPEAU_xDISPATCHER_CONTEXT@@PEBU_s_FuncInfo@@H@Z@4HA 000000018007fbc0     libvcruntime:frame.obj
 0002:00015bc0       $unwind$?filt$0@?0??detour_is_imported@@YA_NPEAE0@Z@4HA 000000018007fbc0     detours:detours.obj
 0002:00015bc8       $unwind$?WorldToScreen@ScreenProjection@@QEBAHAEBVVec3@@AEAVVec2@@@Z 000000018007fbc8     Aimbot.obj
 0002:00015bd8       $unwind$?CalculateAimbot@@YAXAEAVCEntity@@@Z 000000018007fbd8     Aimbot.obj
 0002:00015be4       $chain$7$?CalculateAimbot@@YAXAEAVCEntity@@@Z 000000018007fbe4     Aimbot.obj
 0002:00015c14       $chain$12$?CalculateAimbot@@YAXAEAVCEntity@@@Z 000000018007fc14     Aimbot.obj
 0002:00015c38       $chain$14$?CalculateAimbot@@YAXAEAVCEntity@@@Z 000000018007fc38     Aimbot.obj
 0002:00015c50       $chain$15$?CalculateAimbot@@YAXAEAVCEntity@@@Z 000000018007fc50     Aimbot.obj
 0002:00015c60       $chain$16$?CalculateAimbot@@YAXAEAVCEntity@@@Z 000000018007fc60     Aimbot.obj
 0002:00015c74       $chain$17$?CalculateAimbot@@YAXAEAVCEntity@@@Z 000000018007fc74     Aimbot.obj
 0002:00015c84       $chain$18$?CalculateAimbot@@YAXAEAVCEntity@@@Z 000000018007fc84     Aimbot.obj
 0002:00015c94       $chain$19$?CalculateAimbot@@YAXAEAVCEntity@@@Z 000000018007fc94     Aimbot.obj
 0002:00015cc4       $unwind$??1?$list@KV?$allocator@K@std@@@std@@QEAA@XZ 000000018007fcc4     Aimbot.obj
 0002:00015cc4       $unwind$?GetClipboardTextFn_DefaultImpl@@YAPEBDPEAX@Z 000000018007fcc4     imgui.obj
 0002:00015cc4       $unwind$?stb_textedit_discard_undo@ImStb@@YAXPEAUStbUndoState@1@@Z 000000018007fcc4     imgui_widgets.obj
 0002:00015ccc       $chain$0$??1?$list@KV?$allocator@K@std@@@std@@QEAA@XZ 000000018007fccc     Aimbot.obj
 0002:00015ce0       $chain$1$??1?$list@KV?$allocator@K@std@@@std@@QEAA@XZ 000000018007fce0     Aimbot.obj
 0002:00015cf0       $unwind$??0?$list@KV?$allocator@K@std@@@std@@QEAA@V?$initializer_list@K@1@@Z 000000018007fcf0     Aimbot.obj
 0002:00015d14       $cppxdata$??0?$list@KV?$allocator@K@std@@@std@@QEAA@V?$initializer_list@K@1@@Z 000000018007fd14     Aimbot.obj
 0002:00015d1d       $stateUnwindMap$??0?$list@KV?$allocator@K@std@@@std@@QEAA@AEBV01@@Z 000000018007fd1d     Aimbot.obj
 0002:00015d1d       $stateUnwindMap$??0?$list@KV?$allocator@K@std@@@std@@QEAA@V?$initializer_list@K@1@@Z 000000018007fd1d     Aimbot.obj
 0002:00015d2a       $ip2state$??0?$list@KV?$allocator@K@std@@@std@@QEAA@V?$initializer_list@K@1@@Z 000000018007fd2a     Aimbot.obj
 0002:00015d34       $unwind$??0?$list@KV?$allocator@K@std@@@std@@QEAA@AEBV01@@Z 000000018007fd34     Aimbot.obj
 0002:00015d58       $cppxdata$??0?$list@KV?$allocator@K@std@@@std@@QEAA@AEBV01@@Z 000000018007fd58     Aimbot.obj
 0002:00015d61       $ip2state$??0?$list@KV?$allocator@K@std@@@std@@QEAA@AEBV01@@Z 000000018007fd61     Aimbot.obj
 0002:00015d68       $unwind$??$_Construct@$00PEBD@?$basic_string@DU?$char_traits@D@std@@V?$allocator@D@2@@std@@AEAAXQEBD_K@Z 000000018007fd68     Aimbot.obj
 0002:00015d7c       $chain$0$??$_Construct@$00PEBD@?$basic_string@DU?$char_traits@D@std@@V?$allocator@D@2@@std@@AEAAXQEBD_K@Z 000000018007fd7c     Aimbot.obj
 0002:00015d90       $chain$1$??$_Construct@$00PEBD@?$basic_string@DU?$char_traits@D@std@@V?$allocator@D@2@@std@@AEAAXQEBD_K@Z 000000018007fd90     Aimbot.obj
 0002:00015d90       $chain$3$??$_Construct@$00PEBD@?$basic_string@DU?$char_traits@D@std@@V?$allocator@D@2@@std@@AEAAXQEBD_K@Z 000000018007fd90     Aimbot.obj
 0002:00015da0       $chain$2$??$_Construct@$00PEBD@?$basic_string@DU?$char_traits@D@std@@V?$allocator@D@2@@std@@AEAAXQEBD_K@Z 000000018007fda0     Aimbot.obj
 0002:00015db4       $unwind$??$_Destroy_range@V?$allocator@V?$list@KV?$allocator@K@std@@@std@@@std@@@std@@YAXPEAV?$list@KV?$allocator@K@std@@@0@QEAV10@AEAV?$allocator@V?$list@KV?$allocator@K@std@@@std@@@0@@Z 000000018007fdb4     Aimbot.obj
 0002:00015dc0       $chain$1$??$_Destroy_range@V?$allocator@V?$list@KV?$allocator@K@std@@@std@@@std@@@std@@YAXPEAV?$list@KV?$allocator@K@std@@@0@QEAV10@AEAV?$allocator@V?$list@KV?$allocator@K@std@@@std@@@0@@Z 000000018007fdc0     Aimbot.obj
 0002:00015dd8       $chain$2$??$_Destroy_range@V?$allocator@V?$list@KV?$allocator@K@std@@@std@@@std@@@std@@YAXPEAV?$list@KV?$allocator@K@std@@@0@QEAV10@AEAV?$allocator@V?$list@KV?$allocator@K@std@@@std@@@0@@Z 000000018007fdd8     Aimbot.obj
 0002:00015de8       $chain$0$??1?$_List_node_insert_op2@V?$allocator@U?$_List_node@KPEAX@std@@@std@@@std@@QEAA@XZ 000000018007fde8     Aimbot.obj
 0002:00015dfc       $chain$1$??1?$_List_node_insert_op2@V?$allocator@U?$_List_node@KPEAX@std@@@std@@@std@@QEAA@XZ 000000018007fdfc     Aimbot.obj
 0002:00015e0c       $unwind$?DrawBone@@YAXAEAVCEntity@@UImColor@@M@Z 000000018007fe0c     ESP.obj
 0002:00015e2c       $chain$0$?DrawBone@@YAXAEAVCEntity@@UImColor@@M@Z 000000018007fe2c     ESP.obj
 0002:00015e40       $chain$9$?DrawBone@@YAXAEAVCEntity@@UImColor@@M@Z 000000018007fe40     ESP.obj
 0002:00015e74       $chain$10$?DrawBone@@YAXAEAVCEntity@@UImColor@@M@Z 000000018007fe74     ESP.obj
 0002:00015e84       $chain$11$?DrawBone@@YAXAEAVCEntity@@UImColor@@M@Z 000000018007fe84     ESP.obj
 0002:00015e94       $unwind$?DrawCustomBox@@YAXAEBUImVec2@@0AEBUImColor@@M@Z 000000018007fe94     ESP.obj
 0002:00015eac       $unwind$?RenderESP@@YAHAEAVCEntity@@@Z 000000018007feac     ESP.obj
 0002:00015ef4       $cppxdata$?RenderESP@@YAHAEAVCEntity@@@Z 000000018007fef4     ESP.obj
 0002:00015efd       $stateUnwindMap$?RenderESP@@YAHAEAVCEntity@@@Z 000000018007fefd     ESP.obj
 0002:00015f13       $ip2state$?RenderESP@@YAHAEAVCEntity@@@Z 000000018007ff13     ESP.obj
 0002:00015f24       $unwind$??$_Integral_to_string@DH@std@@YA?AV?$basic_string@DU?$char_traits@D@std@@V?$allocator@D@2@@0@H@Z 000000018007ff24     ESP.obj
 0002:00015f40       $unwind$??$_Reallocate_grow_by@V<lambda_1>@?1??append@?$basic_string@DU?$char_traits@D@std@@V?$allocator@D@2@@std@@QEAAAEAV34@QEBD_K@Z@PEBD_K@?$basic_string@DU?$char_traits@D@std@@V?$allocator@D@2@@std@@AEAAAEAV01@_KV<lambda_1>@?1??append@01@QEAAAEAV01@QEBD0@Z@PEBD_K@Z 000000018007ff40     ESP.obj
 0002:00015f4c       $chain$3$??$_Reallocate_grow_by@V<lambda_1>@?1??append@?$basic_string@DU?$char_traits@D@std@@V?$allocator@D@2@@std@@QEAAAEAV34@QEBD_K@Z@PEBD_K@?$basic_string@DU?$char_traits@D@std@@V?$allocator@D@2@@std@@AEAAAEAV01@_KV<lambda_1>@?1??append@01@QEAAAEAV01@QEBD0@Z@PEBD_K@Z 000000018007ff4c     ESP.obj
 0002:00015f6c       $chain$5$??$_Reallocate_grow_by@V<lambda_1>@?1??append@?$basic_string@DU?$char_traits@D@std@@V?$allocator@D@2@@std@@QEAAAEAV34@QEBD_K@Z@PEBD_K@?$basic_string@DU?$char_traits@D@std@@V?$allocator@D@2@@std@@AEAAAEAV01@_KV<lambda_1>@?1??append@01@QEAAAEAV01@QEBD0@Z@PEBD_K@Z 000000018007ff6c     ESP.obj
 0002:00015f8c       $chain$6$??$_Reallocate_grow_by@V<lambda_1>@?1??append@?$basic_string@DU?$char_traits@D@std@@V?$allocator@D@2@@std@@QEAAAEAV34@QEBD_K@Z@PEBD_K@?$basic_string@DU?$char_traits@D@std@@V?$allocator@D@2@@std@@AEAAAEAV01@_KV<lambda_1>@?1??append@01@QEAAAEAV01@QEBD0@Z@PEBD_K@Z 000000018007ff8c     ESP.obj
 0002:00015f9c       $unwind$?GetEntityWeapon@@YAXXZ 000000018007ff9c     Entity.obj
 0002:00015f9c       $unwind$?TriggerBot@@YAXXZ 000000018007ff9c     TriggerBot.obj
 0002:00015f9c       $unwind$DetourTransactionAbort 000000018007ff9c     detours:detours.obj
 0002:00015fa4       $chain$0$?TriggerBot@@YAXXZ 000000018007ffa4     TriggerBot.obj
 0002:00015fb8       $chain$2$?TriggerBot@@YAXXZ 000000018007ffb8     TriggerBot.obj
 0002:00015fd0       $chain$3$?TriggerBot@@YAXXZ 000000018007ffd0     TriggerBot.obj
 0002:00015fe4       $chain$4$?TriggerBot@@YAXXZ 000000018007ffe4     TriggerBot.obj
 0002:00015ff4       $chain$5$?TriggerBot@@YAXXZ 000000018007fff4     TriggerBot.obj
 0002:0001600c       $unwind$??$ReadMemoryInternal@VVec3@@@@YAH_KAEAVVec3@@0@Z 000000018008000c     Entity.obj
 0002:0001600c       $unwind$??$ReadMemoryInternal@H@@YAH_KAEAH0@Z 000000018008000c     TriggerBot.obj
 0002:0001600c       $unwind$??$ReadMemoryInternal@K@@YAH_KAEAK0@Z 000000018008000c     TriggerBot.obj
 0002:0001600c       $unwind$??$ReadMemoryInternal@_K@@YAH_KAEA_K0@Z 000000018008000c     TriggerBot.obj
 0002:00016018       $unwind$?MenuESP@@YAXXZ    0000000180080018     d3d.obj
 0002:0001604c       $unwind$?MenuAimBot@@YAXXZ 000000018008004c     d3d.obj
 0002:00016078       $unwind$?RenderUI@@YAXXZ   0000000180080078     d3d.obj
 0002:000160a8       $unwind$?InitiateImGui@@YAXXZ 00000001800800a8     d3d.obj
 0002:000160bc       $cppxdata$?InitiateImGui@@YAXXZ 00000001800800bc     d3d.obj
 0002:000160c5       $stateUnwindMap$?InitiateImGui@@YAXXZ 00000001800800c5     d3d.obj
 0002:000160cb       $ip2state$?InitiateImGui@@YAXXZ 00000001800800cb     d3d.obj
 0002:000160d0       $unwind$?WndProc@@YA_JQEAUHWND__@@I_K_J@Z 00000001800800d0     d3d.obj
 0002:000160d0       $unwind$__acrt_fp_strflt_to_string 00000001800800d0     libucrt:_fptostr.obj
 0002:000160d0       $unwind$??$common_lseek_nolock@_J@@YA_JH_JHAEAV__crt_cached_ptd_host@@@Z 00000001800800d0     libucrt:lseek.obj
 0002:000160d0       $unwind$_invalid_parameter_internal 00000001800800d0     libucrt:invalid_parameter.obj
 0002:000160d0       $unwind$??R<lambda_26974eb511f701c600fccfa2a97a8e1b>@@QEBA_KXZ 00000001800800d0     libucrt:fwrite.obj
 0002:000160e4       $unwind$?hkPresent@@YAJPEAUIDXGISwapChain@@II@Z 00000001800800e4     d3d.obj
 0002:000160fc       $chain$0$?hkPresent@@YAJPEAUIDXGISwapChain@@II@Z 00000001800800fc     d3d.obj
 0002:00016110       $chain$1$?hkPresent@@YAJPEAUIDXGISwapChain@@II@Z 0000000180080110     d3d.obj
 0002:00016124       $chain$2$?hkPresent@@YAJPEAUIDXGISwapChain@@II@Z 0000000180080124     d3d.obj
 0002:00016134       $chain$3$?hkPresent@@YAJPEAUIDXGISwapChain@@II@Z 0000000180080134     d3d.obj
 0002:00016144       $unwind$?InitializeOffsets@@YAHXZ 0000000180080144     Hooks.obj
 0002:00016164       $cppxdata$?InitializeOffsets@@YAHXZ 0000000180080164     Hooks.obj
 0002:0001616d       $stateUnwindMap$?InitializeOffsets@@YAHXZ 000000018008016d     Hooks.obj
 0002:00016174       $ip2state$?InitializeOffsets@@YAHXZ 0000000180080174     Hooks.obj
 0002:00016190       $unwind$?InitializeRender@@YAHXZ 0000000180080190     Hooks.obj
 0002:000161bc       $cppxdata$?InitializeRender@@YAHXZ 00000001800801bc     Hooks.obj
 0002:000161c5       $stateUnwindMap$?InitializeRender@@YAHXZ 00000001800801c5     Hooks.obj
 0002:000161d0       $ip2state$?InitializeRender@@YAHXZ 00000001800801d0     Hooks.obj
 0002:000161dc       $unwind$?dtor$0@?0??InitializeRender@@YAHXZ@4HA 00000001800801dc     Hooks.obj
 0002:000161dc       $unwind$?dtor$3@?0??InitializeRender@@YAHXZ@4HA 00000001800801dc     Hooks.obj
 0002:000161e8       $unwind$??1?$ImPool@UImGuiTabBar@@@@QEAA@XZ 00000001800801e8     imgui.obj
 0002:000161e8       $unwind$??1ImDrawListSplitter@@QEAA@XZ 00000001800801e8     imgui.obj
 0002:000161e8       $unwind$??1ImFont@@QEAA@XZ 00000001800801e8     imgui_draw.obj
 0002:000161f8       $cppxdata$??1?$ImPool@UImGuiTabBar@@@@QEAA@XZ 00000001800801f8     imgui.obj
 0002:000161f8       $cppxdata$??1ImDrawListSplitter@@QEAA@XZ 00000001800801f8     imgui.obj
 0002:000161f8       $cppxdata$??1ImFont@@QEAA@XZ 00000001800801f8     imgui_draw.obj
 0002:00016201       $stateUnwindMap$??1?$ImChunkStream@UImGuiWindowSettings@@@@QEAA@XZ 0000000180080201     imgui.obj
 0002:00016201       $stateUnwindMap$??1?$ImPool@UImGuiTabBar@@@@QEAA@XZ 0000000180080201     imgui.obj
 0002:00016201       $stateUnwindMap$??1ImDrawListSplitter@@QEAA@XZ 0000000180080201     imgui.obj
 0002:00016201       $stateUnwindMap$??1ImGuiIO@@QEAA@XZ 0000000180080201     imgui.obj
 0002:00016201       $stateUnwindMap$??1ImGuiInputTextState@@QEAA@XZ 0000000180080201     imgui.obj
 0002:00016201       $stateUnwindMap$??1ImGuiStorage@@QEAA@XZ 0000000180080201     imgui.obj
 0002:00016201       $stateUnwindMap$??1ImGuiTextBuffer@@QEAA@XZ 0000000180080201     imgui.obj
 0002:00016201       $stateUnwindMap$??1ImGuiWindowTempData@@QEAA@XZ 0000000180080201     imgui.obj
 0002:00016201       $stateUnwindMap$??__Fbuf_local@?1??GetClipboardTextFn_DefaultImpl@@YAPEBDPEAX@Z@YAXXZ 0000000180080201     imgui.obj
 0002:00016201       $stateUnwindMap$?Clear@?$ImPool@UImGuiTabBar@@@@QEAAXXZ 0000000180080201     imgui.obj
 0002:00016201       $stateUnwindMap$??1ImFont@@QEAA@XZ 0000000180080201     imgui_draw.obj
 0002:00016207       $ip2state$??1?$ImPool@UImGuiTabBar@@@@QEAA@XZ 0000000180080207     imgui.obj
 0002:00016207       $ip2state$??1ImDrawListSplitter@@QEAA@XZ 0000000180080207     imgui.obj
 0002:00016207       $ip2state$??1ImFont@@QEAA@XZ 0000000180080207     imgui_draw.obj
 0002:0001620c       $unwind$??0ImDrawList@@QEAA@PEBUImDrawListSharedData@@@Z 000000018008020c     imgui.obj
 0002:00016228       $cppxdata$??0ImDrawList@@QEAA@PEBUImDrawListSharedData@@@Z 0000000180080228     imgui.obj
 0002:00016231       $stateUnwindMap$??0ImDrawList@@QEAA@PEBUImDrawListSharedData@@@Z 0000000180080231     imgui.obj
 0002:00016256       $ip2state$??0ImDrawList@@QEAA@PEBUImDrawListSharedData@@@Z 0000000180080256     imgui.obj
 0002:00016256       $ip2state$??1?$ImChunkStream@UImGuiWindowSettings@@@@QEAA@XZ 0000000180080256     imgui.obj
 0002:00016256       $ip2state$??1?$ImVector@D@@QEAA@XZ 0000000180080256     imgui.obj
 0002:00016256       $ip2state$??1?$ImVector@E@@QEAA@XZ 0000000180080256     imgui.obj
 0002:00016256       $ip2state$??1?$ImVector@G@@QEAA@XZ 0000000180080256     imgui.obj
 0002:00016256       $ip2state$??1?$ImVector@I@@QEAA@XZ 0000000180080256     imgui.obj
 0002:00016256       $ip2state$??1?$ImVector@PEAUImDrawList@@@@QEAA@XZ 0000000180080256     imgui.obj
 0002:00016256       $ip2state$??1?$ImVector@PEAUImFont@@@@QEAA@XZ 0000000180080256     imgui.obj
 0002:00016256       $ip2state$??1?$ImVector@PEAUImGuiWindow@@@@QEAA@XZ 0000000180080256     imgui.obj
 0002:00016256       $ip2state$??1?$ImVector@PEAX@@QEAA@XZ 0000000180080256     imgui.obj
 0002:00016256       $ip2state$??1?$ImVector@UImDrawCmd@@@@QEAA@XZ 0000000180080256     imgui.obj
 0002:00016256       $ip2state$??1?$ImVector@UImDrawVert@@@@QEAA@XZ 0000000180080256     imgui.obj
 0002:00016256       $ip2state$??1?$ImVector@UImGuiColorMod@@@@QEAA@XZ 0000000180080256     imgui.obj
 0002:00016256       $ip2state$??1?$ImVector@UImGuiColumns@@@@QEAA@XZ 0000000180080256     imgui.obj
 0002:00016256       $ip2state$??1?$ImVector@UImGuiPopupData@@@@QEAA@XZ 0000000180080256     imgui.obj
 0002:00016256       $ip2state$??1?$ImVector@UImGuiPtrOrIndex@@@@QEAA@XZ 0000000180080256     imgui.obj
 0002:00016256       $ip2state$??1?$ImVector@UImGuiSettingsHandler@@@@QEAA@XZ 0000000180080256     imgui.obj
 0002:00016256       $ip2state$??1?$ImVector@UImGuiShrinkWidthItem@@@@QEAA@XZ 0000000180080256     imgui.obj
 0002:00016256       $ip2state$??1?$ImVector@UImGuiStyleMod@@@@QEAA@XZ 0000000180080256     imgui.obj
 0002:00016256       $ip2state$??1?$ImVector@UImVec2@@@@QEAA@XZ 0000000180080256     imgui.obj
 0002:00016256       $ip2state$??1?$ImVector@UImVec4@@@@QEAA@XZ 0000000180080256     imgui.obj
 0002:00016256       $ip2state$??1ImGuiIO@@QEAA@XZ 0000000180080256     imgui.obj
 0002:00016256       $ip2state$??1ImGuiInputTextState@@QEAA@XZ 0000000180080256     imgui.obj
 0002:00016256       $ip2state$??1ImGuiStorage@@QEAA@XZ 0000000180080256     imgui.obj
 0002:00016256       $ip2state$??1ImGuiTextBuffer@@QEAA@XZ 0000000180080256     imgui.obj
 0002:00016256       $ip2state$??1ImGuiWindowTempData@@QEAA@XZ 0000000180080256     imgui.obj
 0002:00016256       $ip2state$??__Fbuf_local@?1??GetClipboardTextFn_DefaultImpl@@YAPEBDPEAX@Z@YAXXZ 0000000180080256     imgui.obj
 0002:00016256       $ip2state$?Clear@?$ImPool@UImGuiTabBar@@@@QEAAXXZ 0000000180080256     imgui.obj
 0002:00016256       $ip2state$?ImFileOpen@@YAPEAU_iobuf@@PEBD0@Z 0000000180080256     imgui.obj
 0002:00016256       $ip2state$??1?$ImVector@UImFontBuildDstData@@@@QEAA@XZ 0000000180080256     imgui_draw.obj
 0002:00016256       $ip2state$??1?$ImVector@UImFontBuildSrcData@@@@QEAA@XZ 0000000180080256     imgui_draw.obj
 0002:00016256       $ip2state$??1?$ImVector@Ustbrp_rect@@@@QEAA@XZ 0000000180080256     imgui_draw.obj
 0002:00016256       $ip2state$??1?$ImVector@Ustbtt_packedchar@@@@QEAA@XZ 0000000180080256     imgui_draw.obj
 0002:00016256       $ip2state$?ImFontAtlasBuildPackCustomRects@@YAXPEAUImFontAtlas@@PEAX@Z 0000000180080256     imgui_draw.obj
 0002:00016258       $unwind$??1ImDrawList@@QEAA@XZ 0000000180080258     imgui.obj
 0002:0001626c       $cppxdata$??1ImDrawList@@QEAA@XZ 000000018008026c     imgui.obj
 0002:00016275       $stateUnwindMap$??1ImDrawList@@QEAA@XZ 0000000180080275     imgui.obj
 0002:00016280       $ip2state$??1ImDrawList@@QEAA@XZ 0000000180080280     imgui.obj
 0002:00016288       $unwind$sscanf             0000000180080288     imgui.obj
 0002:00016294       $unwind$??0ImGuiContext@@QEAA@PEAUImFontAtlas@@@Z 0000000180080294     imgui.obj
 0002:000162c0       $cppxdata$??0ImGuiContext@@QEAA@PEAUImFontAtlas@@@Z 00000001800802c0     imgui.obj
 0002:000162c9       $stateUnwindMap$??0ImGuiContext@@QEAA@PEAUImFontAtlas@@@Z 00000001800802c9     imgui.obj
 0002:0001634c       $ip2state$??0ImGuiContext@@QEAA@PEAUImFontAtlas@@@Z 000000018008034c     imgui.obj
 0002:00016358       $unwind$??1?$ImChunkStream@UImGuiWindowSettings@@@@QEAA@XZ 0000000180080358     imgui.obj
 0002:00016358       $unwind$??1ImGuiIO@@QEAA@XZ 0000000180080358     imgui.obj
 0002:00016358       $unwind$??1ImGuiStorage@@QEAA@XZ 0000000180080358     imgui.obj
 0002:00016358       $unwind$??1ImGuiTextBuffer@@QEAA@XZ 0000000180080358     imgui.obj
 0002:00016368       $cppxdata$??1?$ImChunkStream@UImGuiWindowSettings@@@@QEAA@XZ 0000000180080368     imgui.obj
 0002:00016368       $cppxdata$??1ImGuiIO@@QEAA@XZ 0000000180080368     imgui.obj
 0002:00016368       $cppxdata$??1ImGuiInputTextState@@QEAA@XZ 0000000180080368     imgui.obj
 0002:00016368       $cppxdata$??1ImGuiStorage@@QEAA@XZ 0000000180080368     imgui.obj
 0002:00016368       $cppxdata$??1ImGuiTextBuffer@@QEAA@XZ 0000000180080368     imgui.obj
 0002:00016368       $cppxdata$??1ImGuiWindowTempData@@QEAA@XZ 0000000180080368     imgui.obj
 0002:00016374       $unwind$??1ImDrawDataBuilder@@QEAA@XZ 0000000180080374     imgui.obj
 0002:00016384       $cppxdata$??1ImDrawDataBuilder@@QEAA@XZ 0000000180080384     imgui.obj
 0002:00016389       $ip2state$??1ImDrawDataBuilder@@QEAA@XZ 0000000180080389     imgui.obj
 0002:0001638c       $unwind$??1ImGuiInputTextState@@QEAA@XZ 000000018008038c     imgui.obj
 0002:0001638c       $unwind$??1ImGuiWindowTempData@@QEAA@XZ 000000018008038c     imgui.obj
 0002:0001639c       $unwind$?ImTriangleClosestPoint@@YA?AUImVec2@@AEBU1@000@Z 000000018008039c     imgui.obj
 0002:000163cc       $unwind$?ImFormatString@@YAHPEAD_KPEBDZZ 00000001800803cc     imgui.obj
 0002:000163dc       $unwind$?ImHashStr@@YAIPEBD_KI@Z 00000001800803dc     imgui.obj
 0002:000163dc       $unwind$??$ImAtoi@H@@YAPEBDPEBDPEAH@Z 00000001800803dc     imgui_widgets.obj
 0002:000163dc       $unwind$??$ImAtoi@_J@@YAPEBDPEBDPEA_J@Z 00000001800803dc     imgui_widgets.obj
 0002:000163dc       $unwind$??$parse_floating_point_possible_nan_is_ind@DV?$input_adapter_character_source@V?$string_input_adapter@D@__crt_stdio_input@@@__crt_strtox@@@__crt_strtox@@YA_NAEADAEAV?$input_adapter_character_source@V?$string_input_adapter@D@__crt_stdio_input@@@0@@Z 00000001800803dc     libucrt:input.obj
 0002:000163dc       $unwind$??$parse_floating_point_possible_nan_is_snan@DV?$input_adapter_character_source@V?$string_input_adapter@D@__crt_stdio_input@@@__crt_strtox@@@__crt_strtox@@YA_NAEADAEAV?$input_adapter_character_source@V?$string_input_adapter@D@__crt_stdio_input@@@0@@Z 00000001800803dc     libucrt:input.obj
 0002:000163dc       $unwind$??$type_case_integer_parse_into_buffer@I$09@?$output_processor@DV?$string_output_adapter@D@__crt_stdio_output@@V?$standard_base@DV?$string_output_adapter@D@__crt_stdio_output@@@2@@__crt_stdio_output@@AEAAXI_N@Z 00000001800803dc     libucrt:output.obj
 0002:000163dc       $unwind$??$type_case_integer_parse_into_buffer@_K$09@?$output_processor@DV?$string_output_adapter@D@__crt_stdio_output@@V?$standard_base@DV?$string_output_adapter@D@__crt_stdio_output@@@2@@__crt_stdio_output@@AEAAX_K_N@Z 00000001800803dc     libucrt:output.obj
 0002:000163dc       $unwind$strrchr            00000001800803dc     libvcruntime:strrchr.obj
 0002:000163e4       $unwind$?ImFileOpen@@YAPEAU_iobuf@@PEBD0@Z 00000001800803e4     imgui.obj
 0002:00016404       $cppxdata$?ImFileOpen@@YAPEAU_iobuf@@PEBD0@Z 0000000180080404     imgui.obj
 0002:0001640d       $stateUnwindMap$?ImFileOpen@@YAPEAU_iobuf@@PEBD0@Z 000000018008040d     imgui.obj
 0002:0001641c       $unwind$?ImFileLoadToMemory@@YAPEAXPEBD0PEA_KH@Z 000000018008041c     imgui.obj
 0002:00016430       $unwind$?ImTextStrFromUtf8@@YAHPEAGHPEBD1PEAPEBD@Z 0000000180080430     imgui.obj
 0002:00016438       $chain$0$?ImTextStrFromUtf8@@YAHPEAGHPEBD1PEAPEBD@Z 0000000180080438     imgui.obj
 0002:0001644c       $chain$1$?ImTextStrFromUtf8@@YAHPEAGHPEBD1PEAPEBD@Z 000000018008044c     imgui.obj
 0002:00016460       $chain$2$?ImTextStrFromUtf8@@YAHPEAGHPEBD1PEAPEBD@Z 0000000180080460     imgui.obj
 0002:00016470       $chain$3$?ImTextStrFromUtf8@@YAHPEAGHPEBD1PEAPEBD@Z 0000000180080470     imgui.obj
 0002:00016480       $unwind$?ImTextCountCharsFromUtf8@@YAHPEBD0@Z 0000000180080480     imgui.obj
 0002:00016488       $unwind$?FindWindowNavFocusable@@YAPEAUImGuiWindow@@HHH@Z 0000000180080488     imgui.obj
 0002:00016488       $unwind$?ImTextStrToUtf8@@YAHPEADHPEBG1@Z 0000000180080488     imgui.obj
 0002:00016488       $unwind$?PopStyleVar@ImGui@@YAXH@Z 0000000180080488     imgui.obj
 0002:00016488       $unwind$?stbtt__find_table@@YAIPEAEIPEBD@Z 0000000180080488     imgui_draw.obj
 0002:00016488       $unwind$?SetColumnOffset@ImGui@@YAXHM@Z 0000000180080488     imgui_widgets.obj
 0002:00016488       $unwind$strstr             0000000180080488     libvcruntime:strstr.obj
 0002:00016494       $unwind$?ColorConvertRGBtoHSV@ImGui@@YAXMMMAEAM00@Z 0000000180080494     imgui.obj
 0002:000164a0       $unwind$?ColorConvertHSVtoRGB@ImGui@@YAXMMMAEAM00@Z 00000001800804a0     imgui.obj
 0002:000164b0       $chain$0$?ColorConvertHSVtoRGB@ImGui@@YAXMMMAEAM00@Z 00000001800804b0     imgui.obj
 0002:000164c4       $chain$1$?ColorConvertHSVtoRGB@ImGui@@YAXMMMAEAM00@Z 00000001800804c4     imgui.obj
 0002:000164d4       $unwind$?appendf@ImGuiTextBuffer@@QEAAXPEBDZZ 00000001800804d4     imgui.obj
 0002:000164dc       $unwind$?appendfv@ImGuiTextBuffer@@QEAAXPEBDPEAD@Z 00000001800804dc     imgui.obj
 0002:000164f0       $chain$0$?appendfv@ImGuiTextBuffer@@QEAAXPEBDPEAD@Z 00000001800804f0     imgui.obj
 0002:00016504       $chain$1$?appendfv@ImGuiTextBuffer@@QEAAXPEBDPEAD@Z 0000000180080504     imgui.obj
 0002:00016518       $chain$2$?appendfv@ImGuiTextBuffer@@QEAAXPEBDPEAD@Z 0000000180080518     imgui.obj
 0002:00016528       $chain$3$?appendfv@ImGuiTextBuffer@@QEAAXPEBDPEAD@Z 0000000180080528     imgui.obj
 0002:00016538       $unwind$?RenderText@ImGui@@YAXUImVec2@@PEBD1_N@Z 0000000180080538     imgui.obj
 0002:0001654c       $unwind$?RenderTextClippedEx@ImGui@@YAXPEAUImDrawList@@AEBUImVec2@@1PEBD2PEBU3@1PEBUImRect@@@Z 000000018008054c     imgui.obj
 0002:00016574       $unwind$?RenderTextClipped@ImGui@@YAXAEBUImVec2@@0PEBD1PEBU2@0PEBUImRect@@@Z 0000000180080574     imgui.obj
 0002:00016584       $chain$0$?RenderTextClipped@ImGui@@YAXAEBUImVec2@@0PEBD1PEBU2@0PEBUImRect@@@Z 0000000180080584     imgui.obj
 0002:00016598       $chain$1$?RenderTextClipped@ImGui@@YAXAEBUImVec2@@0PEBD1PEBU2@0PEBUImRect@@@Z 0000000180080598     imgui.obj
 0002:000165a8       $unwind$?RenderFrame@ImGui@@YAXUImVec2@@0I_NM@Z 00000001800805a8     imgui.obj
 0002:000165bc       $chain$0$?RenderFrame@ImGui@@YAXUImVec2@@0I_NM@Z 00000001800805bc     imgui.obj
 0002:000165d0       $chain$2$?RenderFrame@ImGui@@YAXUImVec2@@0I_NM@Z 00000001800805d0     imgui.obj
 0002:000165e4       $chain$1$?RenderFrame@ImGui@@YAXUImVec2@@0I_NM@Z 00000001800805e4     imgui.obj
 0002:000165f4       $unwind$?RenderFrameBorder@ImGui@@YAXUImVec2@@0M@Z 00000001800805f4     imgui.obj
 0002:00016608       $unwind$?RenderArrow@ImGui@@YAXPEAUImDrawList@@UImVec2@@IHM@Z 0000000180080608     imgui.obj
 0002:00016620       $unwind$?RenderCheckMark@ImGui@@YAXUImVec2@@IM@Z 0000000180080620     imgui.obj
 0002:00016640       $unwind$?RenderNavHighlight@ImGui@@YAXAEBUImRect@@IH@Z 0000000180080640     imgui.obj
 0002:00016650       $chain$0$?RenderNavHighlight@ImGui@@YAXAEBUImRect@@IH@Z 0000000180080650     imgui.obj
 0002:00016664       $chain$5$?RenderNavHighlight@ImGui@@YAXAEBUImRect@@IH@Z 0000000180080664     imgui.obj
 0002:00016688       $chain$7$?RenderNavHighlight@ImGui@@YAXAEBUImRect@@IH@Z 0000000180080688     imgui.obj
 0002:000166a0       $chain$8$?RenderNavHighlight@ImGui@@YAXAEBUImRect@@IH@Z 00000001800806a0     imgui.obj
 0002:000166b0       $chain$9$?RenderNavHighlight@ImGui@@YAXAEBUImRect@@IH@Z 00000001800806b0     imgui.obj
 0002:000166c8       $chain$10$?RenderNavHighlight@ImGui@@YAXAEBUImRect@@IH@Z 00000001800806c8     imgui.obj
 0002:000166d8       $chain$11$?RenderNavHighlight@ImGui@@YAXAEBUImRect@@IH@Z 00000001800806d8     imgui.obj
 0002:000166e8       $unwind$??0ImGuiWindow@@QEAA@PEAUImGuiContext@@PEBD@Z 00000001800806e8     imgui.obj
 0002:0001670c       $cppxdata$??0ImGuiWindow@@QEAA@PEAUImGuiContext@@PEBD@Z 000000018008070c     imgui.obj
 0002:00016715       $stateUnwindMap$??0ImGuiWindow@@QEAA@PEAUImGuiContext@@PEBD@Z 0000000180080715     imgui.obj
 0002:0001672f       $ip2state$??0ImGuiWindow@@QEAA@PEAUImGuiContext@@PEBD@Z 000000018008072f     imgui.obj
 0002:00016734       $unwind$?GetIDFromRectangle@ImGuiWindow@@QEAAIAEBUImRect@@@Z 0000000180080734     imgui.obj
 0002:0001674c       $unwind$?SetFocusID@ImGui@@YAXIPEAUImGuiWindow@@@Z 000000018008074c     imgui.obj
 0002:00016754       $unwind$?ItemSize@ImGui@@YAXAEBUImVec2@@M@Z 0000000180080754     imgui.obj
 0002:00016760       $unwind$?BeginDragDropSource@ImGui@@YA_NH@Z 0000000180080760     imgui.obj
 0002:00016760       $unwind$?ItemAdd@ImGui@@YA_NAEBUImRect@@IPEBU2@@Z 0000000180080760     imgui.obj
 0002:00016760       $unwind$?ImGui_ImplWin32_WndProcHandler@@YA_JPEAUHWND__@@I_K_J@Z 0000000180080760     imgui_impl_win32.obj
 0002:00016760       $unwind$?should_round_up@@YA_NQEBD0HW4__acrt_has_trailing_digits@@W4__acrt_rounding_mode@@@Z 0000000180080760     libucrt:_fptostr.obj
 0002:00016760       $unwind$_recalloc_base     0000000180080760     libucrt:recalloc.obj
 0002:00016760       $unwind$__acrt_free_locale 0000000180080760     libucrt:locale_refcounting.obj
 0002:00016760       $unwind$__acrt_lowio_create_handle_array 0000000180080760     libucrt:osfinfo.obj
 0002:00016760       $unwind$_seh_filter_exe    0000000180080760     libucrt:exception_filter.obj
 0002:00016760       $unwind$__acrt_stdio_flush_nolock 0000000180080760     libucrt:fflush.obj
 0002:00016760       $unwind$_ischartype_l      0000000180080760     libucrt:input.obj
 0002:00016760       $unwind$??$ensure_buffer_is_big_enough@D@formatting_buffer@__crt_stdio_output@@QEAA_N_KAEAV__crt_cached_ptd_host@@@Z 0000000180080760     libucrt:output.obj
 0002:00016760       $unwind$__scrt_dllmain_exception_filter 0000000180080760     LIBCMT:utility.obj
 0002:00016760       $unwind$?GetHandlerSearchState@__FrameHandler3@@SAHPEA_KPEAU_xDISPATCHER_CONTEXT@@PEBU_s_FuncInfo@@@Z 0000000180080760     libvcruntime:frame.obj
 0002:00016760       $unwind$?Is_bad_exception_allowed@@YAEPEBU_s_ESTypeList@@@Z 0000000180080760     libvcruntime:frame.obj
 0002:00016760       $unwind$?CatchTryBlock@__FrameHandler3@@SAPEBU_s_TryBlockMapEntry@@PEBU_s_FuncInfo@@H@Z 0000000180080760     libvcruntime:risctrnsctrl.obj
 0002:00016774       $unwind$?ItemHoverable@ImGui@@YA_NAEBUImRect@@I@Z 0000000180080774     imgui.obj
 0002:00016774       $unwind$?x_ismbbtype_l@@YAHPEAU__crt_locale_pointers@@IHH@Z 0000000180080774     libucrt:ismbbyte.obj
 0002:00016774       $unwind$_strnicmp_l        0000000180080774     libucrt:strnicmp.obj
 0002:00016784       $chain$0$?UpdateMouseMovingWindowEndFrame@ImGui@@YAXXZ 0000000180080784     imgui.obj
 0002:00016798       $chain$1$?UpdateMouseMovingWindowEndFrame@ImGui@@YAXXZ 0000000180080798     imgui.obj
 0002:000167ac       $chain$2$?UpdateMouseMovingWindowEndFrame@ImGui@@YAXXZ 00000001800807ac     imgui.obj
 0002:000167bc       $chain$3$?UpdateMouseMovingWindowEndFrame@ImGui@@YAXXZ 00000001800807bc     imgui.obj
 0002:000167cc       $unwind$?UpdateMouseInputs@ImGui@@YAXXZ 00000001800807cc     imgui.obj
 0002:000167e0       $unwind$?SetItemDefaultFocus@ImGui@@YAXXZ 00000001800807e0     imgui.obj
 0002:000167e0       $unwind$?UpdateMouseWheel@ImGui@@YAXXZ 00000001800807e0     imgui.obj
 0002:000167e0       $unwind$?stbtt__handle_clipped_edge@@YAXPEAMHPEAUstbtt__active_edge@@MMMM@Z 00000001800807e0     imgui_draw.obj
 0002:000167e0       $unwind$??$SliderCalcRatioFromValueT@MM@ImGui@@YAMHMMMMM@Z 00000001800807e0     imgui_widgets.obj
 0002:000167e0       $unwind$?PatchFormatStringFloatToInt@@YAPEBDPEBD@Z 00000001800807e0     imgui_widgets.obj
 0002:000167e0       $unwind$_sopen_s           00000001800807e0     libucrt:open.obj
 0002:000167e0       $unwind$_wsopen_s          00000001800807e0     libucrt:open.obj
 0002:000167e0       $unwind$_invalid_parameter_noinfo 00000001800807e0     libucrt:invalid_parameter.obj
 0002:000167e0       $unwind$_invalid_parameter_noinfo_noreturn 00000001800807e0     libucrt:invalid_parameter.obj
 0002:000167e0       $unwind$fflush             00000001800807e0     libucrt:fflush.obj
 0002:000167e0       $unwind$fread              00000001800807e0     libucrt:fread.obj
 0002:000167e0       $unwind$freopen_s          00000001800807e0     libucrt:freopen.obj
 0002:000167e0       $unwind$??$parse_floating_point_write_result@M@__crt_strtox@@YA?AW4SLD_STATUS@@W4floating_point_parse_result@0@AEBUfloating_point_string@0@QEAM@Z 00000001800807e0     libucrt:input.obj
 0002:000167e0       $unwind$??$parse_floating_point_write_result@N@__crt_strtox@@YA?AW4SLD_STATUS@@W4floating_point_parse_result@0@AEBUfloating_point_string@0@QEAN@Z 00000001800807e0     libucrt:input.obj
 0002:000167e0       $unwind$?as_double@floating_point_value@__crt_strtox@@QEBAAEANXZ 00000001800807e0     libucrt:input.obj
 0002:000167e0       $unwind$?as_float@floating_point_value@__crt_strtox@@QEBAAEAMXZ 00000001800807e0     libucrt:input.obj
 0002:000167e0       $unwind$?state_case_size@?$output_processor@DV?$string_output_adapter@D@__crt_stdio_output@@V?$standard_base@DV?$string_output_adapter@D@__crt_stdio_output@@@2@@__crt_stdio_output@@AEAA_NXZ 00000001800807e0     libucrt:output.obj
 0002:000167e0       $unwind$_log10_special     00000001800807e0     libucrt:log_special.obj
 0002:000167e0       $unwind$?detour_free_unused_trampoline_regions@@YAXXZ 00000001800807e0     detours:detours.obj
 0002:000167e0       $unwind$?detour_writable_trampoline_regions@@YAXXZ 00000001800807e0     detours:detours.obj
 0002:000167e0       $unwind$DetourTransactionBegin 00000001800807e0     detours:detours.obj
 0002:000167e8       $chain$0$?UpdateMouseWheel@ImGui@@YAXXZ 00000001800807e8     imgui.obj
 0002:000167fc       $chain$1$?UpdateMouseWheel@ImGui@@YAXXZ 00000001800807fc     imgui.obj
 0002:0001680c       $unwind$?UpdateHoveredWindowAndCaptureFlags@ImGui@@YAXXZ 000000018008080c     imgui.obj
 0002:0001680c       $unwind$__dcrt_lowio_ensure_console_output_initialized 000000018008080c     libucrt:initcon.obj
 0002:0001680c       $unwind$?__mbrtowc_utf8@__crt_mbstring@@YA_KPEA_WPEBD_KPEAU_Mbstatet@@AEAV__crt_cached_ptd_host@@@Z 000000018008080c     libucrt:mbrtowc.obj
 0002:0001680c       $unwind$?getSystemCP@@YAHH@Z 000000018008080c     libucrt:mbctype.obj
 0002:00016814       $chain$2$?UpdateHoveredWindowAndCaptureFlags@ImGui@@YAXXZ 0000000180080814     imgui.obj
 0002:00016830       $chain$3$?UpdateHoveredWindowAndCaptureFlags@ImGui@@YAXXZ 0000000180080830     imgui.obj
 0002:00016840       $unwind$?NewFrame@ImGui@@YAXXZ 0000000180080840     imgui.obj
 0002:00016854       $chain$0$?NewFrame@ImGui@@YAXXZ 0000000180080854     imgui.obj
 0002:00016868       $chain$1$?NewFrame@ImGui@@YAXXZ 0000000180080868     imgui.obj
 0002:0001687c       $chain$2$?NewFrame@ImGui@@YAXXZ 000000018008087c     imgui.obj
 0002:0001688c       $chain$3$?NewFrame@ImGui@@YAXXZ 000000018008088c     imgui.obj
 0002:0001689c       $unwind$?Initialize@ImGui@@YAXPEAUImGuiContext@@@Z 000000018008089c     imgui.obj
 0002:000168a8       $chain$0$?Initialize@ImGui@@YAXPEAUImGuiContext@@@Z 00000001800808a8     imgui.obj
 0002:000168bc       $chain$1$?Initialize@ImGui@@YAXPEAUImGuiContext@@@Z 00000001800808bc     imgui.obj
 0002:000168cc       $unwind$?AddWindowToSortBuffer@@YAXPEAU?$ImVector@PEAUImGuiWindow@@@@PEAUImGuiWindow@@@Z 00000001800808cc     imgui.obj
 0002:000168d8       $chain$0$?AddWindowToSortBuffer@@YAXPEAU?$ImVector@PEAUImGuiWindow@@@@PEAUImGuiWindow@@@Z 00000001800808d8     imgui.obj
 0002:000168ec       $chain$1$?AddWindowToSortBuffer@@YAXPEAU?$ImVector@PEAUImGuiWindow@@@@PEAUImGuiWindow@@@Z 00000001800808ec     imgui.obj
 0002:00016900       $chain$2$?AddWindowToSortBuffer@@YAXPEAU?$ImVector@PEAUImGuiWindow@@@@PEAUImGuiWindow@@@Z 0000000180080900     imgui.obj
 0002:00016910       $chain$3$?AddWindowToSortBuffer@@YAXPEAU?$ImVector@PEAUImGuiWindow@@@@PEAUImGuiWindow@@@Z 0000000180080910     imgui.obj
 0002:00016920       $unwind$?AddWindowToDrawData@@YAXPEAU?$ImVector@PEAUImDrawList@@@@PEAUImGuiWindow@@@Z 0000000180080920     imgui.obj
 0002:00016930       $chain$0$?AddWindowToDrawData@@YAXPEAU?$ImVector@PEAUImDrawList@@@@PEAUImGuiWindow@@@Z 0000000180080930     imgui.obj
 0002:00016944       $chain$1$?AddWindowToDrawData@@YAXPEAU?$ImVector@PEAUImDrawList@@@@PEAUImGuiWindow@@@Z 0000000180080944     imgui.obj
 0002:00016954       $unwind$?EndFrame@ImGui@@YAXXZ 0000000180080954     imgui.obj
 0002:00016960       $chain$0$?EndFrame@ImGui@@YAXXZ 0000000180080960     imgui.obj
 0002:00016974       $chain$2$?EndFrame@ImGui@@YAXXZ 0000000180080974     imgui.obj
 0002:0001698c       $chain$3$?EndFrame@ImGui@@YAXXZ 000000018008098c     imgui.obj
 0002:0001699c       $chain$4$?EndFrame@ImGui@@YAXXZ 000000018008099c     imgui.obj
 0002:000169ac       $unwind$?Render@ImGui@@YAXXZ 00000001800809ac     imgui.obj
 0002:000169ac       $unwind$?insert@?$ImVector@UImGuiStoragePair@ImGuiStorage@@@@QEAAPEAUImGuiStoragePair@ImGuiStorage@@PEBU23@AEBU23@@Z 00000001800809ac     imgui.obj
 0002:000169c8       $unwind$?IsMouseHoveringRect@ImGui@@YA_NAEBUImVec2@@0_N@Z 00000001800809c8     imgui.obj
 0002:000169d4       $unwind$?BeginChildEx@ImGui@@YA_NPEBDIAEBUImVec2@@_NH@Z 00000001800809d4     imgui.obj
 0002:000169fc       $unwind$?EndChild@ImGui@@YAXXZ 00000001800809fc     imgui.obj
 0002:00016a0c       $chain$4$?EndChild@ImGui@@YAXXZ 0000000180080a0c     imgui.obj
 0002:00016a30       $chain$5$?EndChild@ImGui@@YAXXZ 0000000180080a30     imgui.obj
 0002:00016a50       $chain$6$?EndChild@ImGui@@YAXXZ 0000000180080a50     imgui.obj
 0002:00016a60       $unwind$?BeginChildFrame@ImGui@@YA_NIAEBUImVec2@@H@Z 0000000180080a60     imgui.obj
 0002:00016a60       $unwind$?fp_format_f@@YAHQEBNQEAD_K12HW4__acrt_rounding_mode@@AEAV__crt_cached_ptd_host@@@Z 0000000180080a60     libucrt:cvt.obj
 0002:00016a60       $unwind$__acrt_LCMapStringEx 0000000180080a60     libucrt:winapi_thunks.obj
 0002:00016a60       $unwind$__acrt_LCMapStringW 0000000180080a60     libucrt:lcmapstringw.obj
 0002:00016a74       $unwind$?CreateNewWindow@@YAPEAUImGuiWindow@@PEBDUImVec2@@H@Z 0000000180080a74     imgui.obj
 0002:00016a8c       $cppxdata$?CreateNewWindow@@YAPEAUImGuiWindow@@PEBDUImVec2@@H@Z 0000000180080a8c     imgui.obj
 0002:00016a95       $stateUnwindMap$?CreateNewWindow@@YAPEAUImGuiWindow@@PEBDUImVec2@@H@Z 0000000180080a95     imgui.obj
 0002:00016a9b       $ip2state$?CreateNewWindow@@YAPEAUImGuiWindow@@PEBDUImVec2@@H@Z 0000000180080a9b     imgui.obj
 0002:00016aa4       $unwind$?CalcWindowSizeAfterConstraint@@YA?AUImVec2@@PEAUImGuiWindow@@U1@@Z 0000000180080aa4     imgui.obj
 0002:00016ab8       $unwind$?CalcWindowAutoFitSize@@YA?AUImVec2@@PEAUImGuiWindow@@AEBU1@@Z 0000000180080ab8     imgui.obj
 0002:00016adc       $chain$0$?CalcWindowAutoFitSize@@YA?AUImVec2@@PEAUImGuiWindow@@AEBU1@@Z 0000000180080adc     imgui.obj
 0002:00016af0       $chain$2$?CalcWindowAutoFitSize@@YA?AUImVec2@@PEAUImGuiWindow@@AEBU1@@Z 0000000180080af0     imgui.obj
 0002:00016b08       $chain$3$?CalcWindowAutoFitSize@@YA?AUImVec2@@PEAUImGuiWindow@@AEBU1@@Z 0000000180080b08     imgui.obj
 0002:00016b1c       $chain$4$?CalcWindowAutoFitSize@@YA?AUImVec2@@PEAUImGuiWindow@@AEBU1@@Z 0000000180080b1c     imgui.obj
 0002:00016b2c       $unwind$?GetResizeBorderRect@@YA?AUImRect@@PEAUImGuiWindow@@HMM@Z 0000000180080b2c     imgui.obj
 0002:00016b38       $unwind$?UpdateManualResize@ImGui@@YA_NPEAUImGuiWindow@@AEBUImVec2@@PEAHHQEAI@Z 0000000180080b38     imgui.obj
 0002:00016b4c       $chain$12$?UpdateManualResize@ImGui@@YA_NPEAUImGuiWindow@@AEBUImVec2@@PEAHHQEAI@Z 0000000180080b4c     imgui.obj
 0002:00016b90       $chain$13$?UpdateManualResize@ImGui@@YA_NPEAUImGuiWindow@@AEBUImVec2@@PEAHHQEAI@Z 0000000180080b90     imgui.obj
 0002:00016bc4       $chain$14$?UpdateManualResize@ImGui@@YA_NPEAUImGuiWindow@@AEBUImVec2@@PEAHHQEAI@Z 0000000180080bc4     imgui.obj
 0002:00016bf0       $chain$15$?UpdateManualResize@ImGui@@YA_NPEAUImGuiWindow@@AEBUImVec2@@PEAHHQEAI@Z 0000000180080bf0     imgui.obj
 0002:00016c10       $chain$16$?UpdateManualResize@ImGui@@YA_NPEAUImGuiWindow@@AEBUImVec2@@PEAHHQEAI@Z 0000000180080c10     imgui.obj
 0002:00016c20       $unwind$?RenderWindowOuterBorders@ImGui@@YAXPEAUImGuiWindow@@@Z 0000000180080c20     imgui.obj
 0002:00016c34       $chain$2$?RenderWindowOuterBorders@ImGui@@YAXPEAUImGuiWindow@@@Z 0000000180080c34     imgui.obj
 0002:00016c50       $chain$6$?RenderWindowOuterBorders@ImGui@@YAXPEAUImGuiWindow@@@Z 0000000180080c50     imgui.obj
 0002:00016c70       $chain$7$?RenderWindowOuterBorders@ImGui@@YAXPEAUImGuiWindow@@@Z 0000000180080c70     imgui.obj
 0002:00016c80       $chain$8$?RenderWindowOuterBorders@ImGui@@YAXPEAUImGuiWindow@@@Z 0000000180080c80     imgui.obj
 0002:00016c90       $unwind$?RenderWindowDecorations@ImGui@@YAXPEAUImGuiWindow@@AEBUImRect@@_NHQEBIM@Z 0000000180080c90     imgui.obj
 0002:00016cbc       $chain$0$?RenderWindowDecorations@ImGui@@YAXPEAUImGuiWindow@@AEBUImRect@@_NHQEBIM@Z 0000000180080cbc     imgui.obj
 0002:00016cd0       $chain$2$?RenderWindowDecorations@ImGui@@YAXPEAUImGuiWindow@@AEBUImRect@@_NHQEBIM@Z 0000000180080cd0     imgui.obj
 0002:00016ce8       $chain$4$?RenderWindowDecorations@ImGui@@YAXPEAUImGuiWindow@@AEBUImRect@@_NHQEBIM@Z 0000000180080ce8     imgui.obj
 0002:00016d00       $chain$5$?RenderWindowDecorations@ImGui@@YAXPEAUImGuiWindow@@AEBUImRect@@_NHQEBIM@Z 0000000180080d00     imgui.obj
 0002:00016d10       $chain$6$?RenderWindowDecorations@ImGui@@YAXPEAUImGuiWindow@@AEBUImRect@@_NHQEBIM@Z 0000000180080d10     imgui.obj
 0002:00016d20       $unwind$?RenderWindowTitleBarContents@ImGui@@YAXPEAUImGuiWindow@@AEBUImRect@@PEBDPEA_N@Z 0000000180080d20     imgui.obj
 0002:00016d64       $unwind$?Begin@ImGui@@YA_NPEBDPEA_NH@Z 0000000180080d64     imgui.obj
 0002:00016d7c       $chain$1$?Begin@ImGui@@YA_NPEBDPEA_NH@Z 0000000180080d7c     imgui.obj
 0002:00016d94       $chain$5$?Begin@ImGui@@YA_NPEBDPEA_NH@Z 0000000180080d94     imgui.obj
 0002:00016db4       $chain$6$?Begin@ImGui@@YA_NPEBDPEA_NH@Z 0000000180080db4     imgui.obj
 0002:00016dc8       $chain$7$?Begin@ImGui@@YA_NPEBDPEA_NH@Z 0000000180080dc8     imgui.obj
 0002:00016ddc       $chain$13$?Begin@ImGui@@YA_NPEBDPEA_NH@Z 0000000180080ddc     imgui.obj
 0002:00016e04       $chain$14$?Begin@ImGui@@YA_NPEBDPEA_NH@Z 0000000180080e04     imgui.obj
 0002:00016e18       $chain$15$?Begin@ImGui@@YA_NPEBDPEA_NH@Z 0000000180080e18     imgui.obj
 0002:00016e28       $chain$16$?Begin@ImGui@@YA_NPEBDPEA_NH@Z 0000000180080e28     imgui.obj
 0002:00016e48       $chain$17$?Begin@ImGui@@YA_NPEBDPEA_NH@Z 0000000180080e48     imgui.obj
 0002:00016e68       $chain$18$?Begin@ImGui@@YA_NPEBDPEA_NH@Z 0000000180080e68     imgui.obj
 0002:00016e7c       $chain$19$?Begin@ImGui@@YA_NPEBDPEA_NH@Z 0000000180080e7c     imgui.obj
 0002:00016e8c       $chain$20$?Begin@ImGui@@YA_NPEBDPEA_NH@Z 0000000180080e8c     imgui.obj
 0002:00016ea4       $chain$21$?Begin@ImGui@@YA_NPEBDPEA_NH@Z 0000000180080ea4     imgui.obj
 0002:00016eb4       $unwind$?BeginGroup@ImGui@@YAXXZ 0000000180080eb4     imgui.obj
 0002:00016eb4       $unwind$?PushID@ImGui@@YAXPEBD@Z 0000000180080eb4     imgui.obj
 0002:00016eb4       $unwind$?PushItemWidth@ImGui@@YAXM@Z 0000000180080eb4     imgui.obj
 0002:00016eb4       $unwind$?Clear@ImDrawList@@QEAAXXZ 0000000180080eb4     imgui_draw.obj
 0002:00016eb4       $unwind$?PushTextureID@ImDrawList@@QEAAXPEAX@Z 0000000180080eb4     imgui_draw.obj
 0002:00016eb4       $unwind$memcpy_s           0000000180080eb4     libucrt:cfout.obj
 0002:00016eb4       $unwind$??0_LocaleUpdate@@QEAA@QEAU__crt_locale_pointers@@@Z 0000000180080eb4     libucrt:tolower_toupper.obj
 0002:00016eb4       $unwind$__acrt_getptd      0000000180080eb4     libucrt:per_thread_data.obj
 0002:00016eb4       $unwind$__acrt_getptd_noexit 0000000180080eb4     libucrt:per_thread_data.obj
 0002:00016eb4       $unwind$__acrt_getptd_noexit_explicit 0000000180080eb4     libucrt:per_thread_data.obj
 0002:00016eb4       $unwind$__acrt_execute_initializers 0000000180080eb4     libucrt:shared_initialization.obj
 0002:00016eb4       $unwind$__acrt_InitializeCriticalSectionEx 0000000180080eb4     libucrt:winapi_thunks.obj
 0002:00016eb4       $unwind$_close_nolock_internal 0000000180080eb4     libucrt:close.obj
 0002:00016eb4       $unwind$?value@?$dual_state_global@P6AXPEB_W00I_K@Z@__crt_state_management@@QEAAAEAP6AXPEB_W00I_K@ZAEAV__crt_cached_ptd_host@@@Z 0000000180080eb4     libucrt:invalid_parameter.obj
 0002:00016eb4       $unwind$__acrt_stdio_flush_and_write_narrow_nolock 0000000180080eb4     libucrt:_flsbuf.obj
 0002:00016eb4       $unwind$??$skip_whitespace@Vstring_input_adapter@__crt_stdio_input@@D@__crt_stdio_input@@YAHAEAV?$string_input_adapter@D@0@QEAU__crt_locale_pointers@@@Z 0000000180080eb4     libucrt:input.obj
 0002:00016eb4       $unwind$?advance@?$format_string_parser@D@__crt_stdio_input@@QEAA_NXZ 0000000180080eb4     libucrt:input.obj
 0002:00016eb4       $unwind$?process@?$input_processor@DV?$string_input_adapter@D@__crt_stdio_input@@@__crt_stdio_input@@QEAAHXZ 0000000180080eb4     libucrt:input.obj
 0002:00016eb4       $unwind$?process_string_specifier@?$input_processor@DV?$string_input_adapter@D@__crt_stdio_input@@@__crt_stdio_input@@AEAA_NW4conversion_mode@2@@Z 0000000180080eb4     libucrt:input.obj
 0002:00016eb4       $unwind$memcpy_s           0000000180080eb4     libucrt:input.obj
 0002:00016eb4       $unwind$??$__acrt_stdio_parse_mode@D@@YA?AU__acrt_stdio_stream_mode@@QEBD@Z 0000000180080eb4     libucrt:openfile.obj
 0002:00016eb4       $unwind$?update_locale_slow@__crt_cached_ptd_host@@AEAAXXZ 0000000180080eb4     libucrt:output.obj
 0002:00016eb4       $unwind$strncpy_s          0000000180080eb4     libucrt:strncpy_s.obj
 0002:00016eb4       $unwind$_exception_enabled 0000000180080eb4     libucrt:libm_error.obj
 0002:00016eb4       $unwind$_DllMainCRTStartup 0000000180080eb4     LIBCMT:dll_dllmain.obj
 0002:00016eb4       $unwind$__vcrt_getptd_noexit 0000000180080eb4     libvcruntime:per_thread_data.obj
 0002:00016eb4       $unwind$?FrameUnwindToEmptyState@__FrameHandler3@@SAXPEA_KPEAU_xDISPATCHER_CONTEXT@@PEBU_s_FuncInfo@@@Z 0000000180080eb4     libvcruntime:risctrnsctrl.obj
 0002:00016eb4       $unwind$__vcrt_InitializeCriticalSectionEx 0000000180080eb4     libvcruntime:winapi_downlevel.obj
 0002:00016ec4       $unwind$?CalcItemSize@ImGui@@YA?AUImVec2@@U2@MM@Z 0000000180080ec4     imgui.obj
 0002:00016ed8       $unwind$?PushStyleVar@ImGui@@YAXHM@Z 0000000180080ed8     imgui.obj
 0002:00016ee4       $chain$1$?PushStyleVar@ImGui@@YAXHM@Z 0000000180080ee4     imgui.obj
 0002:00016efc       $chain$2$?PushStyleVar@ImGui@@YAXHM@Z 0000000180080efc     imgui.obj
 0002:00016f0c       $unwind$?PushStyleVar@ImGui@@YAXHAEBUImVec2@@@Z 0000000180080f0c     imgui.obj
 0002:00016f0c       $unwind$?WindowSettingsHandler_ReadLine@@YAXPEAUImGuiContext@@PEAUImGuiSettingsHandler@@PEAXPEBD@Z 0000000180080f0c     imgui.obj
 0002:00016f0c       $unwind$?PushClipRectFullScreen@ImDrawList@@QEAAXXZ 0000000180080f0c     imgui_draw.obj
 0002:00016f0c       $unwind$?type_case_c_tchar@?$output_processor@DV?$string_output_adapter@D@__crt_stdio_output@@V?$standard_base@DV?$string_output_adapter@D@__crt_stdio_output@@@2@@__crt_stdio_output@@AEAA_ND@Z 0000000180080f0c     libucrt:output.obj
 0002:00016f0c       $unwind$?type_case_n@?$output_processor@DV?$string_output_adapter@D@__crt_stdio_output@@V?$standard_base@DV?$string_output_adapter@D@__crt_stdio_output@@@2@@__crt_stdio_output@@AEAA_NXZ 0000000180080f0c     libucrt:output.obj
 0002:00016f18       $unwind$?EndGroup@ImGui@@YAXXZ 0000000180080f18     imgui.obj
 0002:00016f34       $chain$1$?EndGroup@ImGui@@YAXXZ 0000000180080f34     imgui.obj
 0002:00016f4c       $chain$2$?EndGroup@ImGui@@YAXXZ 0000000180080f4c     imgui.obj
 0002:00016f60       $chain$3$?EndGroup@ImGui@@YAXXZ 0000000180080f60     imgui.obj
 0002:00016f70       $unwind$?CalcNextScrollFromScrollTargetAndClamp@@YA?AUImVec2@@PEAUImGuiWindow@@_N@Z 0000000180080f70     imgui.obj
 0002:00016f7c       $unwind$?ScrollToBringRectIntoView@ImGui@@YA?AUImVec2@@PEAUImGuiWindow@@AEBUImRect@@@Z 0000000180080f7c     imgui.obj
 0002:00016f8c       $unwind$?BeginTooltip@ImGui@@YAXXZ 0000000180080f8c     imgui.obj
 0002:00016f9c       $unwind$?BeginTooltipEx@ImGui@@YAXH_N@Z 0000000180080f9c     imgui.obj
 0002:00016fb0       $unwind$?SetTooltip@ImGui@@YAXPEBDZZ 0000000180080fb0     imgui.obj
 0002:00016fbc       $unwind$?OpenPopupEx@ImGui@@YAXI@Z 0000000180080fbc     imgui.obj
 0002:00016fcc       $chain$0$?OpenPopupEx@ImGui@@YAXI@Z 0000000180080fcc     imgui.obj
 0002:00016fe0       $unwind$?ClosePopupsOverWindow@ImGui@@YAXPEAUImGuiWindow@@_N@Z 0000000180080fe0     imgui.obj
 0002:00016fec       $chain$0$?ClosePopupsOverWindow@ImGui@@YAXPEAUImGuiWindow@@_N@Z 0000000180080fec     imgui.obj
 0002:00017000       $chain$2$?ClosePopupsOverWindow@ImGui@@YAXPEAUImGuiWindow@@_N@Z 0000000180081000     imgui.obj
 0002:00017018       $chain$3$?ClosePopupsOverWindow@ImGui@@YAXPEAUImGuiWindow@@_N@Z 0000000180081018     imgui.obj
 0002:00017028       $chain$4$?ClosePopupsOverWindow@ImGui@@YAXPEAUImGuiWindow@@_N@Z 0000000180081028     imgui.obj
 0002:00017038       $unwind$?ClosePopupToLevel@ImGui@@YAXH_N@Z 0000000180081038     imgui.obj
 0002:00017038       $unwind$?BuildLookupTable@ImFont@@QEAAXXZ 0000000180081038     imgui_draw.obj
 0002:00017038       $unwind$?PrimReserve@ImDrawList@@QEAAXHH@Z 0000000180081038     imgui_draw.obj
 0002:00017038       $unwind$?fp_format_f_internal@@YAHQEAD_KHQEAU_strflt@@_NAEAV__crt_cached_ptd_host@@@Z 0000000180081038     libucrt:cvt.obj
 0002:00017038       $unwind$__acrt_DownlevelLocaleNameToLCID 0000000180081038     libucrt:lcidtoname_downlevel.obj
 0002:00017038       $unwind$??R<lambda_22ebabd17bc4fa466a2aca6d8deb888d>@@QEBA@XZ 0000000180081038     libucrt:onexit.obj
 0002:00017038       $unwind$??R<lambda_f03950bc5685219e0bcd2087efbe011e>@@QEBA@XZ 0000000180081038     libucrt:onexit.obj
 0002:00017038       $unwind$??$TypeMatchHelper@V__FrameHandler4@@@@YAHPEAUHandlerType4@FH4@@PEBU_s_CatchableType@@PEBU_s_ThrowInfo@@@Z 0000000180081038     libvcruntime:frame.obj
 0002:00017050       $unwind$?BeginPopupEx@ImGui@@YA_NIH@Z 0000000180081050     imgui.obj
 0002:00017060       $chain$0$?BeginPopupEx@ImGui@@YA_NIH@Z 0000000180081060     imgui.obj
 0002:00017074       $chain$1$?BeginPopupEx@ImGui@@YA_NIH@Z 0000000180081074     imgui.obj
 0002:00017084       $unwind$?EndPopup@ImGui@@YAXXZ 0000000180081084     imgui.obj
 0002:00017084       $unwind$??0length_error@std@@QEAA@PEBD@Z 0000000180081084     libcpmt:xthrow.obj
 0002:00017084       $unwind$??0out_of_range@std@@QEAA@PEBD@Z 0000000180081084     libcpmt:xthrow.obj
 0002:0001708c       $unwind$?FindBestWindowPosForPopupEx@ImGui@@YA?AUImVec2@@AEBU2@0PEAHAEBUImRect@@2W4ImGuiPopupPositionPolicy@@@Z 000000018008108c     imgui.obj
 0002:000170b4       $unwind$?GetWindowAllowedExtentRect@ImGui@@YA?AUImRect@@PEAUImGuiWindow@@@Z 00000001800810b4     imgui.obj
 0002:000170c0       $unwind$?FindBestWindowPosForPopup@ImGui@@YA?AUImVec2@@PEAUImGuiWindow@@@Z 00000001800810c0     imgui.obj
 0002:000170d4       $unwind$?NavScoreItem@ImGui@@YA_NPEAUImGuiNavMoveResult@@UImRect@@@Z 00000001800810d4     imgui.obj
 0002:000170dc       $chain$3$?NavScoreItem@ImGui@@YA_NPEAUImGuiNavMoveResult@@UImRect@@@Z 00000001800810dc     imgui.obj
 0002:000170fc       $chain$8$?NavScoreItem@ImGui@@YA_NPEAUImGuiNavMoveResult@@UImRect@@@Z 00000001800810fc     imgui.obj
 0002:00017120       $chain$9$?NavScoreItem@ImGui@@YA_NPEAUImGuiNavMoveResult@@UImRect@@@Z 0000000180081120     imgui.obj
 0002:00017134       $chain$10$?NavScoreItem@ImGui@@YA_NPEAUImGuiNavMoveResult@@UImRect@@@Z 0000000180081134     imgui.obj
 0002:00017144       $chain$11$?NavScoreItem@ImGui@@YA_NPEAUImGuiNavMoveResult@@UImRect@@@Z 0000000180081144     imgui.obj
 0002:00017154       $chain$13$?NavScoreItem@ImGui@@YA_NPEAUImGuiNavMoveResult@@UImRect@@@Z 0000000180081154     imgui.obj
 0002:00017174       $chain$14$?NavScoreItem@ImGui@@YA_NPEAUImGuiNavMoveResult@@UImRect@@@Z 0000000180081174     imgui.obj
 0002:00017184       $unwind$?NavProcessItem@ImGui@@YAXPEAUImGuiWindow@@AEBUImRect@@I@Z 0000000180081184     imgui.obj
 0002:00017194       $chain$1$?NavProcessItem@ImGui@@YAXPEAUImGuiWindow@@AEBUImRect@@I@Z 0000000180081194     imgui.obj
 0002:000171ac       $chain$2$?NavProcessItem@ImGui@@YAXPEAUImGuiWindow@@AEBUImRect@@I@Z 00000001800811ac     imgui.obj
 0002:000171c0       $chain$3$?NavProcessItem@ImGui@@YAXPEAUImGuiWindow@@AEBUImRect@@I@Z 00000001800811c0     imgui.obj
 0002:000171d0       $chain$4$?NavProcessItem@ImGui@@YAXPEAUImGuiWindow@@AEBUImRect@@I@Z 00000001800811d0     imgui.obj
 0002:000171e0       $unwind$?GetNavInputAmount2d@ImGui@@YA?AUImVec2@@HW4ImGuiInputReadMode@@MM@Z 00000001800811e0     imgui.obj
 0002:000171f4       $unwind$?NavUpdate@ImGui@@YAXXZ 00000001800811f4     imgui.obj
 0002:0001720c       $chain$3$?NavUpdate@ImGui@@YAXXZ 000000018008120c     imgui.obj
 0002:0001722c       $chain$4$?NavUpdate@ImGui@@YAXXZ 000000018008122c     imgui.obj
 0002:00017240       $chain$5$?NavUpdate@ImGui@@YAXXZ 0000000180081240     imgui.obj
 0002:00017260       $chain$6$?NavUpdate@ImGui@@YAXXZ 0000000180081260     imgui.obj
 0002:0001727c       $chain$7$?NavUpdate@ImGui@@YAXXZ 000000018008127c     imgui.obj
 0002:0001728c       $unwind$?NavUpdateMoveResult@ImGui@@YAXXZ 000000018008128c     imgui.obj
 0002:0001728c       $unwind$?NavUpdatePageUpPageDown@ImGui@@YAMXZ 000000018008128c     imgui.obj
 0002:00017298       $chain$0$?NavUpdateMoveResult@ImGui@@YAXXZ 0000000180081298     imgui.obj
 0002:000172ac       $chain$1$?NavUpdateMoveResult@ImGui@@YAXXZ 00000001800812ac     imgui.obj
 0002:000172bc       $chain$1$?NavUpdatePageUpPageDown@ImGui@@YAMXZ 00000001800812bc     imgui.obj
 0002:000172d4       $chain$2$?NavUpdatePageUpPageDown@ImGui@@YAMXZ 00000001800812d4     imgui.obj
 0002:000172e4       $chain$3$?NavUpdatePageUpPageDown@ImGui@@YAMXZ 00000001800812e4     imgui.obj
 0002:000172f8       $chain$5$?NavUpdatePageUpPageDown@ImGui@@YAMXZ 00000001800812f8     imgui.obj
 0002:000172f8       $chain$7$?NavUpdatePageUpPageDown@ImGui@@YAMXZ 00000001800812f8     imgui.obj
 0002:0001730c       $unwind$?NavUpdateWindowingHighlightWindow@@YAXH@Z 000000018008130c     imgui.obj
 0002:0001730c       $unwind$?WindowSettingsHandler_ReadOpen@@YAPEAXPEAUImGuiContext@@PEAUImGuiSettingsHandler@@PEBD@Z 000000018008130c     imgui.obj
 0002:0001730c       $unwind$?UpdateTextureID@ImDrawList@@QEAAXXZ 000000018008130c     imgui_draw.obj
 0002:0001730c       $unwind$?stbtt__cff_get_index@@YA?AUstbtt__buf@@PEAU1@@Z 000000018008130c     imgui_draw.obj
 0002:0001730c       $unwind$?stbtt__cff_index_get@@YA?AUstbtt__buf@@U1@H@Z 000000018008130c     imgui_draw.obj
 0002:0001730c       $unwind$?STB_TEXTEDIT_MOVEWORDLEFT_IMPL@ImStb@@YAHPEAUImGuiInputTextState@@H@Z 000000018008130c     imgui_widgets.obj
 0002:0001730c       $unwind$__GSHandlerCheckCommon 000000018008130c     LIBCMT:gshandler.obj
 0002:00017314       $chain$3$?NavUpdateWindowingHighlightWindow@@YAXH@Z 0000000180081314     imgui.obj
 0002:00017334       $chain$4$?NavUpdateWindowingHighlightWindow@@YAXH@Z 0000000180081334     imgui.obj
 0002:00017344       $unwind$?NavUpdateWindowing@ImGui@@YAXXZ 0000000180081344     imgui.obj
 0002:00017354       $chain$3$?NavUpdateWindowing@ImGui@@YAXXZ 0000000180081354     imgui.obj
 0002:00017374       $chain$4$?NavUpdateWindowing@ImGui@@YAXXZ 0000000180081374     imgui.obj
 0002:00017384       $chain$5$?NavUpdateWindowing@ImGui@@YAXXZ 0000000180081384     imgui.obj
 0002:000173a4       $chain$6$?NavUpdateWindowing@ImGui@@YAXXZ 00000001800813a4     imgui.obj
 0002:000173b8       $chain$7$?NavUpdateWindowing@ImGui@@YAXXZ 00000001800813b8     imgui.obj
 0002:000173cc       $chain$8$?NavUpdateWindowing@ImGui@@YAXXZ 00000001800813cc     imgui.obj
 0002:000173dc       $chain$9$?NavUpdateWindowing@ImGui@@YAXXZ 00000001800813dc     imgui.obj
 0002:000173ec       $chain$10$?NavUpdateWindowing@ImGui@@YAXXZ 00000001800813ec     imgui.obj
 0002:00017408       $chain$11$?NavUpdateWindowing@ImGui@@YAXXZ 0000000180081408     imgui.obj
 0002:00017420       $chain$12$?NavUpdateWindowing@ImGui@@YAXXZ 0000000180081420     imgui.obj
 0002:00017434       $unwind$?NavUpdateWindowingOverlay@ImGui@@YAXXZ 0000000180081434     imgui.obj
 0002:0001743c       $chain$0$?NavUpdateWindowingOverlay@ImGui@@YAXXZ 000000018008143c     imgui.obj
 0002:00017450       $chain$1$?NavUpdateWindowingOverlay@ImGui@@YAXXZ 0000000180081450     imgui.obj
 0002:00017464       $chain$2$?NavUpdateWindowingOverlay@ImGui@@YAXXZ 0000000180081464     imgui.obj
 0002:00017474       $chain$3$?NavUpdateWindowingOverlay@ImGui@@YAXXZ 0000000180081474     imgui.obj
 0002:00017484       $unwind$?AcceptDragDropPayload@ImGui@@YAPEBUImGuiPayload@@PEBDH@Z 0000000180081484     imgui.obj
 0002:00017498       $chain$0$?AcceptDragDropPayload@ImGui@@YAPEBUImGuiPayload@@PEBDH@Z 0000000180081498     imgui.obj
 0002:000174ac       $chain$1$?AcceptDragDropPayload@ImGui@@YAPEBUImGuiPayload@@PEBDH@Z 00000001800814ac     imgui.obj
 0002:000174bc       $unwind$?LogText@ImGui@@YAXPEBDZZ 00000001800814bc     imgui.obj
 0002:000174c4       $chain$2$?LogText@ImGui@@YAXPEBDZZ 00000001800814c4     imgui.obj
 0002:000174e0       $chain$4$?LogText@ImGui@@YAXPEBDZZ 00000001800814e0     imgui.obj
 0002:000174f8       $chain$5$?LogText@ImGui@@YAXPEBDZZ 00000001800814f8     imgui.obj
 0002:00017508       $unwind$?LogRenderedText@ImGui@@YAXPEBUImVec2@@PEBD1@Z 0000000180081508     imgui.obj
 0002:00017520       $chain$0$?LogFinish@ImGui@@YAXXZ 0000000180081520     imgui.obj
 0002:00017534       $chain$1$?LogFinish@ImGui@@YAXXZ 0000000180081534     imgui.obj
 0002:00017544       $unwind$?CreateNewWindowSettings@ImGui@@YAPEAUImGuiWindowSettings@@PEBD@Z 0000000180081544     imgui.obj
 0002:0001755c       $unwind$?LoadIniSettingsFromMemory@ImGui@@YAXPEBD_K@Z 000000018008155c     imgui.obj
 0002:00017568       $chain$3$?LoadIniSettingsFromMemory@ImGui@@YAXPEBD_K@Z 0000000180081568     imgui.obj
 0002:00017588       $chain$5$?LoadIniSettingsFromMemory@ImGui@@YAXPEBD_K@Z 0000000180081588     imgui.obj
 0002:000175a0       $chain$6$?LoadIniSettingsFromMemory@ImGui@@YAXPEBD_K@Z 00000001800815a0     imgui.obj
 0002:000175b0       $chain$7$?LoadIniSettingsFromMemory@ImGui@@YAXPEBD_K@Z 00000001800815b0     imgui.obj
 0002:000175c0       $chain$8$?LoadIniSettingsFromMemory@ImGui@@YAXPEBD_K@Z 00000001800815c0     imgui.obj
 0002:000175e8       $unwind$?SaveIniSettingsToDisk@ImGui@@YAXPEBD@Z 00000001800815e8     imgui.obj
 0002:000175f4       $chain$2$?SaveIniSettingsToDisk@ImGui@@YAXPEBD@Z 00000001800815f4     imgui.obj
 0002:00017610       $chain$3$?SaveIniSettingsToDisk@ImGui@@YAXPEBD@Z 0000000180081610     imgui.obj
 0002:00017628       $chain$4$?SaveIniSettingsToDisk@ImGui@@YAXPEBD@Z 0000000180081628     imgui.obj
 0002:00017638       $unwind$?WindowSettingsHandler_WriteAll@@YAXPEAUImGuiContext@@PEAUImGuiSettingsHandler@@PEAUImGuiTextBuffer@@@Z 0000000180081638     imgui.obj
 0002:0001764c       $chain$0$?GetClipboardTextFn_DefaultImpl@@YAPEBDPEAX@Z 000000018008164c     imgui.obj
 0002:00017660       $chain$3$?GetClipboardTextFn_DefaultImpl@@YAPEBDPEAX@Z 0000000180081660     imgui.obj
 0002:00017678       $chain$5$?GetClipboardTextFn_DefaultImpl@@YAPEBDPEAX@Z 0000000180081678     imgui.obj
 0002:00017690       $chain$6$?GetClipboardTextFn_DefaultImpl@@YAPEBDPEAX@Z 0000000180081690     imgui.obj
 0002:000176a0       $chain$7$?GetClipboardTextFn_DefaultImpl@@YAPEBDPEAX@Z 00000001800816a0     imgui.obj
 0002:000176b0       $unwind$??__Fbuf_local@?1??GetClipboardTextFn_DefaultImpl@@YAPEBDPEAX@Z@YAXXZ 00000001800816b0     imgui.obj
 0002:000176c0       $cppxdata$??__Fbuf_local@?1??GetClipboardTextFn_DefaultImpl@@YAPEBDPEAX@Z@YAXXZ 00000001800816c0     imgui.obj
 0002:000176c0       $cppxdata$?Clear@?$ImPool@UImGuiTabBar@@@@QEAAXXZ 00000001800816c0     imgui.obj
 0002:000176cc       $unwind$?SetClipboardTextFn_DefaultImpl@@YAXPEAXPEBD@Z 00000001800816cc     imgui.obj
 0002:000176d4       $chain$1$?SetClipboardTextFn_DefaultImpl@@YAXPEAXPEBD@Z 00000001800816d4     imgui.obj
 0002:000176ec       $chain$2$?SetClipboardTextFn_DefaultImpl@@YAXPEAXPEBD@Z 00000001800816ec     imgui.obj
 0002:000176fc       $unwind$?ImeSetInputScreenPosFn_DefaultImpl@@YAXHH@Z 00000001800816fc     imgui.obj
 0002:00017710       $chain$0$?ImeSetInputScreenPosFn_DefaultImpl@@YAXHH@Z 0000000180081710     imgui.obj
 0002:00017724       $chain$1$?ImeSetInputScreenPosFn_DefaultImpl@@YAXHH@Z 0000000180081724     imgui.obj
 0002:00017734       $unwind$??1?$ImVector@D@@QEAA@XZ 0000000180081734     imgui.obj
 0002:00017734       $unwind$??1?$ImVector@E@@QEAA@XZ 0000000180081734     imgui.obj
 0002:00017734       $unwind$??1?$ImVector@G@@QEAA@XZ 0000000180081734     imgui.obj
 0002:00017734       $unwind$??1?$ImVector@I@@QEAA@XZ 0000000180081734     imgui.obj
 0002:00017734       $unwind$??1?$ImVector@PEAUImDrawList@@@@QEAA@XZ 0000000180081734     imgui.obj
 0002:00017734       $unwind$??1?$ImVector@PEAUImFont@@@@QEAA@XZ 0000000180081734     imgui.obj
 0002:00017734       $unwind$??1?$ImVector@PEAUImGuiWindow@@@@QEAA@XZ 0000000180081734     imgui.obj
 0002:00017734       $unwind$??1?$ImVector@PEAX@@QEAA@XZ 0000000180081734     imgui.obj
 0002:00017734       $unwind$??1?$ImVector@UImDrawCmd@@@@QEAA@XZ 0000000180081734     imgui.obj
 0002:00017734       $unwind$??1?$ImVector@UImDrawVert@@@@QEAA@XZ 0000000180081734     imgui.obj
 0002:00017734       $unwind$??1?$ImVector@UImGuiColorMod@@@@QEAA@XZ 0000000180081734     imgui.obj
 0002:00017734       $unwind$??1?$ImVector@UImGuiColumns@@@@QEAA@XZ 0000000180081734     imgui.obj
 0002:00017734       $unwind$??1?$ImVector@UImGuiPopupData@@@@QEAA@XZ 0000000180081734     imgui.obj
 0002:00017734       $unwind$??1?$ImVector@UImGuiPtrOrIndex@@@@QEAA@XZ 0000000180081734     imgui.obj
 0002:00017734       $unwind$??1?$ImVector@UImGuiSettingsHandler@@@@QEAA@XZ 0000000180081734     imgui.obj
 0002:00017734       $unwind$??1?$ImVector@UImGuiShrinkWidthItem@@@@QEAA@XZ 0000000180081734     imgui.obj
 0002:00017734       $unwind$??1?$ImVector@UImGuiStyleMod@@@@QEAA@XZ 0000000180081734     imgui.obj
 0002:00017734       $unwind$??1?$ImVector@UImVec2@@@@QEAA@XZ 0000000180081734     imgui.obj
 0002:00017734       $unwind$??1?$ImVector@UImVec4@@@@QEAA@XZ 0000000180081734     imgui.obj
 0002:00017734       $unwind$??1?$ImVector@UImFontBuildDstData@@@@QEAA@XZ 0000000180081734     imgui_draw.obj
 0002:00017734       $unwind$??1?$ImVector@UImFontBuildSrcData@@@@QEAA@XZ 0000000180081734     imgui_draw.obj
 0002:00017734       $unwind$??1?$ImVector@Ustbrp_rect@@@@QEAA@XZ 0000000180081734     imgui_draw.obj
 0002:00017734       $unwind$??1?$ImVector@Ustbtt_packedchar@@@@QEAA@XZ 0000000180081734     imgui_draw.obj
 0002:00017740       $cppxdata$??1?$ImVector@D@@QEAA@XZ 0000000180081740     imgui.obj
 0002:00017740       $cppxdata$??1?$ImVector@E@@QEAA@XZ 0000000180081740     imgui.obj
 0002:00017740       $cppxdata$??1?$ImVector@G@@QEAA@XZ 0000000180081740     imgui.obj
 0002:00017740       $cppxdata$??1?$ImVector@I@@QEAA@XZ 0000000180081740     imgui.obj
 0002:00017740       $cppxdata$??1?$ImVector@PEAUImDrawList@@@@QEAA@XZ 0000000180081740     imgui.obj
 0002:00017740       $cppxdata$??1?$ImVector@PEAUImFont@@@@QEAA@XZ 0000000180081740     imgui.obj
 0002:00017740       $cppxdata$??1?$ImVector@PEAUImGuiWindow@@@@QEAA@XZ 0000000180081740     imgui.obj
 0002:00017740       $cppxdata$??1?$ImVector@PEAX@@QEAA@XZ 0000000180081740     imgui.obj
 0002:00017740       $cppxdata$??1?$ImVector@UImDrawCmd@@@@QEAA@XZ 0000000180081740     imgui.obj
 0002:00017740       $cppxdata$??1?$ImVector@UImDrawVert@@@@QEAA@XZ 0000000180081740     imgui.obj
 0002:00017740       $cppxdata$??1?$ImVector@UImGuiColorMod@@@@QEAA@XZ 0000000180081740     imgui.obj
 0002:00017740       $cppxdata$??1?$ImVector@UImGuiColumns@@@@QEAA@XZ 0000000180081740     imgui.obj
 0002:00017740       $cppxdata$??1?$ImVector@UImGuiPopupData@@@@QEAA@XZ 0000000180081740     imgui.obj
 0002:00017740       $cppxdata$??1?$ImVector@UImGuiPtrOrIndex@@@@QEAA@XZ 0000000180081740     imgui.obj
 0002:00017740       $cppxdata$??1?$ImVector@UImGuiSettingsHandler@@@@QEAA@XZ 0000000180081740     imgui.obj
 0002:00017740       $cppxdata$??1?$ImVector@UImGuiShrinkWidthItem@@@@QEAA@XZ 0000000180081740     imgui.obj
 0002:00017740       $cppxdata$??1?$ImVector@UImGuiStyleMod@@@@QEAA@XZ 0000000180081740     imgui.obj
 0002:00017740       $cppxdata$??1?$ImVector@UImVec2@@@@QEAA@XZ 0000000180081740     imgui.obj
 0002:00017740       $cppxdata$??1?$ImVector@UImVec4@@@@QEAA@XZ 0000000180081740     imgui.obj
 0002:00017740       $cppxdata$??1?$ImVector@UImFontBuildDstData@@@@QEAA@XZ 0000000180081740     imgui_draw.obj
 0002:00017740       $cppxdata$??1?$ImVector@UImFontBuildSrcData@@@@QEAA@XZ 0000000180081740     imgui_draw.obj
 0002:00017740       $cppxdata$??1?$ImVector@Ustbrp_rect@@@@QEAA@XZ 0000000180081740     imgui_draw.obj
 0002:00017740       $cppxdata$??1?$ImVector@Ustbtt_packedchar@@@@QEAA@XZ 0000000180081740     imgui_draw.obj
 0002:00017748       $unwind$?resize@?$ImVector@E@@QEAAXH@Z 0000000180081748     imgui.obj
 0002:00017748       $unwind$?resize@?$ImVector@UImGuiGroupData@@@@QEAAXH@Z 0000000180081748     imgui.obj
 0002:00017748       $unwind$?resize@?$ImVector@UImFontGlyph@@@@QEAAXH@Z 0000000180081748     imgui_draw.obj
 0002:00017754       $chain$1$?resize@?$ImVector@UImGuiGroupData@@@@QEAAXH@Z 0000000180081754     imgui.obj
 0002:0001776c       $chain$3$?resize@?$ImVector@UImGuiGroupData@@@@QEAAXH@Z 000000018008176c     imgui.obj
 0002:00017780       $chain$4$?resize@?$ImVector@UImGuiGroupData@@@@QEAAXH@Z 0000000180081780     imgui.obj
 0002:00017790       $unwind$?Clear@?$ImPool@UImGuiTabBar@@@@QEAAXXZ 0000000180081790     imgui.obj
 0002:000177b0       $chain$1$?resize@?$ImVector@E@@QEAAXH@Z 00000001800817b0     imgui.obj
 0002:000177c8       $chain$3$?resize@?$ImVector@E@@QEAAXH@Z 00000001800817c8     imgui.obj
 0002:000177dc       $chain$4$?resize@?$ImVector@E@@QEAAXH@Z 00000001800817dc     imgui.obj
 0002:000177ec       $unwind$?push_back@?$ImVector@UImGuiColorMod@@@@QEAAXAEBUImGuiColorMod@@@Z 00000001800817ec     imgui.obj
 0002:000177ec       $unwind$?push_back@?$ImVector@UImGuiStyleMod@@@@QEAAXAEBUImGuiStyleMod@@@Z 00000001800817ec     imgui.obj
 0002:000177ec       $unwind$?push_back@?$ImVector@UImFontAtlasCustomRect@@@@QEAAXAEBUImFontAtlasCustomRect@@@Z 00000001800817ec     imgui_draw.obj
 0002:000177ec       $unwind$?truncate_ctrl_z_if_present@@YAHH@Z 00000001800817ec     libucrt:open.obj
 0002:000177fc       $chain$0$?push_back@?$ImVector@UImGuiStyleMod@@@@QEAAXAEBUImGuiStyleMod@@@Z 00000001800817fc     imgui.obj
 0002:00017810       $chain$1$?push_back@?$ImVector@UImGuiStyleMod@@@@QEAAXAEBUImGuiStyleMod@@@Z 0000000180081810     imgui.obj
 0002:00017820       $chain$0$?push_back@?$ImVector@UImGuiColorMod@@@@QEAAXAEBUImGuiColorMod@@@Z 0000000180081820     imgui.obj
 0002:00017834       $chain$1$?push_back@?$ImVector@UImGuiColorMod@@@@QEAAXAEBUImGuiColorMod@@@Z 0000000180081834     imgui.obj
 0002:00017844       $unwind$?reserve@?$ImVector@D@@QEAAXH@Z 0000000180081844     imgui.obj
 0002:00017844       $unwind$?reserve@?$ImVector@G@@QEAAXH@Z 0000000180081844     imgui.obj
 0002:00017844       $unwind$?reserve@?$ImVector@H@@QEAAXH@Z 0000000180081844     imgui.obj
 0002:00017844       $unwind$?reserve@?$ImVector@I@@QEAAXH@Z 0000000180081844     imgui.obj
 0002:00017844       $unwind$?reserve@?$ImVector@M@@QEAAXH@Z 0000000180081844     imgui.obj
 0002:00017844       $unwind$?reserve@?$ImVector@PEAUImDrawList@@@@QEAAXH@Z 0000000180081844     imgui.obj
 0002:00017844       $unwind$?reserve@?$ImVector@PEAUImGuiWindow@@@@QEAAXH@Z 0000000180081844     imgui.obj
 0002:00017844       $unwind$?reserve@?$ImVector@UImDrawVert@@@@QEAAXH@Z 0000000180081844     imgui.obj
 0002:00017844       $unwind$?reserve@?$ImVector@UImGuiPopupData@@@@QEAAXH@Z 0000000180081844     imgui.obj
 0002:00017844       $unwind$?reserve@?$ImVector@UImVec2@@@@QEAAXH@Z 0000000180081844     imgui.obj
 0002:00017844       $unwind$?reserve@?$ImVector@PEAX@@QEAAXH@Z 0000000180081844     imgui_draw.obj
 0002:00017844       $unwind$?reserve@?$ImVector@UImDrawCmd@@@@QEAAXH@Z 0000000180081844     imgui_draw.obj
 0002:00017844       $unwind$?reserve@?$ImVector@UImVec4@@@@QEAAXH@Z 0000000180081844     imgui_draw.obj
 0002:00017844       $unwind$?get_raw_ptd@__crt_cached_ptd_host@@QEAAPEAU__acrt_ptd@@XZ 0000000180081844     libucrt:invalid_parameter.obj
 0002:00017844       $unwind$fesetenv           0000000180081844     libucrt:fesetenv.obj
 0002:00017850       $chain$0$?reserve@?$ImVector@PEAUImDrawList@@@@QEAAXH@Z 0000000180081850     imgui.obj
 0002:00017850       $chain$0$?reserve@?$ImVector@PEAUImGuiWindow@@@@QEAAXH@Z 0000000180081850     imgui.obj
 0002:00017850       $chain$0$?reserve@?$ImVector@UImVec2@@@@QEAAXH@Z 0000000180081850     imgui.obj
 0002:00017850       $chain$0$?reserve@?$ImVector@PEAX@@QEAAXH@Z 0000000180081850     imgui_draw.obj
 0002:00017864       $chain$1$?reserve@?$ImVector@PEAUImDrawList@@@@QEAAXH@Z 0000000180081864     imgui.obj
 0002:00017864       $chain$1$?reserve@?$ImVector@PEAUImGuiWindow@@@@QEAAXH@Z 0000000180081864     imgui.obj
 0002:00017864       $chain$1$?reserve@?$ImVector@UImVec2@@@@QEAAXH@Z 0000000180081864     imgui.obj
 0002:00017864       $chain$1$?reserve@?$ImVector@PEAX@@QEAAXH@Z 0000000180081864     imgui_draw.obj
 0002:00017874       $unwind$?push_back@?$ImVector@PEAUImFont@@@@QEAAXAEBQEAUImFont@@@Z 0000000180081874     imgui.obj
 0002:00017884       $chain$0$?push_back@?$ImVector@PEAUImFont@@@@QEAAXAEBQEAUImFont@@@Z 0000000180081884     imgui.obj
 0002:00017898       $chain$1$?push_back@?$ImVector@PEAUImFont@@@@QEAAXAEBQEAUImFont@@@Z 0000000180081898     imgui.obj
 0002:000178a8       $chain$0$?reserve@?$ImVector@UImDrawVert@@@@QEAAXH@Z 00000001800818a8     imgui.obj
 0002:000178bc       $chain$1$?reserve@?$ImVector@UImDrawVert@@@@QEAAXH@Z 00000001800818bc     imgui.obj
 0002:000178cc       $chain$0$?reserve@?$ImVector@D@@QEAAXH@Z 00000001800818cc     imgui.obj
 0002:000178e0       $chain$1$?reserve@?$ImVector@D@@QEAAXH@Z 00000001800818e0     imgui.obj
 0002:000178f0       $chain$0$?reserve@?$ImVector@G@@QEAAXH@Z 00000001800818f0     imgui.obj
 0002:00017904       $chain$1$?reserve@?$ImVector@G@@QEAAXH@Z 0000000180081904     imgui.obj
 0002:00017914       $chain$0$?reserve@?$ImVector@UImGuiPopupData@@@@QEAAXH@Z 0000000180081914     imgui.obj
 0002:00017928       $chain$1$?reserve@?$ImVector@UImGuiPopupData@@@@QEAAXH@Z 0000000180081928     imgui.obj
 0002:00017938       $chain$0$?reserve@?$ImVector@H@@QEAAXH@Z 0000000180081938     imgui.obj
 0002:00017938       $chain$0$?reserve@?$ImVector@I@@QEAAXH@Z 0000000180081938     imgui.obj
 0002:00017938       $chain$0$?reserve@?$ImVector@M@@QEAAXH@Z 0000000180081938     imgui.obj
 0002:0001794c       $chain$1$?reserve@?$ImVector@H@@QEAAXH@Z 000000018008194c     imgui.obj
 0002:0001794c       $chain$1$?reserve@?$ImVector@I@@QEAAXH@Z 000000018008194c     imgui.obj
 0002:0001794c       $chain$1$?reserve@?$ImVector@M@@QEAAXH@Z 000000018008194c     imgui.obj
 0002:0001795c       $unwind$stbrp_init_target  000000018008195c     imgui_draw.obj
 0002:00017974       $chain$0$stbrp_init_target 0000000180081974     imgui_draw.obj
 0002:00017988       $chain$1$stbrp_init_target 0000000180081988     imgui_draw.obj
 0002:00017998       $unwind$?stbrp__skyline_find_min_y@@YAHPEAUstbrp_context@@PEAUstbrp_node@@HHPEAH@Z 0000000180081998     imgui_draw.obj
 0002:000179ac       $chain$0$?stbrp__skyline_find_min_y@@YAHPEAUstbrp_context@@PEAUstbrp_node@@HHPEAH@Z 00000001800819ac     imgui_draw.obj
 0002:000179c0       $chain$1$?stbrp__skyline_find_min_y@@YAHPEAUstbrp_context@@PEAUstbrp_node@@HHPEAH@Z 00000001800819c0     imgui_draw.obj
 0002:000179d0       $unwind$?stbrp__skyline_find_best_pos@@YA?AUstbrp__findresult@@PEAUstbrp_context@@HH@Z 00000001800819d0     imgui_draw.obj
 0002:000179e0       $chain$3$?stbrp__skyline_find_best_pos@@YA?AUstbrp__findresult@@PEAUstbrp_context@@HH@Z 00000001800819e0     imgui_draw.obj
 0002:00017a00       $chain$4$?stbrp__skyline_find_best_pos@@YA?AUstbrp__findresult@@PEAUstbrp_context@@HH@Z 0000000180081a00     imgui_draw.obj
 0002:00017a10       $unwind$stbrp_pack_rects   0000000180081a10     imgui_draw.obj
 0002:00017a20       $chain$0$stbrp_pack_rects  0000000180081a20     imgui_draw.obj
 0002:00017a34       $chain$2$stbrp_pack_rects  0000000180081a34     imgui_draw.obj
 0002:00017a4c       $chain$3$stbrp_pack_rects  0000000180081a4c     imgui_draw.obj
 0002:00017a5c       $chain$4$stbrp_pack_rects  0000000180081a5c     imgui_draw.obj
 0002:00017a6c       $chain$0$?stbtt__cff_get_index@@YA?AUstbtt__buf@@PEAU1@@Z 0000000180081a6c     imgui_draw.obj
 0002:00017a80       $chain$1$?stbtt__cff_get_index@@YA?AUstbtt__buf@@PEAU1@@Z 0000000180081a80     imgui_draw.obj
 0002:00017a90       $unwind$?stbtt__cff_int@@YAIPEAUstbtt__buf@@@Z 0000000180081a90     imgui_draw.obj
 0002:00017a90       $unwind$?stbtt__close_shape@@YAHPEAUstbtt_vertex@@HHHHHHHHH@Z 0000000180081a90     imgui_draw.obj
 0002:00017a90       $unwind$?STB_TEXTEDIT_MOVEWORDRIGHT_IMPL@ImStb@@YAHPEAUImGuiInputTextState@@H@Z 0000000180081a90     imgui_widgets.obj
 0002:00017a98       $chain$0$?stbtt__cff_int@@YAIPEAUstbtt__buf@@@Z 0000000180081a98     imgui_draw.obj
 0002:00017aac       $chain$2$?stbtt__cff_int@@YAIPEAUstbtt__buf@@@Z 0000000180081aac     imgui_draw.obj
 0002:00017aac       $chain$4$?stbtt__cff_int@@YAIPEAUstbtt__buf@@@Z 0000000180081aac     imgui_draw.obj
 0002:00017aac       $chain$6$?stbtt__cff_int@@YAIPEAUstbtt__buf@@@Z 0000000180081aac     imgui_draw.obj
 0002:00017aac       $chain$8$?stbtt__cff_int@@YAIPEAUstbtt__buf@@@Z 0000000180081aac     imgui_draw.obj
 0002:00017ac0       $chain$9$?stbtt__cff_int@@YAIPEAUstbtt__buf@@@Z 0000000180081ac0     imgui_draw.obj
 0002:00017ad0       $unwind$?stbtt__dict_get@@YA?AUstbtt__buf@@PEAU1@H@Z 0000000180081ad0     imgui_draw.obj
 0002:00017ad0       $unwind$?stb_textedit_delete@ImStb@@YAXPEAUImGuiInputTextState@@PEAUSTB_TexteditState@1@HH@Z 0000000180081ad0     imgui_widgets.obj
 0002:00017ae8       $chain$1$?stbtt__cff_index_get@@YA?AUstbtt__buf@@U1@H@Z 0000000180081ae8     imgui_draw.obj
 0002:00017b00       $chain$2$?stbtt__cff_index_get@@YA?AUstbtt__buf@@U1@H@Z 0000000180081b00     imgui_draw.obj
 0002:00017b14       $chain$3$?stbtt__cff_index_get@@YA?AUstbtt__buf@@U1@H@Z 0000000180081b14     imgui_draw.obj
 0002:00017b24       $chain$4$?stbtt__cff_index_get@@YA?AUstbtt__buf@@U1@H@Z 0000000180081b24     imgui_draw.obj
 0002:00017b34       $unwind$?stbtt__get_subrs@@YA?AUstbtt__buf@@U1@0@Z 0000000180081b34     imgui_draw.obj
 0002:00017b48       $unwind$?stbtt_InitFont_internal@@YAHPEAUstbtt_fontinfo@@PEAEH@Z 0000000180081b48     imgui_draw.obj
 0002:00017b60       $unwind$stbtt_FindGlyphIndex 0000000180081b60     imgui_draw.obj
 0002:00017b7c       $chain$0$?stbtt__close_shape@@YAHPEAUstbtt_vertex@@HHHHHHHHH@Z 0000000180081b7c     imgui_draw.obj
 0002:00017b90       $chain$1$?stbtt__close_shape@@YAHPEAUstbtt_vertex@@HHHHHHHHH@Z 0000000180081b90     imgui_draw.obj
 0002:00017ba0       $unwind$?stbtt__GetGlyphShapeTT@@YAHPEBUstbtt_fontinfo@@HPEAPEAUstbtt_vertex@@@Z 0000000180081ba0     imgui_draw.obj
 0002:00017be4       $unwind$?stbtt__csctx_rccurve_to@@YAXPEAUstbtt__csctx@@MMMMMM@Z 0000000180081be4     imgui_draw.obj
 0002:00017bfc       $unwind$?stbtt__cid_get_glyph_subrs@@YA?AUstbtt__buf@@PEBUstbtt_fontinfo@@H@Z 0000000180081bfc     imgui_draw.obj
 0002:00017c14       $unwind$?stbtt__run_charstring@@YAHPEBUstbtt_fontinfo@@HPEAUstbtt__csctx@@@Z 0000000180081c14     imgui_draw.obj
 0002:00017c60       $unwind$?stbtt__GetGlyphShapeT2@@YAHPEBUstbtt_fontinfo@@HPEAPEAUstbtt_vertex@@@Z 0000000180081c60     imgui_draw.obj
 0002:00017c78       $unwind$stbtt_GetGlyphShape 0000000180081c78     imgui_draw.obj
 0002:00017c8c       $chain$0$stbtt_GetGlyphShape 0000000180081c8c     imgui_draw.obj
 0002:00017ca0       $chain$1$stbtt_GetGlyphShape 0000000180081ca0     imgui_draw.obj
 0002:00017cb0       $chain$2$?stbtt__handle_clipped_edge@@YAXPEAMHPEAUstbtt__active_edge@@MMMM@Z 0000000180081cb0     imgui_draw.obj
 0002:00017ccc       $chain$4$?stbtt__handle_clipped_edge@@YAXPEAMHPEAUstbtt__active_edge@@MMMM@Z 0000000180081ccc     imgui_draw.obj
 0002:00017ce8       $chain$5$?stbtt__handle_clipped_edge@@YAXPEAMHPEAUstbtt__active_edge@@MMMM@Z 0000000180081ce8     imgui_draw.obj
 0002:00017d00       $chain$6$?stbtt__handle_clipped_edge@@YAXPEAMHPEAUstbtt__active_edge@@MMMM@Z 0000000180081d00     imgui_draw.obj
 0002:00017d14       $chain$7$?stbtt__handle_clipped_edge@@YAXPEAMHPEAUstbtt__active_edge@@MMMM@Z 0000000180081d14     imgui_draw.obj
 0002:00017d24       $unwind$?stbtt__fill_active_edges_new@@YAXPEAM0HPEAUstbtt__active_edge@@M@Z 0000000180081d24     imgui_draw.obj
 0002:00017d58       $chain$8$?stbtt__fill_active_edges_new@@YAXPEAM0HPEAUstbtt__active_edge@@M@Z 0000000180081d58     imgui_draw.obj
 0002:00017d70       $chain$9$?stbtt__fill_active_edges_new@@YAXPEAM0HPEAUstbtt__active_edge@@M@Z 0000000180081d70     imgui_draw.obj
 0002:00017d84       $unwind$?stbtt__rasterize_sorted_edges@@YAXPEAUstbtt__bitmap@@PEAUstbtt__edge@@HHHHPEAX@Z 0000000180081d84     imgui_draw.obj
 0002:00017d94       $chain$0$?stbtt__rasterize_sorted_edges@@YAXPEAUstbtt__bitmap@@PEAUstbtt__edge@@HHHHPEAX@Z 0000000180081d94     imgui_draw.obj
 0002:00017da8       $chain$8$?stbtt__rasterize_sorted_edges@@YAXPEAUstbtt__bitmap@@PEAUstbtt__edge@@HHHHPEAX@Z 0000000180081da8     imgui_draw.obj
 0002:00017dd8       $chain$15$?stbtt__rasterize_sorted_edges@@YAXPEAUstbtt__bitmap@@PEAUstbtt__edge@@HHHHPEAX@Z 0000000180081dd8     imgui_draw.obj
 0002:00017e04       $chain$16$?stbtt__rasterize_sorted_edges@@YAXPEAUstbtt__bitmap@@PEAUstbtt__edge@@HHHHPEAX@Z 0000000180081e04     imgui_draw.obj
 0002:00017e14       $chain$17$?stbtt__rasterize_sorted_edges@@YAXPEAUstbtt__bitmap@@PEAUstbtt__edge@@HHHHPEAX@Z 0000000180081e14     imgui_draw.obj
 0002:00017e28       $chain$18$?stbtt__rasterize_sorted_edges@@YAXPEAUstbtt__bitmap@@PEAUstbtt__edge@@HHHHPEAX@Z 0000000180081e28     imgui_draw.obj
 0002:00017e38       $unwind$?stbtt__sort_edges_quicksort@@YAXPEAUstbtt__edge@@H@Z 0000000180081e38     imgui_draw.obj
 0002:00017e44       $chain$3$?stbtt__sort_edges_quicksort@@YAXPEAUstbtt__edge@@H@Z 0000000180081e44     imgui_draw.obj
 0002:00017e64       $chain$4$?stbtt__sort_edges_quicksort@@YAXPEAUstbtt__edge@@H@Z 0000000180081e64     imgui_draw.obj
 0002:00017e74       $unwind$?stbtt__rasterize@@YAXPEAUstbtt__bitmap@@PEAUstbtt__point@@PEAHHMMMMHHHPEAX@Z 0000000180081e74     imgui_draw.obj
 0002:00017e88       $chain$1$?stbtt__rasterize@@YAXPEAUstbtt__bitmap@@PEAUstbtt__point@@PEAHHMMMMHHHPEAX@Z 0000000180081e88     imgui_draw.obj
 0002:00017ea0       $chain$2$?stbtt__rasterize@@YAXPEAUstbtt__bitmap@@PEAUstbtt__point@@PEAHHMMMMHHHPEAX@Z 0000000180081ea0     imgui_draw.obj
 0002:00017eb4       $chain$3$?stbtt__rasterize@@YAXPEAUstbtt__bitmap@@PEAUstbtt__point@@PEAHHMMMMHHHPEAX@Z 0000000180081eb4     imgui_draw.obj
 0002:00017ec8       $chain$4$?stbtt__rasterize@@YAXPEAUstbtt__bitmap@@PEAUstbtt__point@@PEAHHMMMMHHHPEAX@Z 0000000180081ec8     imgui_draw.obj
 0002:00017ed8       $chain$5$?stbtt__rasterize@@YAXPEAUstbtt__bitmap@@PEAUstbtt__point@@PEAHHMMMMHHHPEAX@Z 0000000180081ed8     imgui_draw.obj
 0002:00017ee8       $chain$6$?stbtt__rasterize@@YAXPEAUstbtt__bitmap@@PEAUstbtt__point@@PEAHHMMMMHHHPEAX@Z 0000000180081ee8     imgui_draw.obj
 0002:00017ef8       $unwind$?stbtt__tesselate_curve@@YAHPEAUstbtt__point@@PEAHMMMMMMMH@Z 0000000180081ef8     imgui_draw.obj
 0002:00017f28       $chain$0$?stbtt__tesselate_curve@@YAHPEAUstbtt__point@@PEAHMMMMMMMH@Z 0000000180081f28     imgui_draw.obj
 0002:00017f3c       $chain$1$?stbtt__tesselate_curve@@YAHPEAUstbtt__point@@PEAHMMMMMMMH@Z 0000000180081f3c     imgui_draw.obj
 0002:00017f4c       $unwind$?stbtt__tesselate_cubic@@YAXPEAUstbtt__point@@PEAHMMMMMMMMMH@Z 0000000180081f4c     imgui_draw.obj
 0002:00017f84       $chain$0$?stbtt__tesselate_cubic@@YAXPEAUstbtt__point@@PEAHMMMMMMMMMH@Z 0000000180081f84     imgui_draw.obj
 0002:00017f98       $chain$1$?stbtt__tesselate_cubic@@YAXPEAUstbtt__point@@PEAHMMMMMMMMMH@Z 0000000180081f98     imgui_draw.obj
 0002:00017fa8       $unwind$?stbtt_FlattenCurves@@YAPEAUstbtt__point@@PEAUstbtt_vertex@@HMPEAPEAHPEAHPEAX@Z 0000000180081fa8     imgui_draw.obj
 0002:00017fc8       $chain$3$?stbtt_FlattenCurves@@YAPEAUstbtt__point@@PEAUstbtt_vertex@@HMPEAPEAHPEAHPEAX@Z 0000000180081fc8     imgui_draw.obj
 0002:00017fe8       $chain$4$?stbtt_FlattenCurves@@YAPEAUstbtt__point@@PEAUstbtt_vertex@@HMPEAPEAHPEAHPEAX@Z 0000000180081fe8     imgui_draw.obj
 0002:00017ff8       $chain$5$?stbtt_FlattenCurves@@YAPEAUstbtt__point@@PEAUstbtt_vertex@@HMPEAPEAHPEAHPEAX@Z 0000000180081ff8     imgui_draw.obj
 0002:00018018       $unwind$stbtt_MakeGlyphBitmapSubpixel 0000000180082018     imgui_draw.obj
 0002:00018024       $chain$4$stbtt_MakeGlyphBitmapSubpixel 0000000180082024     imgui_draw.obj
 0002:00018048       $chain$10$stbtt_MakeGlyphBitmapSubpixel 0000000180082048     imgui_draw.obj
 0002:00018070       $chain$11$stbtt_MakeGlyphBitmapSubpixel 0000000180082070     imgui_draw.obj
 0002:00018090       $chain$12$stbtt_MakeGlyphBitmapSubpixel 0000000180082090     imgui_draw.obj
 0002:000180a0       $unwind$?stbtt__h_prefilter@@YAXPEAEHHHI@Z 00000001800820a0     imgui_draw.obj
 0002:000180b8       $chain$2$?stbtt__h_prefilter@@YAXPEAEHHHI@Z 00000001800820b8     imgui_draw.obj
 0002:000180d4       $chain$3$?stbtt__h_prefilter@@YAXPEAEHHHI@Z 00000001800820d4     imgui_draw.obj
 0002:000180e4       $unwind$?stbtt__v_prefilter@@YAXPEAEHHHI@Z 00000001800820e4     imgui_draw.obj
 0002:000180fc       $chain$1$?stbtt__v_prefilter@@YAXPEAEHHHI@Z 00000001800820fc     imgui_draw.obj
 0002:00018114       $chain$2$?stbtt__v_prefilter@@YAXPEAEHHHI@Z 0000000180082114     imgui_draw.obj
 0002:00018124       $unwind$stbtt_PackFontRangesRenderIntoRects 0000000180082124     imgui_draw.obj
 0002:00018148       $chain$1$stbtt_PackFontRangesRenderIntoRects 0000000180082148     imgui_draw.obj
 0002:0001815c       $chain$7$stbtt_PackFontRangesRenderIntoRects 000000018008215c     imgui_draw.obj
 0002:00018184       $chain$8$stbtt_PackFontRangesRenderIntoRects 0000000180082184     imgui_draw.obj
 0002:00018194       $unwind$?StyleColorsDark@ImGui@@YAXPEAUImGuiStyle@@@Z 0000000180082194     imgui_draw.obj
 0002:000181ac       $unwind$?AddDrawCmd@ImDrawList@@QEAAXXZ 00000001800821ac     imgui_draw.obj
 0002:000181ac       $unwind$?InputTextFilterCharacter@@YA_NPEAIHP6AHPEAUImGuiInputTextCallbackData@@@ZPEAX@Z 00000001800821ac     imgui_widgets.obj
 0002:000181b4       $unwind$?PushClipRect@ImDrawList@@QEAAXUImVec2@@0_N@Z 00000001800821b4     imgui_draw.obj
 0002:000181b4       $unwind$capture_current_context 00000001800821b4     LIBCMT:gs_report.obj
 0002:000181c0       $unwind$?AddPolyline@ImDrawList@@QEAAXPEBUImVec2@@HI_NM@Z 00000001800821c0     imgui_draw.obj
 0002:00018208       $unwind$?AddConvexPolyFilled@ImDrawList@@QEAAXPEBUImVec2@@HI@Z 0000000180082208     imgui_draw.obj
 0002:0001824c       $unwind$?PathArcToFast@ImDrawList@@QEAAXAEBUImVec2@@MHH@Z 000000018008224c     imgui_draw.obj
 0002:00018268       $unwind$?PathArcTo@ImDrawList@@QEAAXAEBUImVec2@@MMMH@Z 0000000180082268     imgui_draw.obj
 0002:00018280       $chain$1$?PathArcTo@ImDrawList@@QEAAXAEBUImVec2@@MMMH@Z 0000000180082280     imgui_draw.obj
 0002:00018298       $chain$4$?PathArcTo@ImDrawList@@QEAAXAEBUImVec2@@MMMH@Z 0000000180082298     imgui_draw.obj
 0002:000182b4       $chain$5$?PathArcTo@ImDrawList@@QEAAXAEBUImVec2@@MMMH@Z 00000001800822b4     imgui_draw.obj
 0002:000182c4       $chain$6$?PathArcTo@ImDrawList@@QEAAXAEBUImVec2@@MMMH@Z 00000001800822c4     imgui_draw.obj
 0002:000182d4       $unwind$?PathRect@ImDrawList@@QEAAXAEBUImVec2@@0MH@Z 00000001800822d4     imgui_draw.obj
 0002:000182e4       $chain$1$?PathRect@ImDrawList@@QEAAXAEBUImVec2@@0MH@Z 00000001800822e4     imgui_draw.obj
 0002:000182fc       $chain$5$?PathRect@ImDrawList@@QEAAXAEBUImVec2@@0MH@Z 00000001800822fc     imgui_draw.obj
 0002:00018318       $chain$6$?PathRect@ImDrawList@@QEAAXAEBUImVec2@@0MH@Z 0000000180082318     imgui_draw.obj
 0002:00018330       $unwind$?AddLine@ImDrawList@@QEAAXAEBUImVec2@@0IM@Z 0000000180082330     imgui_draw.obj
 0002:00018344       $chain$1$?AddLine@ImDrawList@@QEAAXAEBUImVec2@@0IM@Z 0000000180082344     imgui_draw.obj
 0002:00018358       $chain$2$?AddLine@ImDrawList@@QEAAXAEBUImVec2@@0IM@Z 0000000180082358     imgui_draw.obj
 0002:0001836c       $chain$3$?AddLine@ImDrawList@@QEAAXAEBUImVec2@@0IM@Z 000000018008236c     imgui_draw.obj
 0002:0001837c       $chain$4$?AddLine@ImDrawList@@QEAAXAEBUImVec2@@0IM@Z 000000018008237c     imgui_draw.obj
 0002:0001838c       $unwind$?AddRect@ImDrawList@@QEAAXAEBUImVec2@@0IMHM@Z 000000018008238c     imgui_draw.obj
 0002:00018398       $unwind$?AddRectFilled@ImDrawList@@QEAAXAEBUImVec2@@0IMH@Z 0000000180082398     imgui_draw.obj
 0002:000183ac       $chain$0$?AddRectFilled@ImDrawList@@QEAAXAEBUImVec2@@0IMH@Z 00000001800823ac     imgui_draw.obj
 0002:000183c0       $chain$1$?AddRectFilled@ImDrawList@@QEAAXAEBUImVec2@@0IMH@Z 00000001800823c0     imgui_draw.obj
 0002:000183d0       $unwind$?AddRectFilledMultiColor@ImDrawList@@QEAAXAEBUImVec2@@0IIII@Z 00000001800823d0     imgui_draw.obj
 0002:000183d0       $unwind$?stb_textedit_find_charpos@ImStb@@YAXPEAUStbFindState@1@PEAUImGuiInputTextState@@HH@Z 00000001800823d0     imgui_widgets.obj
 0002:000183ec       $chain$1$?AddRectFilledMultiColor@ImDrawList@@QEAAXAEBUImVec2@@0IIII@Z 00000001800823ec     imgui_draw.obj
 0002:00018404       $chain$2$?AddRectFilledMultiColor@ImDrawList@@QEAAXAEBUImVec2@@0IIII@Z 0000000180082404     imgui_draw.obj
 0002:00018414       $unwind$?AddTriangleFilled@ImDrawList@@QEAAXAEBUImVec2@@00I@Z 0000000180082414     imgui_draw.obj
 0002:00018424       $chain$1$?AddTriangleFilled@ImDrawList@@QEAAXAEBUImVec2@@00I@Z 0000000180082424     imgui_draw.obj
 0002:0001843c       $chain$2$?AddTriangleFilled@ImDrawList@@QEAAXAEBUImVec2@@00I@Z 000000018008243c     imgui_draw.obj
 0002:0001844c       $unwind$?AddCircle@ImDrawList@@QEAAXAEBUImVec2@@MIHM@Z 000000018008244c     imgui_draw.obj
 0002:00018458       $unwind$?AddText@ImDrawList@@QEAAXAEBUImVec2@@IPEBD1@Z 0000000180082458     imgui_draw.obj
 0002:00018460       $unwind$?ClearFreeMemory@ImDrawListSplitter@@QEAAXXZ 0000000180082460     imgui_draw.obj
 0002:0001846c       $chain$0$?ClearFreeMemory@ImDrawListSplitter@@QEAAXXZ 000000018008246c     imgui_draw.obj
 0002:00018480       $chain$2$?ClearFreeMemory@ImDrawListSplitter@@QEAAXXZ 0000000180082480     imgui_draw.obj
 0002:00018498       $chain$3$?ClearFreeMemory@ImDrawListSplitter@@QEAAXXZ 0000000180082498     imgui_draw.obj
 0002:000184a8       $chain$4$?ClearFreeMemory@ImDrawListSplitter@@QEAAXXZ 00000001800824a8     imgui_draw.obj
 0002:000184b8       $unwind$?Merge@ImDrawListSplitter@@QEAAXPEAUImDrawList@@@Z 00000001800824b8     imgui_draw.obj
 0002:000184c4       $chain$5$?Merge@ImDrawListSplitter@@QEAAXPEAUImDrawList@@@Z 00000001800824c4     imgui_draw.obj
 0002:000184ec       $chain$6$?Merge@ImDrawListSplitter@@QEAAXPEAUImDrawList@@@Z 00000001800824ec     imgui_draw.obj
 0002:000184fc       $unwind$?ShadeVertsLinearColorGradientKeepAlpha@ImGui@@YAXPEAUImDrawList@@HHUImVec2@@1II@Z 00000001800824fc     imgui_draw.obj
 0002:00018518       $chain$6$?ShadeVertsLinearColorGradientKeepAlpha@ImGui@@YAXPEAUImDrawList@@HHUImVec2@@1II@Z 0000000180082518     imgui_draw.obj
 0002:00018544       $chain$7$?ShadeVertsLinearColorGradientKeepAlpha@ImGui@@YAXPEAUImDrawList@@HHUImVec2@@1II@Z 0000000180082544     imgui_draw.obj
 0002:00018554       $unwind$?GetTexDataAsRGBA32@ImFontAtlas@@QEAAXPEAPEAEPEAH11@Z 0000000180082554     imgui_draw.obj
 0002:0001856c       $chain$0$?GetTexDataAsRGBA32@ImFontAtlas@@QEAAXPEAPEAEPEAH11@Z 000000018008256c     imgui_draw.obj
 0002:00018580       $chain$1$?GetTexDataAsRGBA32@ImFontAtlas@@QEAAXPEAPEAEPEAH11@Z 0000000180082580     imgui_draw.obj
 0002:00018594       $chain$2$?GetTexDataAsRGBA32@ImFontAtlas@@QEAAXPEAPEAEPEAH11@Z 0000000180082594     imgui_draw.obj
 0002:000185a8       $chain$3$?GetTexDataAsRGBA32@ImFontAtlas@@QEAAXPEAPEAEPEAH11@Z 00000001800825a8     imgui_draw.obj
 0002:000185b8       $chain$4$?GetTexDataAsRGBA32@ImFontAtlas@@QEAAXPEAPEAEPEAH11@Z 00000001800825b8     imgui_draw.obj
 0002:000185c8       $chain$5$?GetTexDataAsRGBA32@ImFontAtlas@@QEAAXPEAPEAEPEAH11@Z 00000001800825c8     imgui_draw.obj
 0002:000185d8       $unwind$?AddFont@ImFontAtlas@@QEAAPEAUImFont@@PEBUImFontConfig@@@Z 00000001800825d8     imgui_draw.obj
 0002:000185d8       $unwind$?CalcWordWrapPositionA@ImFont@@QEBAPEBDMPEBD0M@Z 00000001800825d8     imgui_draw.obj
 0002:000185f0       $unwind$?AddFontFromMemoryTTF@ImFontAtlas@@QEAAPEAUImFont@@PEAXHMPEBUImFontConfig@@PEBG@Z 00000001800825f0     imgui_draw.obj
 0002:00018614       $unwind$?AddFontFromMemoryCompressedTTF@ImFontAtlas@@QEAAPEAUImFont@@PEBXHMPEBUImFontConfig@@PEBG@Z 0000000180082614     imgui_draw.obj
 0002:00018640       $chain$0$?AddFontFromMemoryCompressedTTF@ImFontAtlas@@QEAAPEAUImFont@@PEBXHMPEBUImFontConfig@@PEBG@Z 0000000180082640     imgui_draw.obj
 0002:00018654       $chain$1$?AddFontFromMemoryCompressedTTF@ImFontAtlas@@QEAAPEAUImFont@@PEBXHMPEBUImFontConfig@@PEBG@Z 0000000180082654     imgui_draw.obj
 0002:00018668       $chain$2$?AddFontFromMemoryCompressedTTF@ImFontAtlas@@QEAAPEAUImFont@@PEBXHMPEBUImFontConfig@@PEBG@Z 0000000180082668     imgui_draw.obj
 0002:00018678       $chain$3$?AddFontFromMemoryCompressedTTF@ImFontAtlas@@QEAAPEAUImFont@@PEBXHMPEBUImFontConfig@@PEBG@Z 0000000180082678     imgui_draw.obj
 0002:00018688       $unwind$?AddFontFromMemoryCompressedBase85TTF@ImFontAtlas@@QEAAPEAUImFont@@PEBDMPEBUImFontConfig@@PEBG@Z 0000000180082688     imgui_draw.obj
 0002:000186a0       $unwind$?ImFontAtlasBuildWithStbTruetype@@YA_NPEAUImFontAtlas@@@Z 00000001800826a0     imgui_draw.obj
 0002:000186f0       $cppxdata$?ImFontAtlasBuildWithStbTruetype@@YA_NPEAUImFontAtlas@@@Z 00000001800826f0     imgui_draw.obj
 0002:000186f9       $stateUnwindMap$?ImFontAtlasBuildWithStbTruetype@@YA_NPEAUImFontAtlas@@@Z 00000001800826f9     imgui_draw.obj
 0002:00018736       $ip2state$?ImFontAtlasBuildWithStbTruetype@@YA_NPEAUImFontAtlas@@@Z 0000000180082736     imgui_draw.obj
 0002:0001874c       $unwind$?ImFontAtlasBuildPackCustomRects@@YAXPEAUImFontAtlas@@PEAX@Z 000000018008274c     imgui_draw.obj
 0002:0001876c       $cppxdata$?ImFontAtlasBuildPackCustomRects@@YAXPEAUImFontAtlas@@PEAX@Z 000000018008276c     imgui_draw.obj
 0002:00018775       $stateUnwindMap$?ImFontAtlasBuildPackCustomRects@@YAXPEAUImFontAtlas@@PEAX@Z 0000000180082775     imgui_draw.obj
 0002:00018784       $unwind$?ImFontAtlasBuildRenderDefaultTexData@@YAXPEAUImFontAtlas@@@Z 0000000180082784     imgui_draw.obj
 0002:0001878c       $chain$6$?ImFontAtlasBuildRenderDefaultTexData@@YAXPEAUImFontAtlas@@@Z 000000018008278c     imgui_draw.obj
 0002:000187b8       $chain$7$?ImFontAtlasBuildRenderDefaultTexData@@YAXPEAUImFontAtlas@@@Z 00000001800827b8     imgui_draw.obj
 0002:000187c8       $unwind$?ImFontAtlasBuildFinish@@YAXPEAUImFontAtlas@@@Z 00000001800827c8     imgui_draw.obj
 0002:000187d8       $chain$2$?ImFontAtlasBuildFinish@@YAXPEAUImFontAtlas@@@Z 00000001800827d8     imgui_draw.obj
 0002:000187f4       $chain$3$?ImFontAtlasBuildFinish@@YAXPEAUImFontAtlas@@@Z 00000001800827f4     imgui_draw.obj
 0002:00018804       $chain$6$?ImFontAtlasBuildFinish@@YAXPEAUImFontAtlas@@@Z 0000000180082804     imgui_draw.obj
 0002:00018820       $chain$7$?ImFontAtlasBuildFinish@@YAXPEAUImFontAtlas@@@Z 0000000180082820     imgui_draw.obj
 0002:00018830       $unwind$?GrowIndex@ImFont@@QEAAXH@Z 0000000180082830     imgui_draw.obj
 0002:0001883c       $chain$1$?GrowIndex@ImFont@@QEAAXH@Z 000000018008283c     imgui_draw.obj
 0002:00018854       $chain$2$?GrowIndex@ImFont@@QEAAXH@Z 0000000180082854     imgui_draw.obj
 0002:00018868       $chain$3$?GrowIndex@ImFont@@QEAAXH@Z 0000000180082868     imgui_draw.obj
 0002:00018878       $unwind$?AddGlyph@ImFont@@QEAAXGMMMMMMMMM@Z 0000000180082878     imgui_draw.obj
 0002:00018890       $chain$0$?CalcWordWrapPositionA@ImFont@@QEBAPEBDMPEBD0M@Z 0000000180082890     imgui_draw.obj
 0002:000188a4       $chain$1$?CalcWordWrapPositionA@ImFont@@QEBAPEBDMPEBD0M@Z 00000001800828a4     imgui_draw.obj
 0002:000188a4       $chain$3$?CalcWordWrapPositionA@ImFont@@QEBAPEBDMPEBD0M@Z 00000001800828a4     imgui_draw.obj
 0002:000188b4       $chain$2$?CalcWordWrapPositionA@ImFont@@QEBAPEBDMPEBD0M@Z 00000001800828b4     imgui_draw.obj
 0002:000188c8       $unwind$?CalcTextSizeA@ImFont@@QEBA?AUImVec2@@MMMPEBD0PEAPEBD@Z 00000001800828c8     imgui_draw.obj
 0002:000188fc       $unwind$?RenderText@ImFont@@QEBAXPEAUImDrawList@@MUImVec2@@IAEBUImVec4@@PEBD3M_N@Z 00000001800828fc     imgui_draw.obj
 0002:0001891c       $chain$5$?RenderText@ImFont@@QEBAXPEAUImDrawList@@MUImVec2@@IAEBUImVec4@@PEBD3M_N@Z 000000018008291c     imgui_draw.obj
 0002:00018944       $chain$7$?RenderText@ImFont@@QEBAXPEAUImDrawList@@MUImVec2@@IAEBUImVec4@@PEBD3M_N@Z 0000000180082944     imgui_draw.obj
 0002:0001895c       $chain$9$?RenderText@ImFont@@QEBAXPEAUImDrawList@@MUImVec2@@IAEBUImVec4@@PEBD3M_N@Z 000000018008295c     imgui_draw.obj
 0002:00018974       $chain$10$?RenderText@ImFont@@QEBAXPEAUImDrawList@@MUImVec2@@IAEBUImVec4@@PEBD3M_N@Z 0000000180082974     imgui_draw.obj
 0002:00018984       $chain$11$?RenderText@ImFont@@QEBAXPEAUImDrawList@@MUImVec2@@IAEBUImVec4@@PEBD3M_N@Z 0000000180082984     imgui_draw.obj
 0002:00018994       $chain$12$?RenderText@ImFont@@QEBAXPEAUImDrawList@@MUImVec2@@IAEBUImVec4@@PEBD3M_N@Z 0000000180082994     imgui_draw.obj
 0002:000189a4       $chain$1$?resize@?$ImVector@UImFontGlyph@@@@QEAAXH@Z 00000001800829a4     imgui_draw.obj
 0002:000189bc       $chain$3$?resize@?$ImVector@UImFontGlyph@@@@QEAAXH@Z 00000001800829bc     imgui_draw.obj
 0002:000189d0       $chain$4$?resize@?$ImVector@UImFontGlyph@@@@QEAAXH@Z 00000001800829d0     imgui_draw.obj
 0002:000189e0       $chain$0$?push_back@?$ImVector@UImFontAtlasCustomRect@@@@QEAAXAEBUImFontAtlasCustomRect@@@Z 00000001800829e0     imgui_draw.obj
 0002:000189f4       $chain$1$?push_back@?$ImVector@UImFontAtlasCustomRect@@@@QEAAXAEBUImFontAtlasCustomRect@@@Z 00000001800829f4     imgui_draw.obj
 0002:00018a04       $chain$0$?reserve@?$ImVector@UImVec4@@@@QEAAXH@Z 0000000180082a04     imgui_draw.obj
 0002:00018a18       $chain$1$?reserve@?$ImVector@UImVec4@@@@QEAAXH@Z 0000000180082a18     imgui_draw.obj
 0002:00018a28       $chain$0$?reserve@?$ImVector@UImDrawCmd@@@@QEAAXH@Z 0000000180082a28     imgui_draw.obj
 0002:00018a3c       $chain$1$?reserve@?$ImVector@UImDrawCmd@@@@QEAAXH@Z 0000000180082a3c     imgui_draw.obj
 0002:00018a4c       $unwind$?ImGui_ImplDX11_SetupRenderState@@YAXPEAUImDrawData@@PEAUID3D11DeviceContext@@@Z 0000000180082a4c     imgui_impl_dx11.obj
 0002:00018a4c       $unwind$??$RoundScalarWithFormatT@MM@ImGui@@YAMPEBDHM@Z 0000000180082a4c     imgui_widgets.obj
 0002:00018a4c       $unwind$??$RoundScalarWithFormatT@NN@ImGui@@YANPEBDHN@Z 0000000180082a4c     imgui_widgets.obj
 0002:00018a5c       $unwind$?ImGui_ImplDX11_RenderDrawData@@YAXPEAUImDrawData@@@Z 0000000180082a5c     imgui_impl_dx11.obj
 0002:00018a70       $chain$1$?ImGui_ImplDX11_RenderDrawData@@YAXPEAUImDrawData@@@Z 0000000180082a70     imgui_impl_dx11.obj
 0002:00018a88       $chain$5$?ImGui_ImplDX11_RenderDrawData@@YAXPEAUImDrawData@@@Z 0000000180082a88     imgui_impl_dx11.obj
 0002:00018aa8       $chain$7$?ImGui_ImplDX11_RenderDrawData@@YAXPEAUImDrawData@@@Z 0000000180082aa8     imgui_impl_dx11.obj
 0002:00018ac0       $chain$8$?ImGui_ImplDX11_RenderDrawData@@YAXPEAUImDrawData@@@Z 0000000180082ac0     imgui_impl_dx11.obj
 0002:00018ad0       $chain$9$?ImGui_ImplDX11_RenderDrawData@@YAXPEAUImDrawData@@@Z 0000000180082ad0     imgui_impl_dx11.obj
 0002:00018ae0       $chain$10$?ImGui_ImplDX11_RenderDrawData@@YAXPEAUImDrawData@@@Z 0000000180082ae0     imgui_impl_dx11.obj
 0002:00018af0       $unwind$?ImGui_ImplDX11_CreateDeviceObjects@@YA_NXZ 0000000180082af0     imgui_impl_dx11.obj
 0002:00018b14       $chain$0$?ImGui_ImplDX11_InvalidateDeviceObjects@@YAXXZ 0000000180082b14     imgui_impl_dx11.obj
 0002:00018b28       $chain$1$?ImGui_ImplDX11_InvalidateDeviceObjects@@YAXXZ 0000000180082b28     imgui_impl_dx11.obj
 0002:00018b38       $unwind$?ImGui_ImplWin32_NewFrame@@YAXXZ 0000000180082b38     imgui_impl_win32.obj
 0002:00018b4c       $unwind$?TextEx@ImGui@@YAXPEBD0H@Z 0000000180082b4c     imgui_widgets.obj
 0002:00018b60       $chain$7$?TextEx@ImGui@@YAXPEBD0H@Z 0000000180082b60     imgui_widgets.obj
 0002:00018b90       $chain$11$?TextEx@ImGui@@YAXPEBD0H@Z 0000000180082b90     imgui_widgets.obj
 0002:00018bb0       $chain$12$?TextEx@ImGui@@YAXPEBD0H@Z 0000000180082bb0     imgui_widgets.obj
 0002:00018bc4       $chain$13$?TextEx@ImGui@@YAXPEBD0H@Z 0000000180082bc4     imgui_widgets.obj
 0002:00018bd4       $chain$14$?TextEx@ImGui@@YAXPEBD0H@Z 0000000180082bd4     imgui_widgets.obj
 0002:00018be4       $chain$15$?TextEx@ImGui@@YAXPEBD0H@Z 0000000180082be4     imgui_widgets.obj
 0002:00018bf4       $unwind$?Text@ImGui@@YAXPEBDZZ 0000000180082bf4     imgui_widgets.obj
 0002:00018bf4       $unwind$?Copy0F@CDetourDis@@IEAAPEAEPEBUCOPYENTRY@1@PEAE1@Z 0000000180082bf4     detours:disasm.obj
 0002:00018bf4       $unwind$?Copy66@CDetourDis@@IEAAPEAEPEBUCOPYENTRY@1@PEAE1@Z 0000000180082bf4     detours:disasm.obj
 0002:00018bf4       $unwind$?Copy67@CDetourDis@@IEAAPEAEPEBUCOPYENTRY@1@PEAE1@Z 0000000180082bf4     detours:disasm.obj
 0002:00018bf4       $unwind$?CopyBytesJump@CDetourDis@@IEAAPEAEPEBUCOPYENTRY@1@PEAE1@Z 0000000180082bf4     detours:disasm.obj
 0002:00018bf4       $unwind$?CopyBytesPrefix@CDetourDis@@IEAAPEAEPEBUCOPYENTRY@1@PEAE1@Z 0000000180082bf4     detours:disasm.obj
 0002:00018bf4       $unwind$?CopyBytesRax@CDetourDis@@IEAAPEAEPEBUCOPYENTRY@1@PEAE1@Z 0000000180082bf4     detours:disasm.obj
 0002:00018bfc       $unwind$?TextV@ImGui@@YAXPEBDPEAD@Z 0000000180082bfc     imgui_widgets.obj
 0002:00018c0c       $chain$0$?TextV@ImGui@@YAXPEBDPEAD@Z 0000000180082c0c     imgui_widgets.obj
 0002:00018c20       $chain$1$?TextV@ImGui@@YAXPEBDPEAD@Z 0000000180082c20     imgui_widgets.obj
 0002:00018c30       $unwind$?TextColored@ImGui@@YAXAEBUImVec4@@PEBDZZ 0000000180082c30     imgui_widgets.obj
 0002:00018c40       $unwind$?ButtonBehavior@ImGui@@YA_NAEBUImRect@@IPEA_N1H@Z 0000000180082c40     imgui_widgets.obj
 0002:00018c50       $chain$1$?ButtonBehavior@ImGui@@YA_NAEBUImRect@@IPEA_N1H@Z 0000000180082c50     imgui_widgets.obj
 0002:00018c64       $chain$5$?ButtonBehavior@ImGui@@YA_NAEBUImRect@@IPEA_N1H@Z 0000000180082c64     imgui_widgets.obj
 0002:00018c84       $chain$6$?ButtonBehavior@ImGui@@YA_NAEBUImRect@@IPEA_N1H@Z 0000000180082c84     imgui_widgets.obj
 0002:00018c9c       $chain$7$?ButtonBehavior@ImGui@@YA_NAEBUImRect@@IPEA_N1H@Z 0000000180082c9c     imgui_widgets.obj
 0002:00018cb0       $chain$8$?ButtonBehavior@ImGui@@YA_NAEBUImRect@@IPEA_N1H@Z 0000000180082cb0     imgui_widgets.obj
 0002:00018cc0       $unwind$?ButtonEx@ImGui@@YA_NPEBDAEBUImVec2@@H@Z 0000000180082cc0     imgui_widgets.obj
 0002:00018cd8       $chain$1$?ButtonEx@ImGui@@YA_NPEBDAEBUImVec2@@H@Z 0000000180082cd8     imgui_widgets.obj
 0002:00018cf0       $chain$2$?ButtonEx@ImGui@@YA_NPEBDAEBUImVec2@@H@Z 0000000180082cf0     imgui_widgets.obj
 0002:00018d00       $unwind$?InvisibleButton@ImGui@@YA_NPEBDAEBUImVec2@@@Z 0000000180082d00     imgui_widgets.obj
 0002:00018d10       $unwind$?CollapseButton@ImGui@@YA_NIAEBUImVec2@@@Z 0000000180082d10     imgui_widgets.obj
 0002:00018d1c       $chain$5$?CollapseButton@ImGui@@YA_NIAEBUImVec2@@@Z 0000000180082d1c     imgui_widgets.obj
 0002:00018d44       $chain$6$?CollapseButton@ImGui@@YA_NIAEBUImVec2@@@Z 0000000180082d44     imgui_widgets.obj
 0002:00018d58       $chain$7$?CollapseButton@ImGui@@YA_NIAEBUImVec2@@@Z 0000000180082d58     imgui_widgets.obj
 0002:00018d68       $chain$8$?CollapseButton@ImGui@@YA_NIAEBUImVec2@@@Z 0000000180082d68     imgui_widgets.obj
 0002:00018d78       $unwind$?ScrollbarEx@ImGui@@YA_NAEBUImRect@@IW4ImGuiAxis@@PEAMMMH@Z 0000000180082d78     imgui_widgets.obj
 0002:00018d9c       $chain$0$?ScrollbarEx@ImGui@@YA_NAEBUImRect@@IW4ImGuiAxis@@PEAMMMH@Z 0000000180082d9c     imgui_widgets.obj
 0002:00018db0       $chain$8$?ScrollbarEx@ImGui@@YA_NAEBUImRect@@IW4ImGuiAxis@@PEAMMMH@Z 0000000180082db0     imgui_widgets.obj
 0002:00018de0       $chain$9$?ScrollbarEx@ImGui@@YA_NAEBUImRect@@IW4ImGuiAxis@@PEAMMMH@Z 0000000180082de0     imgui_widgets.obj
 0002:00018e00       $chain$10$?ScrollbarEx@ImGui@@YA_NAEBUImRect@@IW4ImGuiAxis@@PEAMMMH@Z 0000000180082e00     imgui_widgets.obj
 0002:00018e10       $unwind$?Scrollbar@ImGui@@YAXW4ImGuiAxis@@@Z 0000000180082e10     imgui_widgets.obj
 0002:00018e24       $unwind$?Checkbox@ImGui@@YA_NPEBDPEA_N@Z 0000000180082e24     imgui_widgets.obj
 0002:00018e4c       $chain$0$?Checkbox@ImGui@@YA_NPEBDPEA_N@Z 0000000180082e4c     imgui_widgets.obj
 0002:00018e60       $chain$4$?Checkbox@ImGui@@YA_NPEBDPEA_N@Z 0000000180082e60     imgui_widgets.obj
 0002:00018e80       $chain$5$?Checkbox@ImGui@@YA_NPEBDPEA_N@Z 0000000180082e80     imgui_widgets.obj
 0002:00018e98       $chain$6$?Checkbox@ImGui@@YA_NPEBDPEA_N@Z 0000000180082e98     imgui_widgets.obj
 0002:00018eac       $chain$7$?Checkbox@ImGui@@YA_NPEBDPEA_N@Z 0000000180082eac     imgui_widgets.obj
 0002:00018ebc       $unwind$?RadioButton@ImGui@@YA_NPEBD_N@Z 0000000180082ebc     imgui_widgets.obj
 0002:00018eec       $chain$0$?RadioButton@ImGui@@YA_NPEBD_N@Z 0000000180082eec     imgui_widgets.obj
 0002:00018f00       $chain$4$?RadioButton@ImGui@@YA_NPEBD_N@Z 0000000180082f00     imgui_widgets.obj
 0002:00018f20       $chain$5$?RadioButton@ImGui@@YA_NPEBD_N@Z 0000000180082f20     imgui_widgets.obj
 0002:00018f3c       $chain$6$?RadioButton@ImGui@@YA_NPEBD_N@Z 0000000180082f3c     imgui_widgets.obj
 0002:00018f4c       $chain$7$?RadioButton@ImGui@@YA_NPEBD_N@Z 0000000180082f4c     imgui_widgets.obj
 0002:00018f5c       $unwind$?Dummy@ImGui@@YAXAEBUImVec2@@@Z 0000000180082f5c     imgui_widgets.obj
 0002:00018f64       $chain$4$?Dummy@ImGui@@YAXAEBUImVec2@@@Z 0000000180082f64     imgui_widgets.obj
 0002:00018f88       $chain$5$?Dummy@ImGui@@YAXAEBUImVec2@@@Z 0000000180082f88     imgui_widgets.obj
 0002:00018fa4       $chain$6$?Dummy@ImGui@@YAXAEBUImVec2@@@Z 0000000180082fa4     imgui_widgets.obj
 0002:00018fb4       $unwind$?SeparatorEx@ImGui@@YAXH@Z 0000000180082fb4     imgui_widgets.obj
 0002:00018fc4       $chain$6$?SeparatorEx@ImGui@@YAXH@Z 0000000180082fc4     imgui_widgets.obj
 0002:00018ff0       $chain$7$?SeparatorEx@ImGui@@YAXH@Z 0000000180082ff0     imgui_widgets.obj
 0002:00019004       $chain$8$?SeparatorEx@ImGui@@YAXH@Z 0000000180083004     imgui_widgets.obj
 0002:00019014       $chain$9$?SeparatorEx@ImGui@@YAXH@Z 0000000180083014     imgui_widgets.obj
 0002:00019024       $unwind$?BeginCombo@ImGui@@YA_NPEBD0H@Z 0000000180083024     imgui_widgets.obj
 0002:00019064       $chain$1$?BeginCombo@ImGui@@YA_NPEBD0H@Z 0000000180083064     imgui_widgets.obj
 0002:0001907c       $chain$2$?BeginCombo@ImGui@@YA_NPEBD0H@Z 000000018008307c     imgui_widgets.obj
 0002:00019090       $chain$3$?BeginCombo@ImGui@@YA_NPEBD0H@Z 0000000180083090     imgui_widgets.obj
 0002:000190a0       $chain$4$?BeginCombo@ImGui@@YA_NPEBD0H@Z 00000001800830a0     imgui_widgets.obj
 0002:000190b0       $unwind$?Combo@ImGui@@YA_NPEBDPEAHP6A_NPEAXHPEAPEBD@Z2HH@Z 00000001800830b0     imgui_widgets.obj
 0002:000190c4       $chain$2$?Combo@ImGui@@YA_NPEBDPEAHP6A_NPEAXHPEAPEBD@Z2HH@Z 00000001800830c4     imgui_widgets.obj
 0002:000190dc       $chain$3$?Combo@ImGui@@YA_NPEBDPEAHP6A_NPEAXHPEAPEBD@Z2HH@Z 00000001800830dc     imgui_widgets.obj
 0002:000190ec       $chain$0$?PatchFormatStringFloatToInt@@YAPEBDPEBD@Z 00000001800830ec     imgui_widgets.obj
 0002:00019100       $chain$1$?PatchFormatStringFloatToInt@@YAPEBDPEBD@Z 0000000180083100     imgui_widgets.obj
 0002:00019110       $unwind$?DataTypeApplyOpFromText@ImGui@@YA_NPEBD0HPEAX0@Z 0000000180083110     imgui_widgets.obj
 0002:00019130       $unwind$?DragScalar@ImGui@@YA_NPEBDHPEAXMPEBX20M@Z 0000000180083130     imgui_widgets.obj
 0002:00019168       $chain$0$?DragScalar@ImGui@@YA_NPEBDHPEAXMPEBX20M@Z 0000000180083168     imgui_widgets.obj
 0002:0001917c       $chain$1$?DragScalar@ImGui@@YA_NPEBDHPEAXMPEBX20M@Z 000000018008317c     imgui_widgets.obj
 0002:0001918c       $unwind$?SliderScalar@ImGui@@YA_NPEBDHPEAXPEBX20M@Z 000000018008318c     imgui_widgets.obj
 0002:000191b8       $chain$0$?SliderScalar@ImGui@@YA_NPEBDHPEAXPEBX20M@Z 00000001800831b8     imgui_widgets.obj
 0002:000191cc       $chain$1$?SliderScalar@ImGui@@YA_NPEBDHPEAXPEBX20M@Z 00000001800831cc     imgui_widgets.obj
 0002:000191cc       $chain$3$?SliderScalar@ImGui@@YA_NPEBDHPEAXPEBX20M@Z 00000001800831cc     imgui_widgets.obj
 0002:000191dc       $chain$2$?SliderScalar@ImGui@@YA_NPEBDHPEAXPEBX20M@Z 00000001800831dc     imgui_widgets.obj
 0002:000191f0       $unwind$?TempInputTextScalar@ImGui@@YA_NAEBUImRect@@IPEBDHPEAX1@Z 00000001800831f0     imgui_widgets.obj
 0002:00019214       $unwind$?STB_TEXTEDIT_LAYOUTROW@ImStb@@YAXPEAUStbTexteditRow@1@PEAUImGuiInputTextState@@H@Z 0000000180083214     imgui_widgets.obj
 0002:00019220       $chain$0$?STB_TEXTEDIT_MOVEWORDLEFT_IMPL@ImStb@@YAHPEAUImGuiInputTextState@@H@Z 0000000180083220     imgui_widgets.obj
 0002:00019234       $chain$1$?STB_TEXTEDIT_MOVEWORDLEFT_IMPL@ImStb@@YAHPEAUImGuiInputTextState@@H@Z 0000000180083234     imgui_widgets.obj
 0002:00019244       $chain$2$?STB_TEXTEDIT_MOVEWORDRIGHT_IMPL@ImStb@@YAHPEAUImGuiInputTextState@@H@Z 0000000180083244     imgui_widgets.obj
 0002:00019260       $chain$3$?STB_TEXTEDIT_MOVEWORDRIGHT_IMPL@ImStb@@YAHPEAUImGuiInputTextState@@H@Z 0000000180083260     imgui_widgets.obj
 0002:00019270       $unwind$?STB_TEXTEDIT_DELETECHARS@ImStb@@YAXPEAUImGuiInputTextState@@HH@Z 0000000180083270     imgui_widgets.obj
 0002:00019270       $unwind$?assemble_floating_point_value_from_big_integer@__crt_strtox@@YA?AW4SLD_STATUS@@AEBUbig_integer@1@I_N1AEBVfloating_point_value@1@@Z 0000000180083270     libucrt:input.obj
 0002:0001928c       $unwind$?STB_TEXTEDIT_INSERTCHARS@ImStb@@YA_NPEAUImGuiInputTextState@@HPEBGH@Z 000000018008328c     imgui_widgets.obj
 0002:000192a4       $unwind$?stb_text_locate_coord@ImStb@@YAHPEAUImGuiInputTextState@@MM@Z 00000001800832a4     imgui_widgets.obj
 0002:000192c4       $unwind$?stb_textedit_key@ImStb@@YAXPEAUImGuiInputTextState@@PEAUSTB_TexteditState@1@H@Z 00000001800832c4     imgui_widgets.obj
 0002:000192dc       $chain$0$?stb_textedit_discard_undo@ImStb@@YAXPEAUStbUndoState@1@@Z 00000001800832dc     imgui_widgets.obj
 0002:000192f0       $chain$1$?stb_textedit_discard_undo@ImStb@@YAXPEAUStbUndoState@1@@Z 00000001800832f0     imgui_widgets.obj
 0002:00019304       $chain$2$?stb_textedit_discard_undo@ImStb@@YAXPEAUStbUndoState@1@@Z 0000000180083304     imgui_widgets.obj
 0002:00019314       $chain$3$?stb_textedit_discard_undo@ImStb@@YAXPEAUStbUndoState@1@@Z 0000000180083314     imgui_widgets.obj
 0002:00019324       $unwind$?stb_text_create_undo_record@ImStb@@YAPEAUStbUndoRecord@1@PEAUStbUndoState@1@H@Z 0000000180083324     imgui_widgets.obj
 0002:00019334       $chain$2$?stb_text_create_undo_record@ImStb@@YAPEAUStbUndoRecord@1@PEAUStbUndoState@1@H@Z 0000000180083334     imgui_widgets.obj
 0002:0001934c       $chain$3$?stb_text_create_undo_record@ImStb@@YAPEAUStbUndoRecord@1@PEAUStbUndoState@1@H@Z 000000018008334c     imgui_widgets.obj
 0002:0001935c       $unwind$?stb_text_undo@ImStb@@YAXPEAUImGuiInputTextState@@PEAUSTB_TexteditState@1@@Z 000000018008335c     imgui_widgets.obj
 0002:00019368       $chain$3$?stb_text_undo@ImStb@@YAXPEAUImGuiInputTextState@@PEAUSTB_TexteditState@1@@Z 0000000180083368     imgui_widgets.obj
 0002:00019388       $chain$4$?stb_text_undo@ImStb@@YAXPEAUImGuiInputTextState@@PEAUSTB_TexteditState@1@@Z 0000000180083388     imgui_widgets.obj
 0002:00019398       $unwind$?InputTextEx@ImGui@@YA_NPEBD0PEADHAEBUImVec2@@HP6AHPEAUImGuiInputTextCallbackData@@@ZPEAX@Z 0000000180083398     imgui_widgets.obj
 0002:000193c8       $chain$0$?InputTextEx@ImGui@@YA_NPEBD0PEADHAEBUImVec2@@HP6AHPEAUImGuiInputTextCallbackData@@@ZPEAX@Z 00000001800833c8     imgui_widgets.obj
 0002:000193dc       $chain$1$?InputTextEx@ImGui@@YA_NPEBD0PEADHAEBUImVec2@@HP6AHPEAUImGuiInputTextCallbackData@@@ZPEAX@Z 00000001800833dc     imgui_widgets.obj
 0002:000193f0       $chain$4$?InputTextEx@ImGui@@YA_NPEBD0PEADHAEBUImVec2@@HP6AHPEAUImGuiInputTextCallbackData@@@ZPEAX@Z 00000001800833f0     imgui_widgets.obj
 0002:0001940c       $chain$5$?InputTextEx@ImGui@@YA_NPEBD0PEADHAEBUImVec2@@HP6AHPEAUImGuiInputTextCallbackData@@@ZPEAX@Z 000000018008340c     imgui_widgets.obj
 0002:0001941c       $chain$6$?InputTextEx@ImGui@@YA_NPEBD0PEADHAEBUImVec2@@HP6AHPEAUImGuiInputTextCallbackData@@@ZPEAX@Z 000000018008341c     imgui_widgets.obj
 0002:0001942c       $unwind$?ColorEdit4@ImGui@@YA_NPEBDQEAMH@Z 000000018008342c     imgui_widgets.obj
 0002:00019448       $chain$1$?ColorEdit4@ImGui@@YA_NPEBDQEAMH@Z 0000000180083448     imgui_widgets.obj
 0002:00019460       $chain$9$?ColorEdit4@ImGui@@YA_NPEBDQEAMH@Z 0000000180083460     imgui_widgets.obj
 0002:00019490       $chain$10$?ColorEdit4@ImGui@@YA_NPEBDQEAMH@Z 0000000180083490     imgui_widgets.obj
 0002:000194a4       $chain$11$?ColorEdit4@ImGui@@YA_NPEBDQEAMH@Z 00000001800834a4     imgui_widgets.obj
 0002:000194b8       $chain$12$?ColorEdit4@ImGui@@YA_NPEBDQEAMH@Z 00000001800834b8     imgui_widgets.obj
 0002:000194c8       $chain$13$?ColorEdit4@ImGui@@YA_NPEBDQEAMH@Z 00000001800834c8     imgui_widgets.obj
 0002:000194d8       $chain$14$?ColorEdit4@ImGui@@YA_NPEBDQEAMH@Z 00000001800834d8     imgui_widgets.obj
 0002:000194d8       $chain$16$?ColorEdit4@ImGui@@YA_NPEBDQEAMH@Z 00000001800834d8     imgui_widgets.obj
 0002:000194d8       $chain$19$?ColorEdit4@ImGui@@YA_NPEBDQEAMH@Z 00000001800834d8     imgui_widgets.obj
 0002:00019504       $chain$15$?ColorEdit4@ImGui@@YA_NPEBDQEAMH@Z 0000000180083504     imgui_widgets.obj
 0002:00019534       $chain$17$?ColorEdit4@ImGui@@YA_NPEBDQEAMH@Z 0000000180083534     imgui_widgets.obj
 0002:00019550       $chain$18$?ColorEdit4@ImGui@@YA_NPEBDQEAMH@Z 0000000180083550     imgui_widgets.obj
 0002:00019550       $chain$20$?ColorEdit4@ImGui@@YA_NPEBDQEAMH@Z 0000000180083550     imgui_widgets.obj
 0002:00019560       $chain$21$?ColorEdit4@ImGui@@YA_NPEBDQEAMH@Z 0000000180083560     imgui_widgets.obj
 0002:00019574       $chain$22$?ColorEdit4@ImGui@@YA_NPEBDQEAMH@Z 0000000180083574     imgui_widgets.obj
 0002:00019584       $unwind$?RenderColorRectWithAlphaCheckerboard@ImGui@@YAXUImVec2@@0IM0MH@Z 0000000180083584     imgui_widgets.obj
 0002:00019594       $chain$5$?RenderColorRectWithAlphaCheckerboard@ImGui@@YAXUImVec2@@0IM0MH@Z 0000000180083594     imgui_widgets.obj
 0002:000195bc       $chain$12$?RenderColorRectWithAlphaCheckerboard@ImGui@@YAXUImVec2@@0IM0MH@Z 00000001800835bc     imgui_widgets.obj
 0002:000195e8       $chain$13$?RenderColorRectWithAlphaCheckerboard@ImGui@@YAXUImVec2@@0IM0MH@Z 00000001800835e8     imgui_widgets.obj
 0002:000195f8       $chain$14$?RenderColorRectWithAlphaCheckerboard@ImGui@@YAXUImVec2@@0IM0MH@Z 00000001800835f8     imgui_widgets.obj
 0002:00019608       $unwind$?RenderArrowsForVerticalBar@@YAXPEAUImDrawList@@UImVec2@@1MM@Z 0000000180083608     imgui_widgets.obj
 0002:00019640       $unwind$?ColorPicker4@ImGui@@YA_NPEBDQEAMHPEBM@Z 0000000180083640     imgui_widgets.obj
 0002:0001965c       $chain$11$?ColorPicker4@ImGui@@YA_NPEBDQEAMHPEBM@Z 000000018008365c     imgui_widgets.obj
 0002:0001969c       $chain$12$?ColorPicker4@ImGui@@YA_NPEBDQEAMHPEBM@Z 000000018008369c     imgui_widgets.obj
 0002:000196b0       $chain$13$?ColorPicker4@ImGui@@YA_NPEBDQEAMHPEBM@Z 00000001800836b0     imgui_widgets.obj
 0002:000196c0       $unwind$?ColorButton@ImGui@@YA_NPEBDAEBUImVec4@@HUImVec2@@@Z 00000001800836c0     imgui_widgets.obj
 0002:000196ec       $chain$0$?ColorButton@ImGui@@YA_NPEBDAEBUImVec4@@HUImVec2@@@Z 00000001800836ec     imgui_widgets.obj
 0002:00019700       $chain$1$?ColorButton@ImGui@@YA_NPEBDAEBUImVec4@@HUImVec2@@@Z 0000000180083700     imgui_widgets.obj
 0002:00019714       $chain$2$?ColorButton@ImGui@@YA_NPEBDAEBUImVec4@@HUImVec2@@@Z 0000000180083714     imgui_widgets.obj
 0002:00019728       $chain$6$?ColorButton@ImGui@@YA_NPEBDAEBUImVec4@@HUImVec2@@@Z 0000000180083728     imgui_widgets.obj
 0002:00019748       $chain$7$?ColorButton@ImGui@@YA_NPEBDAEBUImVec4@@HUImVec2@@@Z 0000000180083748     imgui_widgets.obj
 0002:0001975c       $chain$8$?ColorButton@ImGui@@YA_NPEBDAEBUImVec4@@HUImVec2@@@Z 000000018008375c     imgui_widgets.obj
 0002:0001976c       $chain$9$?ColorButton@ImGui@@YA_NPEBDAEBUImVec4@@HUImVec2@@@Z 000000018008376c     imgui_widgets.obj
 0002:0001977c       $chain$10$?ColorButton@ImGui@@YA_NPEBDAEBUImVec4@@HUImVec2@@@Z 000000018008377c     imgui_widgets.obj
 0002:0001978c       $unwind$?ColorTooltip@ImGui@@YAXPEBDPEBMH@Z 000000018008378c     imgui_widgets.obj
 0002:000197a8       $chain$1$?ColorTooltip@ImGui@@YAXPEBDPEBMH@Z 00000001800837a8     imgui_widgets.obj
 0002:000197c0       $chain$2$?ColorTooltip@ImGui@@YAXPEBDPEBMH@Z 00000001800837c0     imgui_widgets.obj
 0002:000197d4       $chain$3$?ColorTooltip@ImGui@@YAXPEBDPEBMH@Z 00000001800837d4     imgui_widgets.obj
 0002:000197e8       $unwind$?ColorEditOptionsPopup@ImGui@@YAXPEBMH@Z 00000001800837e8     imgui_widgets.obj
 0002:00019800       $chain$0$?ColorEditOptionsPopup@ImGui@@YAXPEBMH@Z 0000000180083800     imgui_widgets.obj
 0002:00019814       $chain$3$?ColorEditOptionsPopup@ImGui@@YAXPEBMH@Z 0000000180083814     imgui_widgets.obj
 0002:00019830       $chain$4$?ColorEditOptionsPopup@ImGui@@YAXPEBMH@Z 0000000180083830     imgui_widgets.obj
 0002:00019844       $chain$5$?ColorEditOptionsPopup@ImGui@@YAXPEBMH@Z 0000000180083844     imgui_widgets.obj
 0002:00019858       $chain$6$?ColorEditOptionsPopup@ImGui@@YAXPEBMH@Z 0000000180083858     imgui_widgets.obj
 0002:00019868       $chain$7$?ColorEditOptionsPopup@ImGui@@YAXPEBMH@Z 0000000180083868     imgui_widgets.obj
 0002:00019878       $chain$8$?ColorEditOptionsPopup@ImGui@@YAXPEBMH@Z 0000000180083878     imgui_widgets.obj
 0002:00019888       $chain$9$?ColorEditOptionsPopup@ImGui@@YAXPEBMH@Z 0000000180083888     imgui_widgets.obj
 0002:00019898       $unwind$?ColorPickerOptionsPopup@ImGui@@YAXPEBMH@Z 0000000180083898     imgui_widgets.obj
 0002:000198a8       $chain$0$?ColorPickerOptionsPopup@ImGui@@YAXPEBMH@Z 00000001800838a8     imgui_widgets.obj
 0002:000198bc       $chain$2$?ColorPickerOptionsPopup@ImGui@@YAXPEBMH@Z 00000001800838bc     imgui_widgets.obj
 0002:000198d4       $chain$5$?ColorPickerOptionsPopup@ImGui@@YAXPEBMH@Z 00000001800838d4     imgui_widgets.obj
 0002:000198f0       $chain$6$?ColorPickerOptionsPopup@ImGui@@YAXPEBMH@Z 00000001800838f0     imgui_widgets.obj
 0002:00019908       $chain$7$?ColorPickerOptionsPopup@ImGui@@YAXPEBMH@Z 0000000180083908     imgui_widgets.obj
 0002:00019918       $chain$8$?ColorPickerOptionsPopup@ImGui@@YAXPEBMH@Z 0000000180083918     imgui_widgets.obj
 0002:00019928       $unwind$?Selectable@ImGui@@YA_NPEBD_NHAEBUImVec2@@@Z 0000000180083928     imgui_widgets.obj
 0002:0001996c       $chain$0$?Selectable@ImGui@@YA_NPEBD_NHAEBUImVec2@@@Z 000000018008396c     imgui_widgets.obj
 0002:00019980       $chain$1$?Selectable@ImGui@@YA_NPEBD_NHAEBUImVec2@@@Z 0000000180083980     imgui_widgets.obj
 0002:00019990       $unwind$?EndColumns@ImGui@@YAXXZ 0000000180083990     imgui_widgets.obj
 0002:000199a8       $chain$2$?EndColumns@ImGui@@YAXXZ 00000001800839a8     imgui_widgets.obj
 0002:000199c4       $chain$7$?EndColumns@ImGui@@YAXXZ 00000001800839c4     imgui_widgets.obj
 0002:000199e8       $chain$8$?EndColumns@ImGui@@YAXXZ 00000001800839e8     imgui_widgets.obj
 0002:000199fc       $chain$9$?EndColumns@ImGui@@YAXXZ 00000001800839fc     imgui_widgets.obj
 0002:00019a0c       $chain$10$?EndColumns@ImGui@@YAXXZ 0000000180083a0c     imgui_widgets.obj
 0002:00019a1c       $unwind$??$DragBehaviorT@HHM@ImGui@@YA_NHPEAHMHHPEBDMH@Z 0000000180083a1c     imgui_widgets.obj
 0002:00019a54       $chain$0$??$DragBehaviorT@HHM@ImGui@@YA_NHPEAHMHHPEBDMH@Z 0000000180083a54     imgui_widgets.obj
 0002:00019a68       $chain$1$??$DragBehaviorT@HHM@ImGui@@YA_NHPEAHMHHPEBDMH@Z 0000000180083a68     imgui_widgets.obj
 0002:00019a78       $unwind$??$DragBehaviorT@IHM@ImGui@@YA_NHPEAIMIIPEBDMH@Z 0000000180083a78     imgui_widgets.obj
 0002:00019ab4       $unwind$??$DragBehaviorT@_J_JN@ImGui@@YA_NHPEA_JM_J1PEBDMH@Z 0000000180083ab4     imgui_widgets.obj
 0002:00019aec       $chain$0$??$DragBehaviorT@_J_JN@ImGui@@YA_NHPEA_JM_J1PEBDMH@Z 0000000180083aec     imgui_widgets.obj
 0002:00019b00       $chain$1$??$DragBehaviorT@_J_JN@ImGui@@YA_NHPEA_JM_J1PEBDMH@Z 0000000180083b00     imgui_widgets.obj
 0002:00019b14       $chain$2$??$DragBehaviorT@_J_JN@ImGui@@YA_NHPEA_JM_J1PEBDMH@Z 0000000180083b14     imgui_widgets.obj
 0002:00019b24       $chain$3$??$DragBehaviorT@_J_JN@ImGui@@YA_NHPEA_JM_J1PEBDMH@Z 0000000180083b24     imgui_widgets.obj
 0002:00019b34       $unwind$??$DragBehaviorT@_K_JN@ImGui@@YA_NHPEA_KM_K1PEBDMH@Z 0000000180083b34     imgui_widgets.obj
 0002:00019b70       $chain$0$??$DragBehaviorT@_K_JN@ImGui@@YA_NHPEA_KM_K1PEBDMH@Z 0000000180083b70     imgui_widgets.obj
 0002:00019b84       $chain$1$??$DragBehaviorT@_K_JN@ImGui@@YA_NHPEA_KM_K1PEBDMH@Z 0000000180083b84     imgui_widgets.obj
 0002:00019b94       $unwind$??$DragBehaviorT@MMM@ImGui@@YA_NHPEAMMMMPEBDMH@Z 0000000180083b94     imgui_widgets.obj
 0002:00019bd4       $chain$4$??$DragBehaviorT@MMM@ImGui@@YA_NHPEAMMMMPEBDMH@Z 0000000180083bd4     imgui_widgets.obj
 0002:00019be8       $chain$5$??$DragBehaviorT@MMM@ImGui@@YA_NHPEAMMMMPEBDMH@Z 0000000180083be8     imgui_widgets.obj
 0002:00019bf8       $unwind$??$DragBehaviorT@NNN@ImGui@@YA_NHPEANMNNPEBDMH@Z 0000000180083bf8     imgui_widgets.obj
 0002:00019c34       $chain$4$??$DragBehaviorT@NNN@ImGui@@YA_NHPEANMNNPEBDMH@Z 0000000180083c34     imgui_widgets.obj
 0002:00019c48       $chain$5$??$DragBehaviorT@NNN@ImGui@@YA_NHPEANMNNPEBDMH@Z 0000000180083c48     imgui_widgets.obj
 0002:00019c58       $chain$6$??$DragBehaviorT@NNN@ImGui@@YA_NHPEANMNNPEBDMH@Z 0000000180083c58     imgui_widgets.obj
 0002:00019c6c       $chain$7$??$DragBehaviorT@NNN@ImGui@@YA_NHPEANMNNPEBDMH@Z 0000000180083c6c     imgui_widgets.obj
 0002:00019c80       $chain$8$??$DragBehaviorT@NNN@ImGui@@YA_NHPEANMNNPEBDMH@Z 0000000180083c80     imgui_widgets.obj
 0002:00019c90       $chain$9$??$DragBehaviorT@NNN@ImGui@@YA_NHPEANMNNPEBDMH@Z 0000000180083c90     imgui_widgets.obj
 0002:00019ca0       $unwind$??$SliderBehaviorT@MMM@ImGui@@YA_NAEBUImRect@@IHPEAMMMPEBDMHPEAU1@@Z 0000000180083ca0     imgui_widgets.obj
 0002:00019cbc       $chain$9$??$SliderBehaviorT@MMM@ImGui@@YA_NAEBUImRect@@IHPEAMMMPEBDMHPEAU1@@Z 0000000180083cbc     imgui_widgets.obj
 0002:00019cf4       $chain$10$??$SliderBehaviorT@MMM@ImGui@@YA_NAEBUImRect@@IHPEAMMMPEBDMHPEAU1@@Z 0000000180083cf4     imgui_widgets.obj
 0002:00019d08       $unwind$??$RoundScalarWithFormatT@HH@ImGui@@YAHPEBDHH@Z 0000000180083d08     imgui_widgets.obj
 0002:00019d08       $unwind$??$RoundScalarWithFormatT@IH@ImGui@@YAIPEBDHI@Z 0000000180083d08     imgui_widgets.obj
 0002:00019d08       $unwind$??$RoundScalarWithFormatT@_J_J@ImGui@@YA_JPEBDH_J@Z 0000000180083d08     imgui_widgets.obj
 0002:00019d08       $unwind$??$RoundScalarWithFormatT@_K_J@ImGui@@YA_KPEBDH_K@Z 0000000180083d08     imgui_widgets.obj
 0002:00019d18       $chain$0$??$SliderCalcRatioFromValueT@MM@ImGui@@YAMHMMMMM@Z 0000000180083d18     imgui_widgets.obj
 0002:00019d2c       $chain$2$??$SliderCalcRatioFromValueT@MM@ImGui@@YAMHMMMMM@Z 0000000180083d2c     imgui_widgets.obj
 0002:00019d2c       $chain$4$??$SliderCalcRatioFromValueT@MM@ImGui@@YAMHMMMMM@Z 0000000180083d2c     imgui_widgets.obj
 0002:00019d40       $unwind$?ConvertHexToByteArray@@YAHAEBV?$basic_string@DU?$char_traits@D@std@@V?$allocator@D@2@@std@@AEAV?$vector@EV?$allocator@E@std@@@2@@Z 0000000180083d40     Memory.obj
 0002:00019d60       $cppxdata$?ConvertHexToByteArray@@YAHAEBV?$basic_string@DU?$char_traits@D@std@@V?$allocator@D@2@@std@@AEAV?$vector@EV?$allocator@E@std@@@2@@Z 0000000180083d60     Memory.obj
 0002:00019d69       $stateUnwindMap$?ConvertHexToByteArray@@YAHAEBV?$basic_string@DU?$char_traits@D@std@@V?$allocator@D@2@@std@@AEAV?$vector@EV?$allocator@E@std@@@2@@Z 0000000180083d69     Memory.obj
 0002:00019d70       $ip2state$?ConvertHexToByteArray@@YAHAEBV?$basic_string@DU?$char_traits@D@std@@V?$allocator@D@2@@std@@AEAV?$vector@EV?$allocator@E@std@@@2@@Z 0000000180083d70     Memory.obj
 0002:00019d7c       $unwind$?PatternScan@@YA_K_K0AEBV?$basic_string@DU?$char_traits@D@std@@V?$allocator@D@2@@std@@_N2H@Z 0000000180083d7c     Memory.obj
 0002:00019d98       $cppxdata$?PatternScan@@YA_K_K0AEBV?$basic_string@DU?$char_traits@D@std@@V?$allocator@D@2@@std@@_N2H@Z 0000000180083d98     Memory.obj
 0002:00019da1       $stateUnwindMap$?PatternScan@@YA_K_K0AEBV?$basic_string@DU?$char_traits@D@std@@V?$allocator@D@2@@std@@_N2H@Z 0000000180083da1     Memory.obj
 0002:00019da8       $ip2state$?PatternScan@@YA_K_K0AEBV?$basic_string@DU?$char_traits@D@std@@V?$allocator@D@2@@std@@_N2H@Z 0000000180083da8     Memory.obj
 0002:00019dac       $unwind$??$_Emplace_reallocate@E@?$vector@EV?$allocator@E@std@@@std@@AEAAPEAEQEAE$$QEAE@Z 0000000180083dac     Memory.obj
 0002:00019dbc       $chain$2$??$_Emplace_reallocate@E@?$vector@EV?$allocator@E@std@@@std@@AEAAPEAEQEAE$$QEAE@Z 0000000180083dbc     Memory.obj
 0002:00019dd8       $chain$3$??$_Emplace_reallocate@E@?$vector@EV?$allocator@E@std@@@std@@AEAAPEAEQEAE$$QEAE@Z 0000000180083dd8     Memory.obj
 0002:00019de8       $chain$4$??$_Emplace_reallocate@E@?$vector@EV?$allocator@E@std@@@std@@AEAAPEAEQEAE$$QEAE@Z 0000000180083de8     Memory.obj
 0002:00019e04       $unwind$?PlayerWeapon@CEntity@@QEAAXXZ 0000000180083e04     Entity.obj
 0002:00019e28       $cppxdata$?PlayerWeapon@CEntity@@QEAAXXZ 0000000180083e28     Entity.obj
 0002:00019e31       $stateUnwindMap$?PlayerWeapon@CEntity@@QEAAXXZ 0000000180083e31     Entity.obj
 0002:00019e38       $ip2state$?PlayerWeapon@CEntity@@QEAAXXZ 0000000180083e38     Entity.obj
 0002:00019e44       $unwind$?UpdatePlayerBoneData@CEntity@@QEAAXXZ 0000000180083e44     Entity.obj
 0002:00019e70       $chain$1$?UpdatePlayerBoneData@CEntity@@QEAAXXZ 0000000180083e70     Entity.obj
 0002:00019e88       $chain$0$?GetEntityWeapon@@YAXXZ 0000000180083e88     Entity.obj
 0002:00019e9c       $chain$5$?GetEntityWeapon@@YAXXZ 0000000180083e9c     Entity.obj
 0002:00019ec0       $chain$6$?GetEntityWeapon@@YAXXZ 0000000180083ec0     Entity.obj
 0002:00019ed0       $chain$7$?GetEntityWeapon@@YAXXZ 0000000180083ed0     Entity.obj
 0002:00019ee0       $unwind$?PlayerEntities@@YAXXZ 0000000180083ee0     Entity.obj
 0002:00019ef8       $unwind$?UpdateWeaponESP@@YAXAEAVWeaponEntity@@@Z 0000000180083ef8     Entity.obj
 0002:00019f10       $chain$2$?UpdateWeaponESP@@YAXAEAVWeaponEntity@@@Z 0000000180083f10     Entity.obj
 0002:00019f2c       $chain$4$?UpdateWeaponESP@@YAXAEAVWeaponEntity@@@Z 0000000180083f2c     Entity.obj
 0002:00019f44       $chain$5$?UpdateWeaponESP@@YAXAEAVWeaponEntity@@@Z 0000000180083f44     Entity.obj
 0002:00019f54       $chain$6$?UpdateWeaponESP@@YAXAEAVWeaponEntity@@@Z 0000000180083f54     Entity.obj
 0002:00019f64       $chain$7$?UpdateWeaponESP@@YAXAEAVWeaponEntity@@@Z 0000000180083f64     Entity.obj
 0002:00019f88       $chain$8$?UpdateWeaponESP@@YAXAEAVWeaponEntity@@@Z 0000000180083f88     Entity.obj
 0002:00019fa4       $unwind$?EnableCheats@@YAXXZ 0000000180083fa4     Entity.obj
 0002:00019fe4       $cppxdata$?EnableCheats@@YAXXZ 0000000180083fe4     Entity.obj
 0002:00019fed       $stateUnwindMap$?EnableCheats@@YAXXZ 0000000180083fed     Entity.obj
 0002:00019ffb       $ip2state$?EnableCheats@@YAXXZ 0000000180083ffb     Entity.obj
 0002:0001a010       $unwind$?assign@?$basic_string@DU?$char_traits@D@std@@V?$allocator@D@2@@std@@QEAAAEAV12@QEBD_K@Z 0000000180084010     Entity.obj
 0002:0001a024       $chain$0$?assign@?$basic_string@DU?$char_traits@D@std@@V?$allocator@D@2@@std@@QEAAAEAV12@QEBD_K@Z 0000000180084024     Entity.obj
 0002:0001a038       $chain$1$?assign@?$basic_string@DU?$char_traits@D@std@@V?$allocator@D@2@@std@@QEAAAEAV12@QEBD_K@Z 0000000180084038     Entity.obj
 0002:0001a048       $chain$2$?assign@?$basic_string@DU?$char_traits@D@std@@V?$allocator@D@2@@std@@QEAAAEAV12@QEBD_K@Z 0000000180084048     Entity.obj
 0002:0001a05c       $unwind$??$_Emplace_reallocate@AEB_K@?$vector@_KV?$allocator@_K@std@@@std@@AEAAPEA_KQEA_KAEB_K@Z 000000018008405c     Entity.obj
 0002:0001a06c       $chain$3$??$_Emplace_reallocate@AEB_K@?$vector@_KV?$allocator@_K@std@@@std@@AEAAPEA_KQEA_KAEB_K@Z 000000018008406c     Entity.obj
 0002:0001a08c       $chain$5$??$_Emplace_reallocate@AEB_K@?$vector@_KV?$allocator@_K@std@@@std@@AEAAPEA_KQEA_KAEB_K@Z 000000018008408c     Entity.obj
 0002:0001a0ac       $chain$6$??$_Emplace_reallocate@AEB_K@?$vector@_KV?$allocator@_K@std@@@std@@AEAAPEA_KQEA_KAEB_K@Z 00000001800840ac     Entity.obj
 0002:0001a0bc       $unwind$??$_Emplace_reallocate@UBoneJointPos@@@?$vector@UBoneJointPos@@V?$allocator@UBoneJointPos@@@std@@@std@@AEAAPEAUBoneJointPos@@QEAU2@$$QEAU2@@Z 00000001800840bc     Entity.obj
 0002:0001a0cc       $chain$3$??$_Emplace_reallocate@UBoneJointPos@@@?$vector@UBoneJointPos@@V?$allocator@UBoneJointPos@@@std@@@std@@AEAAPEAUBoneJointPos@@QEAU2@$$QEAU2@@Z 00000001800840cc     Entity.obj
 0002:0001a0ec       $chain$5$??$_Emplace_reallocate@UBoneJointPos@@@?$vector@UBoneJointPos@@V?$allocator@UBoneJointPos@@@std@@@std@@AEAAPEAUBoneJointPos@@QEAU2@$$QEAU2@@Z 00000001800840ec     Entity.obj
 0002:0001a10c       $chain$6$??$_Emplace_reallocate@UBoneJointPos@@@?$vector@UBoneJointPos@@V?$allocator@UBoneJointPos@@@std@@@std@@AEAAPEAUBoneJointPos@@QEAU2@$$QEAU2@@Z 000000018008410c     Entity.obj
 0002:0001a11c       $unwind$DetourCodeFromPointer 000000018008411c     detours:detours.obj
 0002:0001a124       $unwind$?detour_skip_jmp@@YAPEAEPEAEPEAPEAX@Z 0000000180084124     detours:detours.obj
 0002:0001a12c       $unwind$?detour_is_imported@@YA_NPEAE0@Z 000000018008412c     detours:detours.obj
 0002:0001a14c       $unwind$__report_gsfailure 000000018008414c     LIBCMT:gs_report.obj
 0002:0001a14c       $unwind$?detour_free_trampoline@@YAXPEAU_DETOUR_TRAMPOLINE@@@Z 000000018008414c     detours:detours.obj
 0002:0001a154       $unwind$DetourTransactionCommitEx 0000000180084154     detours:detours.obj
 0002:0001a164       $unwind$?detour_gen_jmp_immediate@@YAPEAEPEAE0@Z 0000000180084164     detours:detours.obj
 0002:0001a164       $unwind$?detour_gen_jmp_indirect@@YAPEAEPEAEPEAPEAE@Z 0000000180084164     detours:detours.obj
 0002:0001a16c       $unwind$_putwch_nolock     000000018008416c     libucrt:putwch.obj
 0002:0001a16c       $unwind$?detour_is_region_empty@@YAHPEAUDETOUR_REGION@@@Z 000000018008416c     detours:detours.obj
 0002:0001a174       $unwind$?detour_align_from_target@@YAJPEAU_DETOUR_TRAMPOLINE@@J@Z 0000000180084174     detours:detours.obj
 0002:0001a174       $unwind$?detour_align_from_trampoline@@YAEPEAU_DETOUR_TRAMPOLINE@@E@Z 0000000180084174     detours:detours.obj
 0002:0001a17c       $unwind$DetourUpdateThread 000000018008417c     detours:detours.obj
 0002:0001a184       $unwind$DetourAttach       0000000180084184     detours:detours.obj
 0002:0001a18c       $unwind$DetourAttachEx     000000018008418c     detours:detours.obj
 0002:0001a194       $unwind$?detour_alloc_trampoline@@YAPEAU_DETOUR_TRAMPOLINE@@PEAE@Z 0000000180084194     detours:detours.obj
 0002:0001a19c       $unwind$?detour_alloc_region_from_hi@@YAPEAXPEAE0@Z 000000018008419c     detours:detours.obj
 0002:0001a19c       $unwind$?detour_alloc_region_from_lo@@YAPEAXPEAE0@Z 000000018008419c     detours:detours.obj
 0002:0001a1a4       $unwind$?detour_alloc_round_down_to_region@@YAPEAEPEAE@Z 00000001800841a4     detours:detours.obj
 0002:0001a1a4       $unwind$?detour_alloc_round_up_to_region@@YAPEAEPEAE@Z 00000001800841a4     detours:detours.obj
 0002:0001a1ac       $unwind$DetourCopyInstruction 00000001800841ac     detours:disasm.obj
 0002:0001a1bc       $unwind$??0CDetourDis@@QEAA@PEAPEAEPEAJ@Z 00000001800841bc     detours:disasm.obj
 0002:0001a1c4       $unwind$?CopyInstruction@CDetourDis@@QEAAPEAEPEAE0@Z 00000001800841c4     detours:disasm.obj
 0002:0001a1cc       $unwind$?CopyBytes@CDetourDis@@IEAAPEAEPEBUCOPYENTRY@1@PEAE1@Z 00000001800841cc     detours:disasm.obj
 0002:0001a1d4       $unwind$?AdjustTarget@CDetourDis@@IEAAPEAEPEAE0JJJ@Z 00000001800841d4     detours:disasm.obj
 0002:0001a1dc       $unwind$?CopyF6@CDetourDis@@IEAAPEAEPEBUCOPYENTRY@1@PEAE1@Z 00000001800841dc     detours:disasm.obj
 0002:0001a1dc       $unwind$?CopyF7@CDetourDis@@IEAAPEAEPEBUCOPYENTRY@1@PEAE1@Z 00000001800841dc     detours:disasm.obj
 0002:0001a1dc       $unwind$?CopyFF@CDetourDis@@IEAAPEAEPEBUCOPYENTRY@1@PEAE1@Z 00000001800841dc     detours:disasm.obj
 0002:0001a1e8       $xdatasym                  00000001800841e8     LIBCMT:amdsecgs.obj
 0002:0001a1ec       $unwind$??_M@YAXPEAX_K1P6AX0@Z@Z 00000001800841ec     LIBCMT:ehvecdtr.obj
 0002:0001a214       $unwind$?__ArrayUnwind@@YAXPEAX_K1P6AX0@Z@Z 0000000180084214     LIBCMT:ehvecdtr.obj
 0002:0001a240       $unwind$?filt$0@?0??__ArrayUnwind@@YAXPEAX_K1P6AX0@Z@Z@4HA 0000000180084240     LIBCMT:ehvecdtr.obj
 0002:0001a240       $unwind$__DestructExceptionObject$filt$0 0000000180084240     libvcruntime:ehhelpers.obj
 0002:0001a240       $unwind$?fin$1@?0??CxxCallCatchBlock@__FrameHandler3@@SAPEAXPEAU_EXCEPTION_RECORD@@@Z@4HA 0000000180084240     libvcruntime:frame.obj
 0002:0001a240       $unwind$?fin$1@?0??CxxCallCatchBlock@__FrameHandler4@@SAPEAXPEAU_EXCEPTION_RECORD@@@Z@4HA 0000000180084240     libvcruntime:frame.obj
 0002:0001a24c       $unwind$__scrt_is_nonwritable_in_current_image 000000018008424c     LIBCMT:utility.obj
 0002:0001a26c       $unwind$__scrt_is_nonwritable_in_current_image$filt$0 000000018008426c     LIBCMT:utility.obj
 0002:0001a274       $unwind$??_L@YAXPEAX_K1P6AX0@Z2@Z 0000000180084274     LIBCMT:ehvecctr.obj
 0002:0001a2a0       $unwind$__report_securityfailure 00000001800842a0     LIBCMT:gs_report.obj
 0002:0001a2a8       $unwind$capture_previous_context 00000001800842a8     LIBCMT:gs_report.obj
 0002:0001a2b4       $unwind$?dllmain_crt_process_attach@@YAHQEAUHINSTANCE__@@QEAX@Z 00000001800842b4     LIBCMT:dll_dllmain.obj
 0002:0001a2f0       $unwind$?dllmain_crt_process_detach@@YAH_N@Z 00000001800842f0     LIBCMT:dll_dllmain.obj
 0002:0001a344       $unwind$?dllmain_dispatch@@YAHQEAUHINSTANCE__@@KQEAX@Z 0000000180084344     LIBCMT:dll_dllmain.obj
 0002:0001a36c       $unwind$?fin$0@?0???$common_lseek@_J@@YA_JH_JHAEAV__crt_cached_ptd_host@@@Z@4HA 000000018008436c     libucrt:lseek.obj
 0002:0001a36c       $unwind$_write_internal$fin$0 000000018008436c     libucrt:write.obj
 0002:0001a36c       $unwind$?fin$0@?0??_fclose_internal@@YAHQEAU_iobuf@@AEAV__crt_cached_ptd_host@@@Z@4HA 000000018008436c     libucrt:fclose.obj
 0002:0001a36c       $unwind$fread_s$fin$0      000000018008436c     libucrt:fread.obj
 0002:0001a36c       $unwind$?fin$0@?0??common_fseek@@YAHV__crt_stdio_stream@@_JHAEAV__crt_cached_ptd_host@@@Z@4HA 000000018008436c     libucrt:fseek.obj
 0002:0001a36c       $unwind$?fin$0@?0???$common_ftell@J@@YAJV__crt_stdio_stream@@AEAV__crt_cached_ptd_host@@@Z@4HA 000000018008436c     libucrt:ftell.obj
 0002:0001a36c       $unwind$?filt$0@?0??dllmain_dispatch@@YAHQEAUHINSTANCE__@@KQEAX@Z@4HA 000000018008436c     LIBCMT:dll_dllmain.obj
 0002:0001a36c       $unwind$?filt$0@?0??FrameUnwindToState@__FrameHandler4@@SAXPEA_KPEAU_xDISPATCHER_CONTEXT@@PEAUFuncInfo4@FH4@@H@Z@4HA 000000018008436c     libvcruntime:frame.obj
 0002:0001a36c       $unwind$?fin$1@?0??FrameUnwindToState@__FrameHandler4@@SAXPEA_KPEAU_xDISPATCHER_CONTEXT@@PEAUFuncInfo4@FH4@@H@Z@4HA 000000018008436c     libvcruntime:frame.obj
 0002:0001a374       $unwind$__isa_available_init 0000000180084374     LIBCMT:cpu_disp.obj
 0002:0001a388       $unwind$__scrt_fastfail    0000000180084388     LIBCMT:utility_desktop.obj
 0002:0001a398       $unwind$__security_init_cookie 0000000180084398     LIBCMT:gs_support.obj
 0002:0001a3a8       $xdatasym                  00000001800843a8     LIBCMT:guard_dispatch.obj
 0002:0001a3b0       $xdatasym                  00000001800843b0     LIBCMT:guard_xfg_dispatch.obj
 0002:0001a3b4       $unwind$?StateFromIp@__FrameHandler4@@SAHPEAUFuncInfo4@FH4@@PEAU_xDISPATCHER_CONTEXT@@_K@Z 00000001800843b4     libvcruntime:ehstate.obj
 0002:0001a3b4       $unwind$?DecompFuncInfo@FH4@@YA_JPEAEAEAUFuncInfo4@1@_KH_N@Z 00000001800843b4     libvcruntime:risctrnsctrl.obj
 0002:0001a3cc       $unwind$?GetEstablisherFrame@__FrameHandler3@@SAPEA_KPEA_KPEAU_xDISPATCHER_CONTEXT@@PEBU_s_FuncInfo@@0@Z 00000001800843cc     libvcruntime:risctrnsctrl.obj
 0002:0001a3e4       $unwind$?UnwindNestedFrames@__FrameHandler3@@SAXPEA_KPEAUEHExceptionRecord@@PEAU_CONTEXT@@0PEAXPEBU_s_FuncInfo@@HHPEBU_s_HandlerType@@PEAU_xDISPATCHER_CONTEXT@@E@Z 00000001800843e4     libvcruntime:risctrnsctrl.obj
 0002:0001a3e4       $unwind$?UnwindNestedFrames@__FrameHandler4@@SAXPEA_KPEAUEHExceptionRecord@@PEAU_CONTEXT@@0PEAXPEAUFuncInfo4@FH4@@HHPEAUHandlerType4@5@PEAU_xDISPATCHER_CONTEXT@@E@Z 00000001800843e4     libvcruntime:risctrnsctrl.obj
 0002:0001a3f8       $unwind$__C_specific_handler 00000001800843f8     libvcruntime:riscchandler.obj
 0002:0001a3f8       $unwind$?GetRangeOfTrysToCheck@__FrameHandler3@@SA?AU?$pair@Viterator@TryBlockMap@__FrameHandler3@@V123@@std@@AEAVTryBlockMap@1@HPEAU_xDISPATCHER_CONTEXT@@PEBU_s_FuncInfo@@H@Z 00000001800843f8     libvcruntime:risctrnsctrl.obj
 0002:0001a414       $unwind$?GetRangeOfTrysToCheck@__FrameHandler4@@SA?AU?$pair@Viterator@TryBlockMap4@FH4@@V123@@std@@AEAVTryBlockMap4@FH4@@HPEAU_xDISPATCHER_CONTEXT@@PEAUFuncInfo4@5@H@Z 0000000180084414     libvcruntime:risctrnsctrl.obj
 0002:0001a430       $unwind$?process_integer_specifier@?$input_processor@DV?$string_input_adapter@D@__crt_stdio_input@@@__crt_stdio_input@@AEAA_NI_N@Z 0000000180084430     libucrt:input.obj
 0002:0001a430       $unwind$__CxxFrameHandler3 0000000180084430     libvcruntime:risctrnsctrl.obj
 0002:0001a444       $unwind$__CxxFrameHandler4 0000000180084444     libvcruntime:risctrnsctrl.obj
 0002:0001a458       $unwind$??$_CallSETranslator@V__FrameHandler4@@@@YAHPEAUEHExceptionRecord@@PEA_KPEAU_CONTEXT@@PEAU_xDISPATCHER_CONTEXT@@PEAUFuncInfo4@FH4@@K1H@Z 0000000180084458     libvcruntime:risctrnsctrl.obj
 0002:0001a478       $unwind$?filt$0@?0???$_CallSETranslator@V__FrameHandler3@@@@YAHPEAUEHExceptionRecord@@PEA_KPEAU_CONTEXT@@PEAU_xDISPATCHER_CONTEXT@@PEBU_s_FuncInfo@@K1H@Z@4HA 0000000180084478     libvcruntime:risctrnsctrl.obj
 0002:0001a478       $unwind$?filt$0@?0???$_CallSETranslator@V__FrameHandler4@@@@YAHPEAUEHExceptionRecord@@PEA_KPEAU_CONTEXT@@PEAU_xDISPATCHER_CONTEXT@@PEAUFuncInfo4@FH4@@K1H@Z@4HA 0000000180084478     libvcruntime:risctrnsctrl.obj
 0002:0001a484       $unwind$??$_CallSETranslator@V__FrameHandler3@@@@YAHPEAUEHExceptionRecord@@PEA_KPEAU_CONTEXT@@PEAU_xDISPATCHER_CONTEXT@@PEBU_s_FuncInfo@@K1H@Z 0000000180084484     libvcruntime:risctrnsctrl.obj
 0002:0001a4a4       $unwind$??$parse_floating_point_possible_nan@DV?$c_string_character_source@D@__crt_strtox@@PEBD@__crt_strtox@@YA?AW4floating_point_parse_result@0@AEADAEAV?$c_string_character_source@D@0@PEBD@Z 00000001800844a4     libucrt:atof.obj
 0002:0001a4a4       $unwind$_free_osfhnd       00000001800844a4     libucrt:osfinfo.obj
 0002:0001a4a4       $unwind$__acrt_stdio_refill_and_read_narrow_nolock 00000001800844a4     libucrt:_filbuf.obj
 0002:0001a4a4       $unwind$__std_exception_copy 00000001800844a4     libvcruntime:std_exception.obj
 0002:0001a4b8       $unwind$__DestructExceptionObject 00000001800844b8     libvcruntime:ehhelpers.obj
 0002:0001a4d8       $xdatasym$memset_repstos   00000001800844d8     libvcruntime:memset.obj
 0002:0001a4e8       $xdatasym$memchr           00000001800844e8     libvcruntime:memchr.obj
 0002:0001a4e8       $xdatasym$memcmp           00000001800844e8     libvcruntime:memcmp.obj
 0002:0001a4e8       $xdatasym$memcpy           00000001800844e8     libvcruntime:memcpy.obj
 0002:0001a4e8       $xdatasym$memset           00000001800844e8     libvcruntime:memset.obj
 0002:0001a4e8       $xdatasym$_NLG_Notify      00000001800844e8     libvcruntime:notify.obj
 0002:0001a4e8       $xdatasym$__NLG_Dispatch2  00000001800844e8     libvcruntime:notify.obj
 0002:0001a4e8       $xdatasym$__NLG_Return2    00000001800844e8     libvcruntime:notify.obj
 0002:0001a4f0       $xdatasym$memcpy_repmovs   00000001800844f0     libvcruntime:memcpy.obj
 0002:0001a4fc       $unwind$_CxxThrowException 00000001800844fc     libvcruntime:throw.obj
 0002:0001a50c       $unwind$?getStartStop@UWMap4@FH4@@QEAAXHHAEAViterator@12@0@Z 000000018008450c     libvcruntime:frame.obj
 0002:0001a524       $unwind$?getStateFromIterators@UWMap4@FH4@@SAHAEBViterator@12@H0H0@Z 0000000180084524     libvcruntime:frame.obj
 0002:0001a534       $unwind$?FrameUnwindToState@__FrameHandler3@@SAXPEA_KPEAU_xDISPATCHER_CONTEXT@@PEBU_s_FuncInfo@@H@Z 0000000180084534     libvcruntime:frame.obj
 0002:0001a580       $unwind$?CxxCallCatchBlock@__FrameHandler3@@SAPEAXPEAU_EXCEPTION_RECORD@@@Z 0000000180084580     libvcruntime:frame.obj
 0002:0001a5bc       $unwind$?FrameUnwindToState@__FrameHandler4@@SAXPEA_KPEAU_xDISPATCHER_CONTEXT@@PEAUFuncInfo4@FH4@@H@Z 00000001800845bc     libvcruntime:frame.obj
 0002:0001a604       $unwind$?CxxCallCatchBlock@__FrameHandler4@@SAPEAXPEAU_EXCEPTION_RECORD@@@Z 0000000180084604     libvcruntime:frame.obj
 0002:0001a660       $unwind$?IsInExceptionSpec@@YAEPEAUEHExceptionRecord@@PEBU_s_ESTypeList@@@Z 0000000180084660     libvcruntime:frame.obj
 0002:0001a67c       $unwind$??$__InternalCxxFrameHandlerWrapper@V__FrameHandler4@@@@YA?AW4_EXCEPTION_DISPOSITION@@PEAUEHExceptionRecord@@PEA_KPEAU_CONTEXT@@PEAU_xDISPATCHER_CONTEXT@@PEAUFuncInfo4@FH4@@H1E@Z 000000018008467c     libvcruntime:frame.obj
 0002:0001a69c       $unwind$?fin$0@?0???$common_sopen_dispatch@D@@YAHQEBDHHHQEAHH@Z@4HA 000000018008469c     libucrt:open.obj
 0002:0001a69c       $unwind$?fin$0@?0???$common_sopen_dispatch@_W@@YAHQEB_WHHHQEAHH@Z@4HA 000000018008469c     libucrt:open.obj
 0002:0001a69c       $unwind$?fin$0@?0???$__InternalCxxFrameHandlerWrapper@V__FrameHandler4@@@@YA?AW4_EXCEPTION_DISPOSITION@@PEAUEHExceptionRecord@@PEA_KPEAU_CONTEXT@@PEAU_xDISPATCHER_CONTEXT@@PEAUFuncInfo4@FH4@@H1E@Z@4HA 000000018008469c     libvcruntime:frame.obj
 0002:0001a6a4       $unwind$?initialize_stdio_handles_nolock@@YAXXZ 00000001800846a4     libucrt:ioinit.obj
 0002:0001a6a4       $unwind$__acrt_lowio_set_os_handle 00000001800846a4     libucrt:osfinfo.obj
 0002:0001a6a4       $unwind$__acrt_initialize_stdio 00000001800846a4     libucrt:_file.obj
 0002:0001a6a4       $unwind$?common_fseek_nolock@@YAHV__crt_stdio_stream@@_JHAEAV__crt_cached_ptd_host@@@Z 00000001800846a4     libucrt:fseek.obj
 0002:0001a6a4       $unwind$??$__acrt_stdio_parse_mode@_W@@YA?AU__acrt_stdio_stream_mode@@QEB_W@Z 00000001800846a4     libucrt:openfile.obj
 0002:0001a6a4       $unwind$__GSHandlerCheck_EH 00000001800846a4     LIBCMT:gshandlereh.obj
 0002:0001a6a4       $unwind$__GSHandlerCheck_EH4 00000001800846a4     LIBCMT:gshandlereh4.obj
 0002:0001a6a4       $unwind$__GSHandlerCheck_SEH 00000001800846a4     LIBCMT:gshandlerseh.obj
 0002:0001a6a4       $unwind$??$TypeMatchHelper@V__FrameHandler3@@@@YAHPEBU_s_HandlerType@@PEBU_s_CatchableType@@PEBU_s_ThrowInfo@@@Z 00000001800846a4     libvcruntime:frame.obj
 0002:0001a6bc       $unwind$??$BuildCatchObjectHelperInternal@V__FrameHandler3@@@@YAHPEAUEHExceptionRecord@@PEAXPEBU_s_HandlerType@@PEBU_s_CatchableType@@@Z 00000001800846bc     libvcruntime:frame.obj
 0002:0001a6fc       $unwind$??$BuildCatchObjectHelperInternal@V__FrameHandler4@@@@YAHPEAUEHExceptionRecord@@PEAXPEAUHandlerType4@FH4@@PEBU_s_CatchableType@@@Z 00000001800846fc     libvcruntime:frame.obj
 0002:0001a73c       $unwind$??$BuildCatchObjectInternal@V__FrameHandler3@@@@YAXPEAUEHExceptionRecord@@PEAXPEBU_s_HandlerType@@PEBU_s_CatchableType@@@Z 000000018008473c     libvcruntime:frame.obj
 0002:0001a768       $unwind$??$BuildCatchObjectInternal@V__FrameHandler4@@@@YAXPEAUEHExceptionRecord@@PEAXPEAUHandlerType4@FH4@@PEBU_s_CatchableType@@@Z 0000000180084768     libvcruntime:frame.obj
 0002:0001a794       $unwind$??$__InternalCxxFrameHandler@V__FrameHandler3@@@@YA?AW4_EXCEPTION_DISPOSITION@@PEAUEHExceptionRecord@@PEA_KPEAU_CONTEXT@@PEAU_xDISPATCHER_CONTEXT@@PEBU_s_FuncInfo@@H1E@Z 0000000180084794     libvcruntime:frame.obj
 0002:0001a7ac       $unwind$??$__InternalCxxFrameHandler@V__FrameHandler4@@@@YA?AW4_EXCEPTION_DISPOSITION@@PEAUEHExceptionRecord@@PEA_KPEAU_CONTEXT@@PEAU_xDISPATCHER_CONTEXT@@PEAUFuncInfo4@FH4@@H1E@Z 00000001800847ac     libvcruntime:frame.obj
 0002:0001a7c4       $unwind$??$FindHandler@V__FrameHandler3@@@@YAXPEAUEHExceptionRecord@@PEA_KPEAU_CONTEXT@@PEAU_xDISPATCHER_CONTEXT@@PEBU_s_FuncInfo@@EH1@Z 00000001800847c4     libvcruntime:frame.obj
 0002:0001a7e4       $unwind$??$FindHandler@V__FrameHandler4@@@@YAXPEAUEHExceptionRecord@@PEA_KPEAU_CONTEXT@@PEAU_xDISPATCHER_CONTEXT@@PEAUFuncInfo4@FH4@@EH1@Z 00000001800847e4     libvcruntime:frame.obj
 0002:0001a804       $unwind$??$CatchIt@V__FrameHandler3@@@@YAXPEAUEHExceptionRecord@@PEA_KPEAU_CONTEXT@@PEAU_xDISPATCHER_CONTEXT@@PEBU_s_FuncInfo@@PEBU_s_HandlerType@@PEBU_s_CatchableType@@PEBU_s_TryBlockMapEntry@@H1EE@Z 0000000180084804     libvcruntime:frame.obj
 0002:0001a804       $unwind$??$CatchIt@V__FrameHandler4@@@@YAXPEAUEHExceptionRecord@@PEA_KPEAU_CONTEXT@@PEAU_xDISPATCHER_CONTEXT@@PEAUFuncInfo4@FH4@@PEAUHandlerType4@4@PEBU_s_CatchableType@@PEAUTryBlockMapEntry4@4@H1EE@Z 0000000180084804     libvcruntime:frame.obj
 0002:0001a81c       $unwind$??$FindHandlerForForeignException@V__FrameHandler3@@@@YAXPEAUEHExceptionRecord@@PEA_KPEAU_CONTEXT@@PEAU_xDISPATCHER_CONTEXT@@PEBU_s_FuncInfo@@HH1@Z 000000018008481c     libvcruntime:frame.obj
 0002:0001a838       $unwind$??$FindHandlerForForeignException@V__FrameHandler4@@@@YAXPEAUEHExceptionRecord@@PEA_KPEAU_CONTEXT@@PEAU_xDISPATCHER_CONTEXT@@PEAUFuncInfo4@FH4@@HH1@Z 0000000180084838     libvcruntime:frame.obj
 0002:0001a858       $unwind$?try_get_function@@YAPEAXW4function_id@?A0x391cf84c@@QEBDQEBW4module_id@2@2@Z 0000000180084858     libucrt:winapi_thunks.obj
 0002:0001a858       $unwind$??$parse_command_line@D@@YAXPEADPEAPEAD0PEA_K2@Z 0000000180084858     libucrt:argv_parsing.obj
 0002:0001a858       $unwind$?try_get_function@@YAPEAXW4function_id@?A0x14174aea@@QEBDQEBW4module_id@2@2@Z 0000000180084858     libvcruntime:winapi_downlevel.obj
 0002:0001a878       $unwind$__acrt_call_reportfault 0000000180084878     libucrt:invalid_parameter.obj
 0002:0001a898       $unwind$?get_raw_ptd_noexit@__crt_cached_ptd_host@@QEAAPEAU__acrt_ptd@@XZ 0000000180084898     libucrt:invalid_parameter.obj
 0002:0001a8a8       $unwind$_invalid_parameter 00000001800848a8     libucrt:invalid_parameter.obj
 0002:0001a8b4       $unwind$_toupper_l         00000001800848b4     libucrt:tolower_toupper.obj
 0002:0001a8c4       $unwind$_mbtowc_l          00000001800848c4     libucrt:mbtowc.obj
 0002:0001a8c4       $unwind$_chsize_nolock     00000001800848c4     libucrt:chsize.obj
 0002:0001a8c4       $unwind$_close_nolock      00000001800848c4     libucrt:close.obj
 0002:0001a8c4       $unwind$_lseeki64          00000001800848c4     libucrt:lseek.obj
 0002:0001a8c4       $unwind$_lseeki64_nolock   00000001800848c4     libucrt:lseek.obj
 0002:0001a8c4       $unwind$_write             00000001800848c4     libucrt:write.obj
 0002:0001a8c4       $unwind$_fclose_nolock     00000001800848c4     libucrt:fclose.obj
 0002:0001a8c4       $unwind$fclose             00000001800848c4     libucrt:fclose.obj
 0002:0001a8c4       $unwind$_fflush_nolock     00000001800848c4     libucrt:fflush.obj
 0002:0001a8c4       $unwind$fseek              00000001800848c4     libucrt:fseek.obj
 0002:0001a8c4       $unwind$ftell              00000001800848c4     libucrt:ftell.obj
 0002:0001a8d4       $unwind$?common_ftell_translated_utf8_nolock@@YA_JV__crt_stdio_stream@@_JAEAV__crt_cached_ptd_host@@@Z 00000001800848d4     libucrt:ftell.obj
 0002:0001a8f8       $unwind$?common_ftell_read_mode_nolock@@YA_JV__crt_stdio_stream@@_J1AEAV__crt_cached_ptd_host@@@Z 00000001800848f8     libucrt:ftell.obj
 0002:0001a910       $unwind$?_fclose_nolock_internal@@YAHQEAU_iobuf@@AEAV__crt_cached_ptd_host@@@Z 0000000180084910     libucrt:fclose.obj
 0002:0001a910       $unwind$??$common_ftell_nolock@_J@@YA_JV__crt_stdio_stream@@AEAV__crt_cached_ptd_host@@@Z 0000000180084910     libucrt:ftell.obj
 0002:0001a920       $unwind$??$common_ftell@J@@YAJV__crt_stdio_stream@@AEAV__crt_cached_ptd_host@@@Z 0000000180084920     libucrt:ftell.obj
 0002:0001a948       $unwind$?common_flush_all@@YAH_N@Z 0000000180084948     libucrt:fflush.obj
 0002:0001a950       $unwind$??$?RV<lambda_842d9ff0dc9ef11c61343bbaebe7f885>@@AEAV<lambda_c5860995281e5c4ce005b3de8f5874ee>@@V<lambda_d90129c13df834fdcbf8d2b88dafcf2d>@@@?$__crt_seh_guarded_call@X@@QEAAX$$QEAV<lambda_842d9ff0dc9ef11c61343bbaebe7f885>@@AEAV<lambda_c5860995281e5c4ce005b3de8f5874ee>@@$$QEAV<lambda_d90129c13df834fdcbf8d2b88dafcf2d>@@@Z 0000000180084950     libucrt:fflush.obj
 0002:0001a974       $unwind$??$?RV<lambda_886d6c58226a84441f68b9f2b8217b83>@@AEAV<lambda_ab61a845afdef5b7c387490eaf3616ee>@@V<lambda_f7f22ab5edc0698d5f6905b0d3f44752>@@@?$__crt_seh_guarded_call@X@@QEAAX$$QEAV<lambda_886d6c58226a84441f68b9f2b8217b83>@@AEAV<lambda_ab61a845afdef5b7c387490eaf3616ee>@@$$QEAV<lambda_f7f22ab5edc0698d5f6905b0d3f44752>@@@Z 0000000180084974     libucrt:fflush.obj
 0002:0001a99c       $unwind$??$?RV<lambda_c376a267cfb53b6959b3b692ec76b120>@@AEAV<lambda_9a32fed5bf61b6b509b2d3f6003082a1>@@V<lambda_572fbb9fa0ab338edf41edfd4b5fcc8d>@@@?$__crt_seh_guarded_call@H@@QEAAH$$QEAV<lambda_c376a267cfb53b6959b3b692ec76b120>@@AEAV<lambda_9a32fed5bf61b6b509b2d3f6003082a1>@@$$QEAV<lambda_572fbb9fa0ab338edf41edfd4b5fcc8d>@@@Z 000000018008499c     libucrt:fflush.obj
 0002:0001a9c0       $unwind$?_fclose_internal@@YAHQEAU_iobuf@@AEAV__crt_cached_ptd_host@@@Z 00000001800849c0     libucrt:fclose.obj
 0002:0001a9e4       $unwind$?common_fseek@@YAHV__crt_stdio_stream@@_JHAEAV__crt_cached_ptd_host@@@Z 00000001800849e4     libucrt:fseek.obj
 0002:0001aa10       $unwind$qsort              0000000180084a10     libucrt:qsort.obj
 0002:0001aa28       $chain$4$qsort             0000000180084a28     libucrt:qsort.obj
 0002:0001aa4c       $chain$5$qsort             0000000180084a4c     libucrt:qsort.obj
 0002:0001aa60       $xdatasym                  0000000180084a60     libucrt:strncpy.obj
 0002:0001aa64       $unwind$strtol             0000000180084a64     libucrt:strtox.obj
 0002:0001aa64       $unwind$strtoull           0000000180084a64     libucrt:strtox.obj
 0002:0001aa64       $unwind$fwrite             0000000180084a64     libucrt:fwrite.obj
 0002:0001aa74       $unwind$_fwrite_nolock_internal 0000000180084a74     libucrt:fwrite.obj
 0002:0001aa90       $unwind$_fwrite_internal   0000000180084a90     libucrt:fwrite.obj
 0002:0001aa98       $unwind$??$?RV<lambda_a2589f19c515cac03caf6db9c38355e9>@@AEAV<lambda_26974eb511f701c600fccfa2a97a8e1b>@@V<lambda_ad9ce2f38261e34e8a422b9cc35dfe8d>@@@?$__crt_seh_guarded_call@_K@@QEAA_K$$QEAV<lambda_a2589f19c515cac03caf6db9c38355e9>@@AEAV<lambda_26974eb511f701c600fccfa2a97a8e1b>@@$$QEAV<lambda_ad9ce2f38261e34e8a422b9cc35dfe8d>@@@Z 0000000180084a98     libucrt:fwrite.obj
 0002:0001aabc       $unwind$??$common_fsopen@_W@@YAPEAU_iobuf@@QEB_W0H@Z 0000000180084abc     libucrt:fopen.obj
 0002:0001aae8       $unwind$__stdio_common_vsprintf 0000000180084ae8     libucrt:output.obj
 0002:0001ab08       $unwind$?write_string@?$string_output_adapter@D@__crt_stdio_output@@QEBAXQEBDHQEAHAEAV__crt_cached_ptd_host@@@Z 0000000180084b08     libucrt:output.obj
 0002:0001ab20       $unwind$??$create_environment@D@@YAQEAPEADQEAD@Z 0000000180084b20     libucrt:environment_initialization.obj
 0002:0001ab20       $unwind$_mbtowc_internal   0000000180084b20     libucrt:mbtowc.obj
 0002:0001ab20       $unwind$??$__acrt_convert_wcs_mbs_cp@D_WV<lambda_7c9dea7b4ca7285d2cdb541a38da6275>@@U__crt_win32_buffer_internal_dynamic_resizing@@@@YAHQEBDAEAV?$__crt_win32_buffer@_WU__crt_win32_buffer_internal_dynamic_resizing@@@@AEBV<lambda_7c9dea7b4ca7285d2cdb541a38da6275>@@I@Z 0000000180084b20     libucrt:argv_wildcards.obj
 0002:0001ab20       $unwind$??$type_case_integer@$07@?$output_processor@DV?$string_output_adapter@D@__crt_stdio_output@@V?$standard_base@DV?$string_output_adapter@D@__crt_stdio_output@@@2@@__crt_stdio_output@@AEAA_N_N@Z 0000000180084b20     libucrt:output.obj
 0002:0001ab20       $unwind$??$type_case_integer@$09@?$output_processor@DV?$string_output_adapter@D@__crt_stdio_output@@V?$standard_base@DV?$string_output_adapter@D@__crt_stdio_output@@@2@@__crt_stdio_output@@AEAA_N_N@Z 0000000180084b20     libucrt:output.obj
 0002:0001ab20       $unwind$??$type_case_integer@$0BA@@?$output_processor@DV?$string_output_adapter@D@__crt_stdio_output@@V?$standard_base@DV?$string_output_adapter@D@__crt_stdio_output@@@2@@__crt_stdio_output@@AEAA_N_N@Z 0000000180084b20     libucrt:output.obj
 0002:0001ab20       $unwind$?process@?$output_processor@DV?$string_output_adapter@D@__crt_stdio_output@@V?$standard_base@DV?$string_output_adapter@D@__crt_stdio_output@@@2@@__crt_stdio_output@@QEAAHXZ 0000000180084b20     libucrt:output.obj
 0002:0001ab38       $unwind$?parse_int_from_format_string@?$output_processor@DV?$string_output_adapter@D@__crt_stdio_output@@V?$standard_base@DV?$string_output_adapter@D@__crt_stdio_output@@@2@@__crt_stdio_output@@AEAA_NQEAH@Z 0000000180084b38     libucrt:output.obj
 0002:0001ab4c       $unwind$?state_case_type@?$output_processor@DV?$string_output_adapter@D@__crt_stdio_output@@V?$standard_base@DV?$string_output_adapter@D@__crt_stdio_output@@@2@@__crt_stdio_output@@AEAA_NXZ 0000000180084b4c     libucrt:output.obj
 0002:0001ab70       $unwind$?type_case_a@?$output_processor@DV?$string_output_adapter@D@__crt_stdio_output@@V?$standard_base@DV?$string_output_adapter@D@__crt_stdio_output@@@2@@__crt_stdio_output@@AEAA_NXZ 0000000180084b70     libucrt:output.obj
 0002:0001ab84       $unwind$??$parse_integer@KV?$c_string_character_source@D@__crt_strtox@@$00@__crt_strtox@@YAKAEAV__crt_cached_ptd_host@@V?$c_string_character_source@D@0@H_N@Z 0000000180084b84     libucrt:strtox.obj
 0002:0001ab84       $unwind$??$parse_integer@_KV?$c_string_character_source@D@__crt_strtox@@$00@__crt_strtox@@YA_KAEAV__crt_cached_ptd_host@@V?$c_string_character_source@D@0@H_N@Z 0000000180084b84     libucrt:strtox.obj
 0002:0001ab84       $unwind$??$copy_and_add_argument_to_buffer@D@@YAHQEBD0_KAEAV?$argument_list@D@?A0x5f5c8891@@@Z 0000000180084b84     libucrt:argv_wildcards.obj
 0002:0001ab84       $unwind$??$parse_integer@KV?$c_string_character_source@D@__crt_strtox@@$0A@@__crt_strtox@@YAKAEAV__crt_cached_ptd_host@@V?$c_string_character_source@D@0@H_N@Z 0000000180084b84     libucrt:output.obj
 0002:0001aba0       $unwind$fread_s            0000000180084ba0     libucrt:fread.obj
 0002:0001abd0       $unwind$_fread_nolock_s    0000000180084bd0     libucrt:fread.obj
 0002:0001abe8       $unwind$__stdio_common_vsscanf 0000000180084be8     libucrt:input.obj
 0002:0001ac08       $unwind$?divide@__crt_strtox@@YA_KAEAUbig_integer@1@AEBU21@@Z 0000000180084c08     libucrt:input.obj
 0002:0001ac20       $chain$0$?divide@__crt_strtox@@YA_KAEAUbig_integer@1@AEBU21@@Z 0000000180084c20     libucrt:input.obj
 0002:0001ac34       $chain$1$?divide@__crt_strtox@@YA_KAEAUbig_integer@1@AEBU21@@Z 0000000180084c34     libucrt:input.obj
 0002:0001ac44       $unwind$?assemble_floating_point_value@__crt_strtox@@YA?AW4SLD_STATUS@@_KH_N1AEBVfloating_point_value@1@@Z 0000000180084c44     libucrt:input.obj
 0002:0001ac5c       $unwind$?convert_decimal_string_to_floating_type_common@__crt_strtox@@YA?AW4SLD_STATUS@@AEBUfloating_point_string@1@AEBVfloating_point_value@1@@Z 0000000180084c5c     libucrt:input.obj
 0002:0001ac80       $unwind$?convert_hexadecimal_string_to_floating_type_common@__crt_strtox@@YA?AW4SLD_STATUS@@AEBUfloating_point_string@1@AEBVfloating_point_value@1@@Z 0000000180084c80     libucrt:input.obj
 0002:0001ac8c       $unwind$?scan_scanset_range@?$format_string_parser@D@__crt_stdio_input@@AEAA_NXZ 0000000180084c8c     libucrt:input.obj
 0002:0001aca0       $unwind$?write_character@?$input_processor@DV?$string_input_adapter@D@__crt_stdio_input@@@__crt_stdio_input@@AEAA_NQEFA_W_KAEAPEFA_WAEA_KD@Z 0000000180084ca0     libucrt:input.obj
 0002:0001acb0       $unwind$??$process_floating_point_specifier_t@M@?$input_processor@DV?$string_input_adapter@D@__crt_stdio_input@@@__crt_stdio_input@@AEAA_NXZ 0000000180084cb0     libucrt:input.obj
 0002:0001acb0       $unwind$??$process_floating_point_specifier_t@N@?$input_processor@DV?$string_input_adapter@D@__crt_stdio_input@@@__crt_stdio_input@@AEAA_NXZ 0000000180084cb0     libucrt:input.obj
 0002:0001acbc       $unwind$??$parse_integer@_KV?$input_adapter_character_source@V?$string_input_adapter@D@__crt_stdio_input@@@__crt_strtox@@@__crt_strtox@@YA_KQEAU__crt_locale_pointers@@V?$input_adapter_character_source@V?$string_input_adapter@D@__crt_stdio_input@@@0@H_N@Z 0000000180084cbc     libucrt:input.obj
 0002:0001acd4       $unwind$?should_round_up@@YA_NQEBN_KFW4__acrt_rounding_mode@@@Z 0000000180084cd4     libucrt:cvt.obj
 0002:0001acd4       $unwind$_chsize_nolock_internal 0000000180084cd4     libucrt:chsize.obj
 0002:0001acd4       $unwind$??$process_string_specifier_tchar@D@?$input_processor@DV?$string_input_adapter@D@__crt_stdio_input@@@__crt_stdio_input@@AEAA_NW4conversion_mode@1@D@Z 0000000180084cd4     libucrt:input.obj
 0002:0001acf0       $unwind$??$process_string_specifier_tchar@_W@?$input_processor@DV?$string_input_adapter@D@__crt_stdio_input@@@__crt_stdio_input@@AEAA_NW4conversion_mode@1@_W@Z 0000000180084cf0     libucrt:input.obj
 0002:0001ad08       $unwind$??$parse_floating_point@V?$c_string_character_source@D@__crt_strtox@@N@__crt_strtox@@YA?AW4SLD_STATUS@@QEAU__crt_locale_pointers@@V?$c_string_character_source@D@0@QEAN@Z 0000000180084d08     libucrt:atof.obj
 0002:0001ad08       $unwind$??$parse_floating_point@V?$input_adapter_character_source@V?$string_input_adapter@D@__crt_stdio_input@@@__crt_strtox@@M@__crt_strtox@@YA?AW4SLD_STATUS@@QEAU__crt_locale_pointers@@V?$input_adapter_character_source@V?$string_input_adapter@D@__crt_stdio_input@@@0@QEAM@Z 0000000180084d08     libucrt:input.obj
 0002:0001ad08       $unwind$??$parse_floating_point@V?$input_adapter_character_source@V?$string_input_adapter@D@__crt_stdio_input@@@__crt_strtox@@N@__crt_strtox@@YA?AW4SLD_STATUS@@QEAU__crt_locale_pointers@@V?$input_adapter_character_source@V?$string_input_adapter@D@__crt_stdio_input@@@0@QEAN@Z 0000000180084d08     libucrt:input.obj
 0002:0001ad20       $unwind$??$parse_integer@_KV?$input_adapter_character_source@V?$string_input_adapter@D@__crt_stdio_input@@@__crt_strtox@@$00@__crt_strtox@@YA_KAEAV__crt_cached_ptd_host@@V?$input_adapter_character_source@V?$string_input_adapter@D@__crt_stdio_input@@@0@H_N@Z 0000000180084d20     libucrt:input.obj
 0002:0001ad3c       $unwind$??$parse_floating_point_from_source@V?$input_adapter_character_source@V?$string_input_adapter@D@__crt_stdio_input@@@__crt_strtox@@@__crt_strtox@@YA?AW4floating_point_parse_result@0@QEAU__crt_locale_pointers@@AEAV?$input_adapter_character_source@V?$string_input_adapter@D@__crt_stdio_input@@@0@AEAUfloating_point_string@0@@Z 0000000180084d3c     libucrt:input.obj
 0002:0001ad54       $unwind$??$parse_floating_point_possible_infinity@DV?$input_adapter_character_source@V?$string_input_adapter@D@__crt_stdio_input@@@__crt_strtox@@_K@__crt_strtox@@YA?AW4floating_point_parse_result@0@AEADAEAV?$input_adapter_character_source@V?$string_input_adapter@D@__crt_stdio_input@@@0@_K@Z 0000000180084d54     libucrt:input.obj
 0002:0001ad5c       $unwind$??$parse_floating_point_possible_nan@DV?$input_adapter_character_source@V?$string_input_adapter@D@__crt_stdio_input@@@__crt_strtox@@_K@__crt_strtox@@YA?AW4floating_point_parse_result@0@AEADAEAV?$input_adapter_character_source@V?$string_input_adapter@D@__crt_stdio_input@@@0@_K@Z 0000000180084d5c     libucrt:input.obj
 0002:0001ad68       $xdatasym                  0000000180084d68     libucrt:strncmp.obj
 0002:0001ad6c       $unwind$??$common_atof_l@D@@YANQEBDQEAU__crt_locale_pointers@@@Z 0000000180084d6c     libucrt:atof.obj
 0002:0001ad74       $unwind$??$parse_floating_point_from_source@V?$c_string_character_source@D@__crt_strtox@@@__crt_strtox@@YA?AW4floating_point_parse_result@0@QEAU__crt_locale_pointers@@AEAV?$c_string_character_source@D@0@AEAUfloating_point_string@0@@Z 0000000180084d74     libucrt:atof.obj
 0002:0001ad88       $unwind$??$parse_floating_point_possible_infinity@DV?$c_string_character_source@D@__crt_strtox@@PEBD@__crt_strtox@@YA?AW4floating_point_parse_result@0@AEADAEAV?$c_string_character_source@D@0@PEBD@Z 0000000180084d88     libucrt:atof.obj
 0002:0001ada0       $unwind$??$common_freopen@D@@YAHQEAPEAU_iobuf@@QEBD1V__crt_stdio_stream@@H@Z 0000000180084da0     libucrt:freopen.obj
 0002:0001adc8       $unwind$_query_new_handler 0000000180084dc8     libucrt:new_handler.obj
 0002:0001ade8       $unwind$terminate          0000000180084de8     libucrt:terminate.obj
 0002:0001ae08       $unwind$?try_cor_exit_process@@YAXI@Z 0000000180084e08     libucrt:exit.obj
 0002:0001ae18       $ip2state$?try_cor_exit_process@@YAXI@Z 0000000180084e18     libucrt:exit.obj
 0002:0001ae20       $unwind$?common_exit@@YAXHW4_crt_exit_cleanup_mode@@W4_crt_exit_return_mode@@@Z 0000000180084e20     libucrt:exit.obj
 0002:0001ae34       $stateUnwindMap$__dcrt_uninitialize_environments_nolock 0000000180084e34     libucrt:environment_initialization.obj
 0002:0001ae34       $stateUnwindMap$?common_exit@@YAXHW4_crt_exit_cleanup_mode@@W4_crt_exit_return_mode@@@Z 0000000180084e34     libucrt:exit.obj
 0002:0001ae34       $stateUnwindMap$_execute_onexit_table 0000000180084e34     libucrt:onexit.obj
 0002:0001ae40       $ip2state$?common_exit@@YAXHW4_crt_exit_cleanup_mode@@W4_crt_exit_return_mode@@@Z 0000000180084e40     libucrt:exit.obj
 0002:0001ae48       $unwind$??R<lambda_6e4b09c48022b2350581041d5f6b0c4c>@@QEBA@XZ 0000000180084e48     libucrt:exit.obj
 0002:0001ae68       $unwind$??$?RV<lambda_d80eeec6fff315bfe5c115232f3240e3>@@AEAV<lambda_6e4b09c48022b2350581041d5f6b0c4c>@@V<lambda_2358e3775559c9db80273638284d5e45>@@@?$__crt_seh_guarded_call@X@@QEAAX$$QEAV<lambda_d80eeec6fff315bfe5c115232f3240e3>@@AEAV<lambda_6e4b09c48022b2350581041d5f6b0c4c>@@$$QEAV<lambda_2358e3775559c9db80273638284d5e45>@@@Z 0000000180084e68     libucrt:exit.obj
 0002:0001ae8c       $unwind$_configure_narrow_argv 0000000180084e8c     libucrt:argv_parsing.obj
 0002:0001aea0       $unwind$__dcrt_uninitialize_environments_nolock 0000000180084ea0     libucrt:environment_initialization.obj
 0002:0001aeb0       $unwind$??$free_environment@D@@YAXQEAPEAD@Z 0000000180084eb0     libucrt:environment_initialization.obj
 0002:0001aeb0       $unwind$??$free_environment@_W@@YAXQEAPEA_W@Z 0000000180084eb0     libucrt:environment_initialization.obj
 0002:0001aeb0       $unwind$_initterm          0000000180084eb0     libucrt:initterm.obj
 0002:0001aebc       $unwind$_register_onexit_function 0000000180084ebc     libucrt:onexit.obj
 0002:0001aec4       $unwind$_execute_onexit_table 0000000180084ec4     libucrt:onexit.obj
 0002:0001aed8       $ip2state$_execute_onexit_table 0000000180084ed8     libucrt:onexit.obj
 0002:0001aee0       $unwind$??$?RV<lambda_638799b9deba96c50f710eeac98168cd>@@AEAV<lambda_22ebabd17bc4fa466a2aca6d8deb888d>@@V<lambda_a6f7d7db0129f75315ebf26d50c089f1>@@@?$__crt_seh_guarded_call@H@@QEAAH$$QEAV<lambda_638799b9deba96c50f710eeac98168cd>@@AEAV<lambda_22ebabd17bc4fa466a2aca6d8deb888d>@@$$QEAV<lambda_a6f7d7db0129f75315ebf26d50c089f1>@@@Z 0000000180084ee0     libucrt:onexit.obj
 0002:0001af04       $unwind$??$?RV<lambda_7777bce6b2f8c936911f934f8298dc43>@@AEAV<lambda_f03950bc5685219e0bcd2087efbe011e>@@V<lambda_3883c3dff614d5e0c5f61bb1ac94921c>@@@?$__crt_seh_guarded_call@H@@QEAAH$$QEAV<lambda_7777bce6b2f8c936911f934f8298dc43>@@AEAV<lambda_f03950bc5685219e0bcd2087efbe011e>@@$$QEAV<lambda_3883c3dff614d5e0c5f61bb1ac94921c>@@@Z 0000000180084f04     libucrt:onexit.obj
 0002:0001af28       $unwind$_free_base         0000000180084f28     libucrt:free_base.obj
 0002:0001af28       $unwind$?destroy_fls@@YAXPEAX@Z 0000000180084f28     libucrt:per_thread_data.obj
 0002:0001af28       $unwind$__acrt_locale_free_numeric 0000000180084f28     libucrt:initnum.obj
 0002:0001af28       $unwind$__acrt_locale_free_lc_time_if_unreferenced 0000000180084f28     libucrt:locale_refcounting.obj
 0002:0001af30       $unwind$?construct_ptd_array@@YAXQEAU__acrt_ptd@@@Z 0000000180084f30     libucrt:per_thread_data.obj
 0002:0001af38       $unwind$?destroy_ptd_array@@YAXQEAU__acrt_ptd@@@Z 0000000180084f38     libucrt:per_thread_data.obj
 0002:0001af40       $unwind$??$?RV<lambda_0ae27a3a962d80f24befdcbee591983d>@@AEAV<lambda_8d0ee55de4b1038c4002e0adecdf1839>@@V<lambda_dc504788e8f1664fe9b84e20bfb512f2>@@@?$__crt_seh_guarded_call@X@@QEAAX$$QEAV<lambda_0ae27a3a962d80f24befdcbee591983d>@@AEAV<lambda_8d0ee55de4b1038c4002e0adecdf1839>@@$$QEAV<lambda_dc504788e8f1664fe9b84e20bfb512f2>@@@Z 0000000180084f40     libucrt:per_thread_data.obj
 0002:0001af64       $unwind$??$?RV<lambda_aa87e3671a710a21b5dc78c0bdf72e11>@@AEAV<lambda_92619d2358a28f41a33ba319515a20b9>@@V<lambda_6992ecaafeb10aed2b74cb1fae11a551>@@@?$__crt_seh_guarded_call@X@@QEAAX$$QEAV<lambda_aa87e3671a710a21b5dc78c0bdf72e11>@@AEAV<lambda_92619d2358a28f41a33ba319515a20b9>@@$$QEAV<lambda_6992ecaafeb10aed2b74cb1fae11a551>@@@Z 0000000180084f64     libucrt:per_thread_data.obj
 0002:0001af88       $unwind$??$?RV<lambda_f2e299630e499de9f9a165e60fcd3db5>@@AEAV<lambda_2ae9d31cdba2644fcbeaf08da7c24588>@@V<lambda_40d01ff24d0e7b3814fdbdcee8eab3c7>@@@?$__crt_seh_guarded_call@X@@QEAAX$$QEAV<lambda_f2e299630e499de9f9a165e60fcd3db5>@@AEAV<lambda_2ae9d31cdba2644fcbeaf08da7c24588>@@$$QEAV<lambda_40d01ff24d0e7b3814fdbdcee8eab3c7>@@@Z 0000000180084f88     libucrt:per_thread_data.obj
 0002:0001afac       $unwind$??$?RV<lambda_2d41944a1d46af3157314b8a01080d33>@@AEAV<lambda_8f455de75cd7d7f24b4096f044d8b9e6>@@V<lambda_aa500f224e6afead328df44964fe2772>@@@?$__crt_seh_guarded_call@X@@QEAAX$$QEAV<lambda_2d41944a1d46af3157314b8a01080d33>@@AEAV<lambda_8f455de75cd7d7f24b4096f044d8b9e6>@@$$QEAV<lambda_aa500f224e6afead328df44964fe2772>@@@Z 0000000180084fac     libucrt:per_thread_data.obj
 0002:0001afd0       $unwind$__acrt_uninitialize_locale 0000000180084fd0     libucrt:wsetlocale.obj
 0002:0001afd0       $unwind$__acrt_get_sigabrt_handler 0000000180084fd0     libucrt:signal.obj
 0002:0001afd8       $unwind$??$?RV<lambda_410d79af7f07d98d83a3f525b3859a53>@@AEAV<lambda_3e16ef9562a7dcce91392c22ab16ea36>@@V<lambda_38119f0e861e05405d8a144b9b982f0a>@@@?$__crt_seh_guarded_call@X@@QEAAX$$QEAV<lambda_410d79af7f07d98d83a3f525b3859a53>@@AEAV<lambda_3e16ef9562a7dcce91392c22ab16ea36>@@$$QEAV<lambda_38119f0e861e05405d8a144b9b982f0a>@@@Z 0000000180084fd8     libucrt:wsetlocale.obj
 0002:0001b000       $unwind$__acrt_LCMapStringA 0000000180085000     libucrt:lcmapstringa.obj
 0002:0001b010       $unwind$?__acrt_LCMapStringA_stat@@YAHPEAU__crt_locale_pointers@@PEB_WKPEBDHPEADHHH@Z 0000000180085010     libucrt:lcmapstringa.obj
 0002:0001b038       $unwind$??$common_lseek@_J@@YA_JH_JHAEAV__crt_cached_ptd_host@@@Z 0000000180085038     libucrt:lseek.obj
 0002:0001b064       $unwind$_read              0000000180085064     libucrt:read.obj
 0002:0001b094       $unwind$_read_nolock       0000000180085094     libucrt:read.obj
 0002:0001b0ac       $unwind$?translate_ansi_or_utf8_nolock@@YAHHQEAD_KQEA_W1@Z 00000001800850ac     libucrt:read.obj
 0002:0001b0c4       $unwind$??$translate_text_mode_nolock@_W@@YAHHQEA_W_K@Z 00000001800850c4     libucrt:read.obj
 0002:0001b0dc       $unwind$__acrt_initialize_lowio 00000001800850dc     libucrt:ioinit.obj
 0002:0001b0fc       $unwind$?initialize_inherited_file_handles_nolock@@YAXXZ 00000001800850fc     libucrt:ioinit.obj
 0002:0001b118       $unwind$__acrt_initialize_winapi_thunks 0000000180085118     libucrt:winapi_thunks.obj
 0002:0001b120       $unwind$_fcloseall         0000000180085120     libucrt:closeall.obj
 0002:0001b144       $unwind$_commit            0000000180085144     libucrt:commit.obj
 0002:0001b14c       $unwind$??$?RV<lambda_a37b2b86f63e897a80ea819b0eb08c01>@@AEAV<lambda_38ce7e780aa69e748d6df282ebc68efe>@@V<lambda_99fb1378e971ab6e7edea83e3a7a83a2>@@@?$__crt_seh_guarded_call@H@@QEAAH$$QEAV<lambda_a37b2b86f63e897a80ea819b0eb08c01>@@AEAV<lambda_38ce7e780aa69e748d6df282ebc68efe>@@$$QEAV<lambda_99fb1378e971ab6e7edea83e3a7a83a2>@@@Z 000000018008514c     libucrt:commit.obj
 0002:0001b170       $unwind$_write_nolock      0000000180085170     libucrt:write.obj
 0002:0001b188       $unwind$_write_internal    0000000180085188     libucrt:write.obj
 0002:0001b1b4       $unwind$?write_double_translated_ansi_nolock@@YA?AUwrite_result@?A0x17268360@@HQEBDIAEAV__crt_cached_ptd_host@@@Z 00000001800851b4     libucrt:write.obj
 0002:0001b1e0       $ip2state$?write_double_translated_ansi_nolock@@YA?AUwrite_result@?A0x17268360@@HQEBDIAEAV__crt_cached_ptd_host@@@Z 00000001800851e0     libucrt:write.obj
 0002:0001b1e8       $unwind$?write_text_ansi_nolock@@YA?AUwrite_result@?A0x17268360@@HQEBDI@Z 00000001800851e8     libucrt:write.obj
 0002:0001b1e8       $unwind$?write_text_utf16le_nolock@@YA?AUwrite_result@?A0x17268360@@HQEBDI@Z 00000001800851e8     libucrt:write.obj
 0002:0001b208       $unwind$?write_text_utf8_nolock@@YA?AUwrite_result@?A0x17268360@@HQEBDI@Z 0000000180085208     libucrt:write.obj
 0002:0001b22c       $unwind$_close_internal    000000018008522c     libucrt:close.obj
 0002:0001b234       $unwind$??$?RV<lambda_ad8af0d99a0adf03d037d7dffe354bb5>@@AEAV<lambda_c9ba49e555ba839a7b07aa3fbecb7617>@@V<lambda_2f1ebd5d68526518146ae959c9e734c8>@@@?$__crt_seh_guarded_call@H@@QEAAH$$QEAV<lambda_ad8af0d99a0adf03d037d7dffe354bb5>@@AEAV<lambda_c9ba49e555ba839a7b07aa3fbecb7617>@@$$QEAV<lambda_2f1ebd5d68526518146ae959c9e734c8>@@@Z 0000000180085234     libucrt:close.obj
 0002:0001b258       $unwind$?__acrt_stdio_allocate_stream@@YA?AV__crt_stdio_stream@@XZ 0000000180085258     libucrt:stream.obj
 0002:0001b278       $unwind$?find_or_allocate_unused_stream_nolock@@YA?AV__crt_stdio_stream@@XZ 0000000180085278     libucrt:stream.obj
 0002:0001b28c       $unwind$??$write_buffer_nolock@D@@YA_NDV__crt_stdio_stream@@AEAV__crt_cached_ptd_host@@@Z 000000018008528c     libucrt:_flsbuf.obj
 0002:0001b2a0       $unwind$__acrt_stdio_end_temporary_buffering_nolock 00000001800852a0     libucrt:_sftbuf.obj
 0002:0001b2a8       $unwind$_openfile          00000001800852a8     libucrt:openfile.obj
 0002:0001b2a8       $unwind$_wopenfile         00000001800852a8     libucrt:openfile.obj
 0002:0001b2bc       $unwind$__acrt_fp_format   00000001800852bc     libucrt:cvt.obj
 0002:0001b2cc       $unwind$?fp_format_e_internal@@YAHQEAD_KH_NIQEAU_strflt@@2AEAV__crt_cached_ptd_host@@@Z 00000001800852cc     libucrt:cvt.obj
 0002:0001b2e8       $unwind$?fp_format_e@@YAHQEBNQEAD_K12H_NIW4__acrt_rounding_mode@@AEAV__crt_cached_ptd_host@@@Z 00000001800852e8     libucrt:cvt.obj
 0002:0001b300       $unwind$?fp_format_a@@YAHQEBNPEAD_KQEAD2H_NIW4__acrt_rounding_mode@@AEAV__crt_cached_ptd_host@@@Z 0000000180085300     libucrt:cvt.obj
 0002:0001b31c       $unwind$?fp_format_g@@YAHQEBNQEAD_K12H_NIW4__acrt_rounding_mode@@AEAV__crt_cached_ptd_host@@@Z 000000018008531c     libucrt:cvt.obj
 0002:0001b334       $unwind$_wctomb_internal   0000000180085334     libucrt:wctomb.obj
 0002:0001b348       $unwind$_isctype_l         0000000180085348     libucrt:isctype.obj
 0002:0001b364       $unwind$??$common_expand_argv_wildcards@D@@YAHQEAPEADQEAPEAPEAD@Z 0000000180085364     libucrt:argv_wildcards.obj
 0002:0001b37c       $unwind$__dcrt_get_narrow_environment_from_os 000000018008537c     libucrt:get_environment_from_os.obj
 0002:0001b37c       $unwind$??$__acrt_convert_wcs_mbs_cp@_WDV<lambda_d8593a27d1aa8c02be35c86a17d324c4>@@U__crt_win32_buffer_internal_dynamic_resizing@@@@YAHQEB_WAEAV?$__crt_win32_buffer@DU__crt_win32_buffer_internal_dynamic_resizing@@@@AEBV<lambda_d8593a27d1aa8c02be35c86a17d324c4>@@I@Z 000000018008537c     libucrt:argv_wildcards.obj
 0002:0001b394       $unwind$??$expand_argument_wildcards@D@@YAHQEAD0AEAV?$argument_list@D@?A0x5f5c8891@@@Z 0000000180085394     libucrt:argv_wildcards.obj
 0002:0001b3b4       $unwind$__acrt_GetModuleFileNameA 00000001800853b4     libucrt:getmodulefilenamea.obj
 0002:0001b3d0       $unwind$__dcrt_write_console 00000001800853d0     libucrt:initcon.obj
 0002:0001b3d0       $unwind$??$__acrt_convert_wcs_mbs_cp@_WDV<lambda_f788ae46380686e8b737efdd8c720d07>@@U__crt_win32_buffer_no_resizing@@@@YAHQEB_WAEAV?$__crt_win32_buffer@DU__crt_win32_buffer_no_resizing@@@@AEBV<lambda_f788ae46380686e8b737efdd8c720d07>@@I@Z 00000001800853d0     libucrt:getmodulefilenamea.obj
 0002:0001b3e4       $unwind$_setmbcp_nolock    00000001800853e4     libucrt:mbctype.obj
 0002:0001b404       $unwind$?update_thread_multibyte_data_internal@@YAPEAU__crt_multibyte_data@@QEAU__acrt_ptd@@QEAPEAU1@@Z 0000000180085404     libucrt:mbctype.obj
 0002:0001b42c       $unwind$?setmbcp_internal@@YAHH_NQEAU__acrt_ptd@@QEAPEAU__crt_multibyte_data@@@Z 000000018008542c     libucrt:mbctype.obj
 0002:0001b444       $unwind$?setSBUpLow@@YAXPEAU__crt_multibyte_data@@@Z 0000000180085444     libucrt:mbctype.obj
 0002:0001b460       $unwind$??$?RV<lambda_efdfa57d1f175319df784efa44bb7b81>@@AEAV<lambda_5f0a4c1567f8adc6734073e5d1e1b35c>@@V<lambda_2e8a7d3640ea6ccb4c2413664c2db6fd>@@@?$__crt_seh_guarded_call@X@@QEAAX$$QEAV<lambda_efdfa57d1f175319df784efa44bb7b81>@@AEAV<lambda_5f0a4c1567f8adc6734073e5d1e1b35c>@@$$QEAV<lambda_2e8a7d3640ea6ccb4c2413664c2db6fd>@@@Z 0000000180085460     libucrt:mbctype.obj
 0002:0001b484       $unwind$__acrt_WideCharToMultiByte 0000000180085484     libucrt:widechartomultibyte.obj
 0002:0001b490       $unwind$raise              0000000180085490     libucrt:signal.obj
 0002:0001b4d0       $unwind$??$?RV<lambda_450d765d439847d4c735a33c368b5fc0>@@AEAV<lambda_44731a7d0e6d81c3e6aa82d741081786>@@V<lambda_601a2a7da3b7a96e9554ac7215c4b07c>@@@?$__crt_seh_guarded_call@P6AXH@Z@@QEAAP6AXH@Z$$QEAV<lambda_450d765d439847d4c735a33c368b5fc0>@@AEAV<lambda_44731a7d0e6d81c3e6aa82d741081786>@@$$QEAV<lambda_601a2a7da3b7a96e9554ac7215c4b07c>@@@Z 00000001800854d0     libucrt:signal.obj
 0002:0001b4f4       $unwind$__acrt_update_thread_locale_data 00000001800854f4     libucrt:locale_refcounting.obj
 0002:0001b518       $unwind$__acrt_locale_free_monetary 0000000180085518     libucrt:initmon.obj
 0002:0001b520       $unwind$__acrt_locale_free_time 0000000180085520     libucrt:inittime.obj
 0002:0001b530       $unwind$__acrt_GetStringTypeA 0000000180085530     libucrt:getstringtypea.obj
 0002:0001b558       $unwind$_alloc_osfhnd      0000000180085558     libucrt:osfinfo.obj
 0002:0001b588       $unwind$__acrt_lowio_destroy_handle_array 0000000180085588     libucrt:osfinfo.obj
 0002:0001b598       $unwind$__acrt_lowio_ensure_fh_exists 0000000180085598     libucrt:osfinfo.obj
 0002:0001b5c4       $unwind$?__mbsrtowcs_utf8@__crt_mbstring@@YA_KPEA_WPEAPEBD_KPEAU_Mbstatet@@AEAV__crt_cached_ptd_host@@@Z 00000001800855c4     libucrt:mbrtowc.obj
 0002:0001b5dc       $unwind$_wcsnicmp_l        00000001800855dc     libucrt:wcsnicmp.obj
 0002:0001b5f8       $unwind$_sopen_nolock      00000001800855f8     libucrt:open.obj
 0002:0001b614       $unwind$_wsopen_nolock     0000000180085614     libucrt:open.obj
 0002:0001b634       $unwind$??$common_sopen_dispatch@D@@YAHQEBDHHHQEAHH@Z 0000000180085634     libucrt:open.obj
 0002:0001b658       $unwind$??$common_sopen_dispatch@_W@@YAHQEB_WHHHQEAHH@Z 0000000180085658     libucrt:open.obj
 0002:0001b67c       $unwind$?decode_options@@YA?AUfile_options@?A0xa9d50aae@@HHH@Z 000000018008567c     libucrt:open.obj
 0002:0001b690       $unwind$?configure_text_mode@@YAHHUfile_options@?A0xa9d50aae@@HAEAW4__crt_lowio_text_mode@@@Z 0000000180085690     libucrt:open.obj
 0002:0001b6a8       $unwind$__acrt_fltout      00000001800856a8     libucrt:cfout.obj
 0002:0001b6c8       $unwind$__acrt_fenv_get_control 00000001800856c8     libucrt:_fenvutils.obj
 0002:0001b6d0       $unwind$__acrt_fenv_set_control 00000001800856d0     libucrt:_fenvutils.obj
 0002:0001b6e0       $unwind$strpbrk            00000001800856e0     libucrt:strpbrk.obj
 0002:0001b6f0       $unwind$_mbsdec_l          00000001800856f0     libucrt:mbsdec.obj
 0002:0001b6fc       $unwind$?__mbrtoc32_utf8@__crt_mbstring@@YA_KPEA_UPEBD_KPEAU_Mbstatet@@AEAV__crt_cached_ptd_host@@@Z 00000001800856fc     libucrt:mbrtoc32.obj
 0002:0001b718       $unwind$_towlower_l        0000000180085718     libucrt:towlower.obj
 0002:0001b720       $unwind$_setmode_nolock    0000000180085720     libucrt:setmode.obj
 0002:0001b730       $xdatasym                  0000000180085730     libucrt:log10.obj
 0002:0001b73c       $unwind$common_control87   000000018008573c     libucrt:ieee.obj
 0002:0001b768       $unwind$_call_matherr      0000000180085768     libucrt:libm_error.obj
 0002:0001b770       $unwind$_handle_error      0000000180085770     libucrt:libm_error.obj
 0002:0001b770       $unwind$_handle_errorf     0000000180085770     libucrt:libm_error.obj
 0002:0001b790       $unwind$__acrt_initialize_fma3 0000000180085790     libucrt:fma3_available.obj
 0002:0001b798       $unwind$_log_special_common 0000000180085798     libucrt:log_special.obj
 0002:0001b7a8       $xdatasym                  00000001800857a8     libucrt:fpsr.obj
 0002:0001b7b0       $unwind$_raise_exc_ex      00000001800857b0     libucrt:fpexcept.obj
 0002:0001b7c4       $unwind$_ctrlfp            00000001800857c4     libucrt:fpctrl.obj
 0002:0001b7ec       $unwind$_IsNonwritableInCurrentImage 00000001800857ec     LIBCMT:pesect.obj
 0002:0001b810       $xdatasym                  0000000180085810     LIBCMT:chkstk.obj
 0002:0001b818       $unwind$atan2f             0000000180085818     libucrt:atan2f.obj
 0002:0001b838       $xdatasym                  0000000180085838     libucrt:cosf.obj
 0002:0001b840       $unwind$fmodf              0000000180085840     libucrt:fmodf.obj
 0002:0001b840       $unwind$sqrt               0000000180085840     libucrt:sqrt.obj
 0002:0001b840       $unwind$sqrtf              0000000180085840     libucrt:sqrtf.obj
 0002:0001b848       $xdatasym                  0000000180085848     libucrt:pow.obj
 0002:0001b858       $xdatasym                  0000000180085858     libucrt:powf.obj
 0002:0001b868       $xdatasym                  0000000180085868     libucrt:sinf.obj
 0002:0001b870       $xdatasym                  0000000180085870     libucrt:strcmp.obj
 0002:0001b878       $xdatasym                  0000000180085878     libucrt:remainder_piby2f_forasm.obj
 0002:0001b880       $xdatasym                  0000000180085880     libucrt:remainder_piby2_forfma3.obj
 0002:0001b88c       $unwind$_sincosf_special   000000018008588c     libucrt:sincos_special.obj
 0002:0001b894       $unwind$_powf_special      0000000180085894     libucrt:pow_special.obj
 0002:0001b8a0       $unwind$_pow_special       00000001800858a0     libucrt:pow_special.obj
 0002:0001b8b0       $xdatasym                  00000001800858b0     libucrt:remainder_piby2f_forc.obj
 0002:0001c020       .idata$6                   0000000180086020     kernel32:KERNEL32.dll
 0002:0001c1a8       .idata$6                   00000001800861a8     user32:USER32.dll
 0002:0001c1f2       .idata$6                   00000001800861f2     imm32:IMM32.dll
 0002:0001c20a       .idata$6                   000000018008620a     d3dcompiler:D3DCOMPILER_47.dll
 0003:000000b0       ?__vcrt_flsindex@@3KA      00000001800870b0     libvcruntime:per_thread_data.obj
 0003:000001d4       ?__acrt_flsindex@@3KA      00000001800871d4     libucrt:per_thread_data.obj
 0003:0000034c       ?errno_no_memory@@3HA      000000018008734c     libucrt:errno.obj
 0003:00000350       ?doserrno_no_memory@@3KA   0000000180087350     libucrt:errno.obj
 0003:000006e0       _mbctypes                  00000001800876e0     libucrt:mbctype.obj
 0003:000007f0       _mbcasemaps                00000001800877f0     libucrt:mbctype.obj
 0003:000008f0       ?__rgctypeflag@@3PADA      00000001800878f0     libucrt:mbctype.obj
 0003:00000900       ?__rgcode_page_info@@3PAUcode_page_info@@A 0000000180087900     libucrt:mbctype.obj
 0003:00000a98       ?__dcrt_lowio_console_output_handle@@3PEAXEA 0000000180087a98     libucrt:initcon.obj
 0003:00000aa0       ?dazSupported@?1??common_control87@@9@9 0000000180087aa0     libucrt:ieee.obj
 0003:00000ab0       ?dazSupported@?1??_ctrlfp@@9@9 0000000180087ab0     libucrt:fpctrl.obj
 0003:00042ae4       ?g_IndexBufferSize@@3HA    00000001800c9ae4     imgui_impl_dx11.obj
 0003:00042ae8       ?g_VertexBufferSize@@3HA   00000001800c9ae8     imgui_impl_dx11.obj
 0003:00042aec       ?g_LastMouseCursor@@3HA    00000001800c9aec     imgui_impl_win32.obj
 0003:00042af0       ?resize_grip_def@@3QBUImGuiResizeGripDef@@B 00000001800c9af0     imgui.obj
 0003:00042c30       ?resize_border_def@?6??RenderWindowOuterBorders@ImGui@@YAXPEAUImGuiWindow@@@Z@4QBUImGuiResizeBorderDef@?6??12@YAX0@Z@B 00000001800c9c30     imgui.obj
 0003:00042de0       s_pRegions                 00000001800c9de0     detours:detours.obj
 0003:00042de8       s_pRegion                  00000001800c9de8     detours:detours.obj
 0003:00042df0       s_fIgnoreTooSmall          00000001800c9df0     detours:detours.obj
 0003:00042df4       s_fRetainRegions           00000001800c9df4     detours:detours.obj
 0003:00042df8       s_nPendingThreadId         00000001800c9df8     detours:detours.obj
 0003:00042dfc       s_nPendingError            00000001800c9dfc     detours:detours.obj
 0003:00042e00       s_ppPendingError           00000001800c9e00     detours:detours.obj
 0003:00042e08       s_pPendingThreads          00000001800c9e08     detours:detours.obj
 0003:00042e10       s_pPendingOperations       00000001800c9e10     detours:detours.obj
 0003:00042e18       ?freq_cached@?1??_Query_perf_frequency@@9@4U?$atomic@_J@std@@A 00000001800c9e18     libcpmt:xtime.obj
 0003:00042e20       ?__KERNEL32Function_GetCurrentPackageId@?A0x995b63b9@@3P6AJPEAIPEAE@ZEA 00000001800c9e20     libcpmt:winapisupp.obj
 0003:00042e28       ?__KERNEL32Function_GetSystemTimePreciseAsFileTime@?A0x995b63b9@@3P6AXPEAU_FILETIME@@@ZEA 00000001800c9e28     libcpmt:winapisupp.obj
 0003:00042e30       ?__KERNEL32Function_GetTempPath2W@?A0x995b63b9@@3P6AKKPEA_W@ZEA 00000001800c9e30     libcpmt:winapisupp.obj
 0003:00042e48       ?is_initialized_as_dll@@3_NA 00000001800c9e48     LIBCMT:utility.obj
 0003:00042e49       ?module_local_atexit_table_initialized@@3_NA 00000001800c9e49     LIBCMT:utility.obj
 0003:00042e50       ?module_local_atexit_table@@3U_onexit_table_t@@A 00000001800c9e50     LIBCMT:utility.obj
 0003:00042e68       ?module_local_at_quick_exit_table@@3U_onexit_table_t@@A 00000001800c9e68     LIBCMT:utility.obj
 0003:00042e80       ?g_tss_cv@@3U_RTL_CONDITION_VARIABLE@@A 00000001800c9e80     LIBCMT:thread_safe_statics.obj
 0003:00042e88       ?g_tss_srw@@3U_RTL_SRWLOCK@@A 00000001800c9e88     LIBCMT:thread_safe_statics.obj
 0003:00042e90       GS_ExceptionRecord         00000001800c9e90     LIBCMT:gs_report.obj
 0003:00042f30       GS_ContextRecord           00000001800c9f30     LIBCMT:gs_report.obj
 0003:00043400       ?__proc_attached@@3HA      00000001800ca400     LIBCMT:dll_dllmain.obj
 0003:00043440       ?__vcrt_startup_thread_ptd@@3U__vcrt_ptd@@A 00000001800ca440     libvcruntime:per_thread_data.obj
 0003:000434c0       __vcrt_lock_table          00000001800ca4c0     libvcruntime:locks.obj
 0003:000434e8       __vcrt_locks_initialized   00000001800ca4e8     libvcruntime:locks.obj
 0003:00043530       ?heap@@3V_HeapManager@@A   00000001800ca530     libvcruntime:undname.obj
 0003:00043558       ?module_handles@@3PAPEAUHINSTANCE__@@A 00000001800ca558     libvcruntime:winapi_downlevel.obj
 0003:00043570       ?function_pointers@@3PAPEAXA 00000001800ca570     libvcruntime:winapi_downlevel.obj
 0003:000435a0       ?__acrt_invalid_parameter_handler@@3V?$dual_state_global@P6AXPEB_W00I_K@Z@__crt_state_management@@A 00000001800ca5a0     libucrt:invalid_parameter.obj
 0003:000435c0       ?__acrt_new_handler@@3V?$dual_state_global@P6AH_K@Z@__crt_state_management@@A 00000001800ca5c0     libucrt:new_handler.obj
 0003:000435c8       ?c_termination_complete@@3JA 00000001800ca5c8     libucrt:exit.obj
 0003:000435d0       ?thread_local_exit_callback_func@@3P6AXPEAXK0@ZEA 00000001800ca5d0     libucrt:exit.obj
 0003:000435d8       ?c_exit_complete@?1???R<lambda_6e4b09c48022b2350581041d5f6b0c4c>@@QEBA@XZ@4_NA 00000001800ca5d8     libucrt:exit.obj
 0003:000435e0       ?program_name@?1???$common_configure_argv@D@@YAHW4_crt_argv_mode@@@Z@4PADA 00000001800ca5e0     libucrt:argv_parsing.obj
 0003:00043b60       ?module_handles@@3PAPEAUHINSTANCE__@@A 00000001800cab60     libucrt:winapi_thunks.obj
 0003:00043c10       ?encoded_function_pointers@@3PAPEAXA 00000001800cac10     libucrt:winapi_thunks.obj
 0003:00043d10       ?__acrt_lock_table@@3PAU_RTL_CRITICAL_SECTION@@A 00000001800cad10     libucrt:locks.obj
 0003:00043f40       ?__acrt_locks_initialized@@3IA 00000001800caf40     libucrt:locks.obj
 0003:00043f58       ?internal_state@?1??_mbtowc_internal@@9@4U_Mbstatet@@A 00000001800caf58     libucrt:mbtowc.obj
 0003:00043f60       ?enable_percent_n@@3_KA    00000001800caf60     libucrt:printf_count_output.obj
 0003:00043f80       ?fSystemSet@@3HA           00000001800caf80     libucrt:mbctype.obj
 0003:00043f84       ?initialized@?1??__acrt_initialize_multibyte@@9@4_NA 00000001800caf84     libucrt:mbctype.obj
 0003:00043fc0       ?ctrlc_action@@3V?$dual_state_global@P6AXH@Z@__crt_state_management@@A 00000001800cafc0     libucrt:signal.obj
 0003:00043fc8       ?ctrlbreak_action@@3V?$dual_state_global@P6AXH@Z@__crt_state_management@@A 00000001800cafc8     libucrt:signal.obj
 0003:00043fd0       ?abort_action@@3V?$dual_state_global@P6AXH@Z@__crt_state_management@@A 00000001800cafd0     libucrt:signal.obj
 0003:00043fd8       ?term_action@@3V?$dual_state_global@P6AXH@Z@__crt_state_management@@A 00000001800cafd8     libucrt:signal.obj
 0003:00043fe0       ?user_matherr@@3V?$dual_state_global@P6AHPEAU_exception@@@Z@__crt_state_management@@A 00000001800cafe0     libucrt:matherr.obj
 0003:00043ff0       ?__acrt_global_new_mode@@3V?$dual_state_global@J@__crt_state_management@@A 00000001800caff0     libucrt:new_mode.obj
 0003:00043ff8       ?__acrt_app_type@@3W4_crt_app_type@@A 00000001800caff8     libucrt:report_runtime_error.obj
 0003:00044000       ?internal_pst@?1??__mbrtoc32_utf8@__crt_mbstring@@YA_KPEA_UPEBD_KPEAU_Mbstatet@@AEAV__crt_cached_ptd_host@@@Z@4U3@A 00000001800cb000     libucrt:mbrtoc32.obj
 0003:00044030       ?GImAllocatorUserData@@3PEAXEA 00000001800cb030     imgui.obj
 0003:00044040       ?stb__barrier_in_b@@3PEBEEB 00000001800cb040     imgui_draw.obj
 0003:00044048       ?stb__barrier_out_e@@3PEAEEA 00000001800cb048     imgui_draw.obj
 0003:00044050       ?stb__barrier_out_b@@3PEAEEA 00000001800cb050     imgui_draw.obj
 0003:00044058       ?stb__dout@@3PEAEEA        00000001800cb058     imgui_draw.obj
 0003:00044060       ?g_pRasterizerState@@3PEAUID3D11RasterizerState@@EA 00000001800cb060     imgui_impl_dx11.obj
 0003:00044068       ?g_pDepthStencilState@@3PEAUID3D11DepthStencilState@@EA 00000001800cb068     imgui_impl_dx11.obj
 0003:00044070       ?g_pPixelShader@@3PEAUID3D11PixelShader@@EA 00000001800cb070     imgui_impl_dx11.obj
 0003:00044078       ?g_pBlendState@@3PEAUID3D11BlendState@@EA 00000001800cb078     imgui_impl_dx11.obj
 0003:00044080       ?g_pVertexShader@@3PEAUID3D11VertexShader@@EA 00000001800cb080     imgui_impl_dx11.obj
 0003:00044088       ?g_pVertexConstantBuffer@@3PEAUID3D11Buffer@@EA 00000001800cb088     imgui_impl_dx11.obj
 0003:00044090       ?g_pInputLayout@@3PEAUID3D11InputLayout@@EA 00000001800cb090     imgui_impl_dx11.obj
 0003:00044098       ?g_pPixelShaderBlob@@3PEAUID3D10Blob@@EA 00000001800cb098     imgui_impl_dx11.obj
 0003:000440a0       ?g_pVertexShaderBlob@@3PEAUID3D10Blob@@EA 00000001800cb0a0     imgui_impl_dx11.obj
 0003:000440a8       ?g_pIB@@3PEAUID3D11Buffer@@EA 00000001800cb0a8     imgui_impl_dx11.obj
 0003:000440b0       ?g_pd3dDevice@@3PEAUID3D11Device@@EA 00000001800cb0b0     imgui_impl_dx11.obj
 0003:000440b8       ?g_pFontSampler@@3PEAUID3D11SamplerState@@EA 00000001800cb0b8     imgui_impl_dx11.obj
 0003:000440c0       ?g_pVB@@3PEAUID3D11Buffer@@EA 00000001800cb0c0     imgui_impl_dx11.obj
 0003:000440c8       ?g_pd3dDeviceContext@@3PEAUID3D11DeviceContext@@EA 00000001800cb0c8     imgui_impl_dx11.obj
 0003:000440d0       ?g_pFontTextureView@@3PEAUID3D11ShaderResourceView@@EA 00000001800cb0d0     imgui_impl_dx11.obj
 0003:000440d8       ?g_hWnd@@3PEAUHWND__@@EA   00000001800cb0d8     imgui_impl_win32.obj
 0003:000440e0       ?g_Time@@3_JA              00000001800cb0e0     imgui_impl_win32.obj
 0003:000440e8       ?g_TicksPerSecond@@3_JA    00000001800cb0e8     imgui_impl_win32.obj
 0003:00044368       ?LastTimePoint@?1??TriggerBot@@YAXXZ@4V?$time_point@Usteady_clock@chrono@std@@V?$duration@_JU?$ratio@$00$0DLJKMKAA@@std@@@23@@chrono@std@@A 00000001800cb368     TriggerBot.obj
 0003:00044370       ?$TSS0@?1??TriggerBot@@YAXXZ@4HA 00000001800cb370     TriggerBot.obj
 0003:00044388       ?$TSS0@?1??GetClipboardTextFn_DefaultImpl@@YAPEBDPEAX@Z@4HA 00000001800cb388     imgui.obj
 0003:00044390       ?buf_local@?1??GetClipboardTextFn_DefaultImpl@@YAPEBDPEAX@Z@4U?$ImVector@D@@A 00000001800cb390     imgui.obj
 0005:00000060       $R000000                   00000001800d1060     * linker generated manifest res *

 Exports

  ordinal    name

